ARM GAS  /tmp/ccmjCdRm.s 			page 1


   1              		.cpu cortex-m4
   2              		.arch armv7e-m
   3              		.fpu softvfp
   4              		.eabi_attribute 20, 1
   5              		.eabi_attribute 21, 1
   6              		.eabi_attribute 23, 3
   7              		.eabi_attribute 24, 1
   8              		.eabi_attribute 25, 1
   9              		.eabi_attribute 26, 1
  10              		.eabi_attribute 30, 1
  11              		.eabi_attribute 34, 1
  12              		.eabi_attribute 18, 4
  13              		.file	"stm32wlxx_hal_dma.c"
  14              		.text
  15              	.Ltext0:
  16              		.cfi_sections	.debug_frame
  17              		.file 1 "external/drivers/stm32wlxx/src/stm32wlxx_hal_dma.c"
  18              		.section	.text.DMA_SetConfig,"ax",%progbits
  19              		.align	1
  20              		.syntax unified
  21              		.thumb
  22              		.thumb_func
  24              	DMA_SetConfig:
  25              	.LVL0:
  26              	.LFB856:
   1:external/drivers/stm32wlxx/src/stm32wlxx_hal_dma.c **** /**
   2:external/drivers/stm32wlxx/src/stm32wlxx_hal_dma.c ****   ******************************************************************************
   3:external/drivers/stm32wlxx/src/stm32wlxx_hal_dma.c ****   * @file    stm32wlxx_hal_dma.c
   4:external/drivers/stm32wlxx/src/stm32wlxx_hal_dma.c ****   * @author  MCD Application Team
   5:external/drivers/stm32wlxx/src/stm32wlxx_hal_dma.c ****   * @brief   DMA HAL module driver.
   6:external/drivers/stm32wlxx/src/stm32wlxx_hal_dma.c ****   *          This file provides firmware functions to manage the following
   7:external/drivers/stm32wlxx/src/stm32wlxx_hal_dma.c ****   *          functionalities of the Direct Memory Access (DMA) peripheral:
   8:external/drivers/stm32wlxx/src/stm32wlxx_hal_dma.c ****   *           + Initialization and de-initialization functions
   9:external/drivers/stm32wlxx/src/stm32wlxx_hal_dma.c ****   *           + IO operation functions
  10:external/drivers/stm32wlxx/src/stm32wlxx_hal_dma.c ****   *           + Peripheral State and errors functions
  11:external/drivers/stm32wlxx/src/stm32wlxx_hal_dma.c ****   *
  12:external/drivers/stm32wlxx/src/stm32wlxx_hal_dma.c ****   ******************************************************************************
  13:external/drivers/stm32wlxx/src/stm32wlxx_hal_dma.c ****   * @attention
  14:external/drivers/stm32wlxx/src/stm32wlxx_hal_dma.c ****   *
  15:external/drivers/stm32wlxx/src/stm32wlxx_hal_dma.c ****   * Copyright (c) 2020 STMicroelectronics.
  16:external/drivers/stm32wlxx/src/stm32wlxx_hal_dma.c ****   * All rights reserved.
  17:external/drivers/stm32wlxx/src/stm32wlxx_hal_dma.c ****   *
  18:external/drivers/stm32wlxx/src/stm32wlxx_hal_dma.c ****   * This software is licensed under terms that can be found in the LICENSE file
  19:external/drivers/stm32wlxx/src/stm32wlxx_hal_dma.c ****   * in the root directory of this software component.
  20:external/drivers/stm32wlxx/src/stm32wlxx_hal_dma.c ****   * If no LICENSE file comes with this software, it is provided AS-IS.
  21:external/drivers/stm32wlxx/src/stm32wlxx_hal_dma.c ****   *
  22:external/drivers/stm32wlxx/src/stm32wlxx_hal_dma.c ****   ******************************************************************************
  23:external/drivers/stm32wlxx/src/stm32wlxx_hal_dma.c ****   @verbatim
  24:external/drivers/stm32wlxx/src/stm32wlxx_hal_dma.c ****   ==============================================================================
  25:external/drivers/stm32wlxx/src/stm32wlxx_hal_dma.c ****                         ##### How to use this driver #####
  26:external/drivers/stm32wlxx/src/stm32wlxx_hal_dma.c ****   ==============================================================================
  27:external/drivers/stm32wlxx/src/stm32wlxx_hal_dma.c ****   [..]
  28:external/drivers/stm32wlxx/src/stm32wlxx_hal_dma.c ****    (#) Enable and configure the peripheral to be connected to the DMA Channel
  29:external/drivers/stm32wlxx/src/stm32wlxx_hal_dma.c ****        (except for internal SRAM / FLASH memories: no initialization is
  30:external/drivers/stm32wlxx/src/stm32wlxx_hal_dma.c ****        necessary). Please refer to the Reference manual for connection between peripherals
  31:external/drivers/stm32wlxx/src/stm32wlxx_hal_dma.c ****        and DMA requests.
  32:external/drivers/stm32wlxx/src/stm32wlxx_hal_dma.c **** 
ARM GAS  /tmp/ccmjCdRm.s 			page 2


  33:external/drivers/stm32wlxx/src/stm32wlxx_hal_dma.c ****    (#) For a given Channel, program the required configuration through the following parameters:
  34:external/drivers/stm32wlxx/src/stm32wlxx_hal_dma.c ****        Channel request, Transfer Direction, Source and Destination data formats,
  35:external/drivers/stm32wlxx/src/stm32wlxx_hal_dma.c ****        Circular or Normal mode, Channel Priority level, Source and Destination Increment mode
  36:external/drivers/stm32wlxx/src/stm32wlxx_hal_dma.c ****        using HAL_DMA_Init() function.
  37:external/drivers/stm32wlxx/src/stm32wlxx_hal_dma.c **** 
  38:external/drivers/stm32wlxx/src/stm32wlxx_hal_dma.c ****        Prior to HAL_DMA_Init the peripheral clock shall be enabled for both DMA & DMAMUX
  39:external/drivers/stm32wlxx/src/stm32wlxx_hal_dma.c ****        thanks to:
  40:external/drivers/stm32wlxx/src/stm32wlxx_hal_dma.c ****       (##) DMA1 or DMA2: __HAL_RCC_DMA1_CLK_ENABLE() or  __HAL_RCC_DMA2_CLK_ENABLE();
  41:external/drivers/stm32wlxx/src/stm32wlxx_hal_dma.c ****       (##) DMAMUX1:      __HAL_RCC_DMAMUX1_CLK_ENABLE();
  42:external/drivers/stm32wlxx/src/stm32wlxx_hal_dma.c **** 
  43:external/drivers/stm32wlxx/src/stm32wlxx_hal_dma.c ****    (#) Use HAL_DMA_GetState() function to return the DMA state and HAL_DMA_GetError() in case of er
  44:external/drivers/stm32wlxx/src/stm32wlxx_hal_dma.c ****        detection.
  45:external/drivers/stm32wlxx/src/stm32wlxx_hal_dma.c **** 
  46:external/drivers/stm32wlxx/src/stm32wlxx_hal_dma.c ****    (#) Use HAL_DMA_Abort() function to abort the current transfer
  47:external/drivers/stm32wlxx/src/stm32wlxx_hal_dma.c **** 
  48:external/drivers/stm32wlxx/src/stm32wlxx_hal_dma.c ****      -@-   In Memory-to-Memory transfer mode, Circular mode is not allowed.
  49:external/drivers/stm32wlxx/src/stm32wlxx_hal_dma.c **** 
  50:external/drivers/stm32wlxx/src/stm32wlxx_hal_dma.c ****      *** Polling mode IO operation ***
  51:external/drivers/stm32wlxx/src/stm32wlxx_hal_dma.c ****      =================================
  52:external/drivers/stm32wlxx/src/stm32wlxx_hal_dma.c ****      [..]
  53:external/drivers/stm32wlxx/src/stm32wlxx_hal_dma.c ****        (+) Use HAL_DMA_Start() to start DMA transfer after the configuration of Source
  54:external/drivers/stm32wlxx/src/stm32wlxx_hal_dma.c ****            address and destination address and the Length of data to be transferred
  55:external/drivers/stm32wlxx/src/stm32wlxx_hal_dma.c ****        (+) Use HAL_DMA_PollForTransfer() to poll for the end of current transfer, in this
  56:external/drivers/stm32wlxx/src/stm32wlxx_hal_dma.c ****            case a fixed Timeout can be configured by User depending from his application.
  57:external/drivers/stm32wlxx/src/stm32wlxx_hal_dma.c **** 
  58:external/drivers/stm32wlxx/src/stm32wlxx_hal_dma.c ****      *** Interrupt mode IO operation ***
  59:external/drivers/stm32wlxx/src/stm32wlxx_hal_dma.c ****      ===================================
  60:external/drivers/stm32wlxx/src/stm32wlxx_hal_dma.c ****      [..]
  61:external/drivers/stm32wlxx/src/stm32wlxx_hal_dma.c ****        (+) Configure the DMA interrupt priority using HAL_NVIC_SetPriority()
  62:external/drivers/stm32wlxx/src/stm32wlxx_hal_dma.c ****        (+) Enable the DMA IRQ handler using HAL_NVIC_EnableIRQ()
  63:external/drivers/stm32wlxx/src/stm32wlxx_hal_dma.c ****        (+) Use HAL_DMA_Start_IT() to start DMA transfer after the configuration of
  64:external/drivers/stm32wlxx/src/stm32wlxx_hal_dma.c ****            Source address and destination address and the Length of data to be transferred.
  65:external/drivers/stm32wlxx/src/stm32wlxx_hal_dma.c ****            In this case the DMA interrupt is configured
  66:external/drivers/stm32wlxx/src/stm32wlxx_hal_dma.c ****        (+) Use HAL_DMA_IRQHandler() called under DMA_IRQHandler() Interrupt subroutine
  67:external/drivers/stm32wlxx/src/stm32wlxx_hal_dma.c ****        (+) At the end of data transfer HAL_DMA_IRQHandler() function is executed and user can
  68:external/drivers/stm32wlxx/src/stm32wlxx_hal_dma.c ****               add his own function to register callbacks with HAL_DMA_RegisterCallback().
  69:external/drivers/stm32wlxx/src/stm32wlxx_hal_dma.c **** 
  70:external/drivers/stm32wlxx/src/stm32wlxx_hal_dma.c ****      *** DMA HAL driver macros list ***
  71:external/drivers/stm32wlxx/src/stm32wlxx_hal_dma.c ****      =============================================
  72:external/drivers/stm32wlxx/src/stm32wlxx_hal_dma.c ****      [..]
  73:external/drivers/stm32wlxx/src/stm32wlxx_hal_dma.c ****        Below the list of macros in DMA HAL driver.
  74:external/drivers/stm32wlxx/src/stm32wlxx_hal_dma.c **** 
  75:external/drivers/stm32wlxx/src/stm32wlxx_hal_dma.c ****        (+) __HAL_DMA_ENABLE: Enable the specified DMA Channel.
  76:external/drivers/stm32wlxx/src/stm32wlxx_hal_dma.c ****        (+) __HAL_DMA_DISABLE: Disable the specified DMA Channel.
  77:external/drivers/stm32wlxx/src/stm32wlxx_hal_dma.c ****        (+) __HAL_DMA_GET_FLAG: Get the DMA Channel pending flags.
  78:external/drivers/stm32wlxx/src/stm32wlxx_hal_dma.c ****        (+) __HAL_DMA_CLEAR_FLAG: Clear the DMA Channel pending flags.
  79:external/drivers/stm32wlxx/src/stm32wlxx_hal_dma.c ****        (+) __HAL_DMA_ENABLE_IT: Enable the specified DMA Channel interrupts.
  80:external/drivers/stm32wlxx/src/stm32wlxx_hal_dma.c ****        (+) __HAL_DMA_DISABLE_IT: Disable the specified DMA Channel interrupts.
  81:external/drivers/stm32wlxx/src/stm32wlxx_hal_dma.c ****        (+) __HAL_DMA_GET_IT_SOURCE: Check whether the specified DMA Channel interrupt is enabled or
  82:external/drivers/stm32wlxx/src/stm32wlxx_hal_dma.c **** 
  83:external/drivers/stm32wlxx/src/stm32wlxx_hal_dma.c ****      [..]
  84:external/drivers/stm32wlxx/src/stm32wlxx_hal_dma.c ****       (@) You can refer to the DMA HAL driver header file for more useful macros
  85:external/drivers/stm32wlxx/src/stm32wlxx_hal_dma.c **** 
  86:external/drivers/stm32wlxx/src/stm32wlxx_hal_dma.c ****   @endverbatim
  87:external/drivers/stm32wlxx/src/stm32wlxx_hal_dma.c ****   ******************************************************************************
  88:external/drivers/stm32wlxx/src/stm32wlxx_hal_dma.c ****   */
  89:external/drivers/stm32wlxx/src/stm32wlxx_hal_dma.c **** 
ARM GAS  /tmp/ccmjCdRm.s 			page 3


  90:external/drivers/stm32wlxx/src/stm32wlxx_hal_dma.c **** /* Includes ------------------------------------------------------------------*/
  91:external/drivers/stm32wlxx/src/stm32wlxx_hal_dma.c **** #include "stm32wlxx_hal.h"
  92:external/drivers/stm32wlxx/src/stm32wlxx_hal_dma.c **** 
  93:external/drivers/stm32wlxx/src/stm32wlxx_hal_dma.c **** /** @addtogroup STM32WLxx_HAL_Driver
  94:external/drivers/stm32wlxx/src/stm32wlxx_hal_dma.c ****   * @{
  95:external/drivers/stm32wlxx/src/stm32wlxx_hal_dma.c ****   */
  96:external/drivers/stm32wlxx/src/stm32wlxx_hal_dma.c **** 
  97:external/drivers/stm32wlxx/src/stm32wlxx_hal_dma.c **** /** @defgroup DMA DMA
  98:external/drivers/stm32wlxx/src/stm32wlxx_hal_dma.c ****   * @brief DMA HAL module driver
  99:external/drivers/stm32wlxx/src/stm32wlxx_hal_dma.c ****   * @{
 100:external/drivers/stm32wlxx/src/stm32wlxx_hal_dma.c ****   */
 101:external/drivers/stm32wlxx/src/stm32wlxx_hal_dma.c **** 
 102:external/drivers/stm32wlxx/src/stm32wlxx_hal_dma.c **** #ifdef HAL_DMA_MODULE_ENABLED
 103:external/drivers/stm32wlxx/src/stm32wlxx_hal_dma.c **** 
 104:external/drivers/stm32wlxx/src/stm32wlxx_hal_dma.c **** /* Private typedef -----------------------------------------------------------*/
 105:external/drivers/stm32wlxx/src/stm32wlxx_hal_dma.c **** /* Private define ------------------------------------------------------------*/
 106:external/drivers/stm32wlxx/src/stm32wlxx_hal_dma.c **** /* Private macro -------------------------------------------------------------*/
 107:external/drivers/stm32wlxx/src/stm32wlxx_hal_dma.c **** /* Private variables ---------------------------------------------------------*/
 108:external/drivers/stm32wlxx/src/stm32wlxx_hal_dma.c **** /* Private function prototypes -----------------------------------------------*/
 109:external/drivers/stm32wlxx/src/stm32wlxx_hal_dma.c **** 
 110:external/drivers/stm32wlxx/src/stm32wlxx_hal_dma.c **** /** @defgroup DMA_Private_Functions DMA Private Functions
 111:external/drivers/stm32wlxx/src/stm32wlxx_hal_dma.c ****   * @{
 112:external/drivers/stm32wlxx/src/stm32wlxx_hal_dma.c ****   */
 113:external/drivers/stm32wlxx/src/stm32wlxx_hal_dma.c **** static void DMA_SetConfig(DMA_HandleTypeDef *hdma, uint32_t SrcAddress, uint32_t DstAddress, uint32
 114:external/drivers/stm32wlxx/src/stm32wlxx_hal_dma.c **** static void DMA_CalcDMAMUXChannelBaseAndMask(DMA_HandleTypeDef *hdma);
 115:external/drivers/stm32wlxx/src/stm32wlxx_hal_dma.c **** static void DMA_CalcDMAMUXRequestGenBaseAndMask(DMA_HandleTypeDef *hdma);
 116:external/drivers/stm32wlxx/src/stm32wlxx_hal_dma.c **** 
 117:external/drivers/stm32wlxx/src/stm32wlxx_hal_dma.c **** /**
 118:external/drivers/stm32wlxx/src/stm32wlxx_hal_dma.c ****   * @}
 119:external/drivers/stm32wlxx/src/stm32wlxx_hal_dma.c ****   */
 120:external/drivers/stm32wlxx/src/stm32wlxx_hal_dma.c **** 
 121:external/drivers/stm32wlxx/src/stm32wlxx_hal_dma.c **** /* Exported functions ---------------------------------------------------------*/
 122:external/drivers/stm32wlxx/src/stm32wlxx_hal_dma.c **** 
 123:external/drivers/stm32wlxx/src/stm32wlxx_hal_dma.c **** /** @defgroup DMA_Exported_Functions DMA Exported Functions
 124:external/drivers/stm32wlxx/src/stm32wlxx_hal_dma.c ****   * @{
 125:external/drivers/stm32wlxx/src/stm32wlxx_hal_dma.c ****   */
 126:external/drivers/stm32wlxx/src/stm32wlxx_hal_dma.c **** 
 127:external/drivers/stm32wlxx/src/stm32wlxx_hal_dma.c **** /** @defgroup DMA_Exported_Functions_Group1 Initialization and de-initialization functions
 128:external/drivers/stm32wlxx/src/stm32wlxx_hal_dma.c ****   *  @brief   Initialization and de-initialization functions
 129:external/drivers/stm32wlxx/src/stm32wlxx_hal_dma.c ****   *
 130:external/drivers/stm32wlxx/src/stm32wlxx_hal_dma.c **** @verbatim
 131:external/drivers/stm32wlxx/src/stm32wlxx_hal_dma.c ****  ===============================================================================
 132:external/drivers/stm32wlxx/src/stm32wlxx_hal_dma.c ****              ##### Initialization and de-initialization functions  #####
 133:external/drivers/stm32wlxx/src/stm32wlxx_hal_dma.c ****  ===============================================================================
 134:external/drivers/stm32wlxx/src/stm32wlxx_hal_dma.c ****     [..]
 135:external/drivers/stm32wlxx/src/stm32wlxx_hal_dma.c ****     This section provides functions allowing to initialize the DMA Channel source
 136:external/drivers/stm32wlxx/src/stm32wlxx_hal_dma.c ****     and destination addresses, incrementation and data sizes, transfer direction,
 137:external/drivers/stm32wlxx/src/stm32wlxx_hal_dma.c ****     circular/normal mode selection, memory-to-memory mode selection and Channel priority value.
 138:external/drivers/stm32wlxx/src/stm32wlxx_hal_dma.c ****     [..]
 139:external/drivers/stm32wlxx/src/stm32wlxx_hal_dma.c ****     The HAL_DMA_Init() function follows the DMA configuration procedures as described in
 140:external/drivers/stm32wlxx/src/stm32wlxx_hal_dma.c ****     reference manual.
 141:external/drivers/stm32wlxx/src/stm32wlxx_hal_dma.c **** 
 142:external/drivers/stm32wlxx/src/stm32wlxx_hal_dma.c **** @endverbatim
 143:external/drivers/stm32wlxx/src/stm32wlxx_hal_dma.c ****   * @{
 144:external/drivers/stm32wlxx/src/stm32wlxx_hal_dma.c ****   */
 145:external/drivers/stm32wlxx/src/stm32wlxx_hal_dma.c **** 
 146:external/drivers/stm32wlxx/src/stm32wlxx_hal_dma.c **** /**
ARM GAS  /tmp/ccmjCdRm.s 			page 4


 147:external/drivers/stm32wlxx/src/stm32wlxx_hal_dma.c ****   * @brief Initialize the DMA according to the specified
 148:external/drivers/stm32wlxx/src/stm32wlxx_hal_dma.c ****   *        parameters in the DMA_InitTypeDef and initialize the associated handle.
 149:external/drivers/stm32wlxx/src/stm32wlxx_hal_dma.c ****   * @param hdma Pointer to a DMA_HandleTypeDef structure that contains
 150:external/drivers/stm32wlxx/src/stm32wlxx_hal_dma.c ****   *             the configuration information for the specified DMA Channel.
 151:external/drivers/stm32wlxx/src/stm32wlxx_hal_dma.c ****   * @retval HAL status
 152:external/drivers/stm32wlxx/src/stm32wlxx_hal_dma.c ****   */
 153:external/drivers/stm32wlxx/src/stm32wlxx_hal_dma.c **** HAL_StatusTypeDef HAL_DMA_Init(DMA_HandleTypeDef *hdma)
 154:external/drivers/stm32wlxx/src/stm32wlxx_hal_dma.c **** {
 155:external/drivers/stm32wlxx/src/stm32wlxx_hal_dma.c ****   /* Check the DMA handle allocation */
 156:external/drivers/stm32wlxx/src/stm32wlxx_hal_dma.c ****   if (hdma == NULL)
 157:external/drivers/stm32wlxx/src/stm32wlxx_hal_dma.c ****   {
 158:external/drivers/stm32wlxx/src/stm32wlxx_hal_dma.c ****     return HAL_ERROR;
 159:external/drivers/stm32wlxx/src/stm32wlxx_hal_dma.c ****   }
 160:external/drivers/stm32wlxx/src/stm32wlxx_hal_dma.c **** 
 161:external/drivers/stm32wlxx/src/stm32wlxx_hal_dma.c ****   /* Check the parameters */
 162:external/drivers/stm32wlxx/src/stm32wlxx_hal_dma.c ****   assert_param(IS_DMA_ALL_INSTANCE(hdma->Instance));
 163:external/drivers/stm32wlxx/src/stm32wlxx_hal_dma.c ****   assert_param(IS_DMA_DIRECTION(hdma->Init.Direction));
 164:external/drivers/stm32wlxx/src/stm32wlxx_hal_dma.c ****   assert_param(IS_DMA_PERIPHERAL_INC_STATE(hdma->Init.PeriphInc));
 165:external/drivers/stm32wlxx/src/stm32wlxx_hal_dma.c ****   assert_param(IS_DMA_MEMORY_INC_STATE(hdma->Init.MemInc));
 166:external/drivers/stm32wlxx/src/stm32wlxx_hal_dma.c ****   assert_param(IS_DMA_PERIPHERAL_DATA_SIZE(hdma->Init.PeriphDataAlignment));
 167:external/drivers/stm32wlxx/src/stm32wlxx_hal_dma.c ****   assert_param(IS_DMA_MEMORY_DATA_SIZE(hdma->Init.MemDataAlignment));
 168:external/drivers/stm32wlxx/src/stm32wlxx_hal_dma.c ****   assert_param(IS_DMA_MODE(hdma->Init.Mode));
 169:external/drivers/stm32wlxx/src/stm32wlxx_hal_dma.c ****   assert_param(IS_DMA_PRIORITY(hdma->Init.Priority));
 170:external/drivers/stm32wlxx/src/stm32wlxx_hal_dma.c **** 
 171:external/drivers/stm32wlxx/src/stm32wlxx_hal_dma.c ****   assert_param(IS_DMA_ALL_REQUEST(hdma->Init.Request));
 172:external/drivers/stm32wlxx/src/stm32wlxx_hal_dma.c **** 
 173:external/drivers/stm32wlxx/src/stm32wlxx_hal_dma.c ****   /* Compute the channel index */
 174:external/drivers/stm32wlxx/src/stm32wlxx_hal_dma.c ****   if ((uint32_t)(hdma->Instance) < (uint32_t)(DMA2_Channel1))
 175:external/drivers/stm32wlxx/src/stm32wlxx_hal_dma.c ****   {
 176:external/drivers/stm32wlxx/src/stm32wlxx_hal_dma.c ****     /* DMA1 */
 177:external/drivers/stm32wlxx/src/stm32wlxx_hal_dma.c ****     hdma->ChannelIndex = (((uint32_t)hdma->Instance - (uint32_t)DMA1_Channel1) / ((uint32_t)DMA1_Ch
 178:external/drivers/stm32wlxx/src/stm32wlxx_hal_dma.c ****     hdma->DmaBaseAddress = DMA1;
 179:external/drivers/stm32wlxx/src/stm32wlxx_hal_dma.c ****   }
 180:external/drivers/stm32wlxx/src/stm32wlxx_hal_dma.c ****   else
 181:external/drivers/stm32wlxx/src/stm32wlxx_hal_dma.c ****   {
 182:external/drivers/stm32wlxx/src/stm32wlxx_hal_dma.c ****     /* DMA2 */
 183:external/drivers/stm32wlxx/src/stm32wlxx_hal_dma.c ****     hdma->ChannelIndex = (((uint32_t)hdma->Instance - (uint32_t)DMA2_Channel1) / ((uint32_t)DMA2_Ch
 184:external/drivers/stm32wlxx/src/stm32wlxx_hal_dma.c ****     hdma->DmaBaseAddress = DMA2;
 185:external/drivers/stm32wlxx/src/stm32wlxx_hal_dma.c ****   }
 186:external/drivers/stm32wlxx/src/stm32wlxx_hal_dma.c **** 
 187:external/drivers/stm32wlxx/src/stm32wlxx_hal_dma.c ****   /* Change DMA peripheral state */
 188:external/drivers/stm32wlxx/src/stm32wlxx_hal_dma.c ****   hdma->State = HAL_DMA_STATE_BUSY;
 189:external/drivers/stm32wlxx/src/stm32wlxx_hal_dma.c **** 
 190:external/drivers/stm32wlxx/src/stm32wlxx_hal_dma.c ****   /* Clear PL, MSIZE, PSIZE, MINC, PINC, CIRC, DIR and MEM2MEM bits */
 191:external/drivers/stm32wlxx/src/stm32wlxx_hal_dma.c ****   CLEAR_BIT(hdma->Instance->CCR, (DMA_CCR_PL    | DMA_CCR_MSIZE  | DMA_CCR_PSIZE  | \
 192:external/drivers/stm32wlxx/src/stm32wlxx_hal_dma.c ****                                   DMA_CCR_MINC  | DMA_CCR_PINC   | DMA_CCR_CIRC   | \
 193:external/drivers/stm32wlxx/src/stm32wlxx_hal_dma.c ****                                   DMA_CCR_DIR   | DMA_CCR_MEM2MEM));
 194:external/drivers/stm32wlxx/src/stm32wlxx_hal_dma.c **** 
 195:external/drivers/stm32wlxx/src/stm32wlxx_hal_dma.c ****   /* Set the DMA Channel configuration */
 196:external/drivers/stm32wlxx/src/stm32wlxx_hal_dma.c ****   SET_BIT(hdma->Instance->CCR, (hdma->Init.Direction           |                               \
 197:external/drivers/stm32wlxx/src/stm32wlxx_hal_dma.c ****                                 hdma->Init.PeriphInc           | hdma->Init.MemInc           | \
 198:external/drivers/stm32wlxx/src/stm32wlxx_hal_dma.c ****                                 hdma->Init.PeriphDataAlignment | hdma->Init.MemDataAlignment | \
 199:external/drivers/stm32wlxx/src/stm32wlxx_hal_dma.c ****                                 hdma->Init.Mode                | hdma->Init.Priority));
 200:external/drivers/stm32wlxx/src/stm32wlxx_hal_dma.c **** 
 201:external/drivers/stm32wlxx/src/stm32wlxx_hal_dma.c ****   /* Initialize parameters for DMAMUX channel :
 202:external/drivers/stm32wlxx/src/stm32wlxx_hal_dma.c ****      DMAmuxChannel, DMAmuxChannelStatus and DMAmuxChannelStatusMask
 203:external/drivers/stm32wlxx/src/stm32wlxx_hal_dma.c ****   */
ARM GAS  /tmp/ccmjCdRm.s 			page 5


 204:external/drivers/stm32wlxx/src/stm32wlxx_hal_dma.c ****   DMA_CalcDMAMUXChannelBaseAndMask(hdma);
 205:external/drivers/stm32wlxx/src/stm32wlxx_hal_dma.c **** 
 206:external/drivers/stm32wlxx/src/stm32wlxx_hal_dma.c ****   if (hdma->Init.Direction == DMA_MEMORY_TO_MEMORY)
 207:external/drivers/stm32wlxx/src/stm32wlxx_hal_dma.c ****   {
 208:external/drivers/stm32wlxx/src/stm32wlxx_hal_dma.c ****     /* if memory to memory force the request to 0*/
 209:external/drivers/stm32wlxx/src/stm32wlxx_hal_dma.c ****     hdma->Init.Request = DMA_REQUEST_MEM2MEM;
 210:external/drivers/stm32wlxx/src/stm32wlxx_hal_dma.c ****   }
 211:external/drivers/stm32wlxx/src/stm32wlxx_hal_dma.c **** 
 212:external/drivers/stm32wlxx/src/stm32wlxx_hal_dma.c ****   /* Set peripheral request  to DMAMUX channel */
 213:external/drivers/stm32wlxx/src/stm32wlxx_hal_dma.c ****   hdma->DMAmuxChannel->CCR = (hdma->Init.Request & DMAMUX_CxCR_DMAREQ_ID);
 214:external/drivers/stm32wlxx/src/stm32wlxx_hal_dma.c **** 
 215:external/drivers/stm32wlxx/src/stm32wlxx_hal_dma.c ****   /* Clear the DMAMUX synchro overrun flag */
 216:external/drivers/stm32wlxx/src/stm32wlxx_hal_dma.c ****   hdma->DMAmuxChannelStatus->CFR = hdma->DMAmuxChannelStatusMask;
 217:external/drivers/stm32wlxx/src/stm32wlxx_hal_dma.c **** 
 218:external/drivers/stm32wlxx/src/stm32wlxx_hal_dma.c ****   if (((hdma->Init.Request >  0UL) && (hdma->Init.Request <= DMA_REQUEST_GENERATOR3)))
 219:external/drivers/stm32wlxx/src/stm32wlxx_hal_dma.c ****   {
 220:external/drivers/stm32wlxx/src/stm32wlxx_hal_dma.c ****     /* Initialize parameters for DMAMUX request generator :
 221:external/drivers/stm32wlxx/src/stm32wlxx_hal_dma.c ****        DMAmuxRequestGen, DMAmuxRequestGenStatus and DMAmuxRequestGenStatusMask
 222:external/drivers/stm32wlxx/src/stm32wlxx_hal_dma.c ****     */
 223:external/drivers/stm32wlxx/src/stm32wlxx_hal_dma.c ****     DMA_CalcDMAMUXRequestGenBaseAndMask(hdma);
 224:external/drivers/stm32wlxx/src/stm32wlxx_hal_dma.c **** 
 225:external/drivers/stm32wlxx/src/stm32wlxx_hal_dma.c ****     /* Reset the DMAMUX request generator register*/
 226:external/drivers/stm32wlxx/src/stm32wlxx_hal_dma.c ****     hdma->DMAmuxRequestGen->RGCR = 0U;
 227:external/drivers/stm32wlxx/src/stm32wlxx_hal_dma.c **** 
 228:external/drivers/stm32wlxx/src/stm32wlxx_hal_dma.c ****     /* Clear the DMAMUX request generator overrun flag */
 229:external/drivers/stm32wlxx/src/stm32wlxx_hal_dma.c ****     hdma->DMAmuxRequestGenStatus->RGCFR = hdma->DMAmuxRequestGenStatusMask;
 230:external/drivers/stm32wlxx/src/stm32wlxx_hal_dma.c ****   }
 231:external/drivers/stm32wlxx/src/stm32wlxx_hal_dma.c ****   else
 232:external/drivers/stm32wlxx/src/stm32wlxx_hal_dma.c ****   {
 233:external/drivers/stm32wlxx/src/stm32wlxx_hal_dma.c ****     hdma->DMAmuxRequestGen = NULL;
 234:external/drivers/stm32wlxx/src/stm32wlxx_hal_dma.c ****     hdma->DMAmuxRequestGenStatus = NULL;
 235:external/drivers/stm32wlxx/src/stm32wlxx_hal_dma.c ****     hdma->DMAmuxRequestGenStatusMask = 0U;
 236:external/drivers/stm32wlxx/src/stm32wlxx_hal_dma.c ****   }
 237:external/drivers/stm32wlxx/src/stm32wlxx_hal_dma.c **** 
 238:external/drivers/stm32wlxx/src/stm32wlxx_hal_dma.c ****   /* Initialize the error code */
 239:external/drivers/stm32wlxx/src/stm32wlxx_hal_dma.c ****   hdma->ErrorCode = HAL_DMA_ERROR_NONE;
 240:external/drivers/stm32wlxx/src/stm32wlxx_hal_dma.c **** 
 241:external/drivers/stm32wlxx/src/stm32wlxx_hal_dma.c ****   /* Initialize the DMA state*/
 242:external/drivers/stm32wlxx/src/stm32wlxx_hal_dma.c ****   hdma->State = HAL_DMA_STATE_READY;
 243:external/drivers/stm32wlxx/src/stm32wlxx_hal_dma.c **** 
 244:external/drivers/stm32wlxx/src/stm32wlxx_hal_dma.c ****   /* Release Lock */
 245:external/drivers/stm32wlxx/src/stm32wlxx_hal_dma.c ****   __HAL_UNLOCK(hdma);
 246:external/drivers/stm32wlxx/src/stm32wlxx_hal_dma.c **** 
 247:external/drivers/stm32wlxx/src/stm32wlxx_hal_dma.c ****   return HAL_OK;
 248:external/drivers/stm32wlxx/src/stm32wlxx_hal_dma.c **** }
 249:external/drivers/stm32wlxx/src/stm32wlxx_hal_dma.c **** 
 250:external/drivers/stm32wlxx/src/stm32wlxx_hal_dma.c **** /**
 251:external/drivers/stm32wlxx/src/stm32wlxx_hal_dma.c ****   * @brief DeInitialize the DMA peripheral.
 252:external/drivers/stm32wlxx/src/stm32wlxx_hal_dma.c ****   * @param hdma Pointer to a DMA_HandleTypeDef structure that contains
 253:external/drivers/stm32wlxx/src/stm32wlxx_hal_dma.c ****   *             the configuration information for the specified DMA Channel.
 254:external/drivers/stm32wlxx/src/stm32wlxx_hal_dma.c ****   * @retval HAL status
 255:external/drivers/stm32wlxx/src/stm32wlxx_hal_dma.c ****   */
 256:external/drivers/stm32wlxx/src/stm32wlxx_hal_dma.c **** HAL_StatusTypeDef HAL_DMA_DeInit(DMA_HandleTypeDef *hdma)
 257:external/drivers/stm32wlxx/src/stm32wlxx_hal_dma.c **** {
 258:external/drivers/stm32wlxx/src/stm32wlxx_hal_dma.c ****   /* Check the DMA handle allocation */
 259:external/drivers/stm32wlxx/src/stm32wlxx_hal_dma.c ****   if (NULL == hdma)
 260:external/drivers/stm32wlxx/src/stm32wlxx_hal_dma.c ****   {
ARM GAS  /tmp/ccmjCdRm.s 			page 6


 261:external/drivers/stm32wlxx/src/stm32wlxx_hal_dma.c ****     return HAL_ERROR;
 262:external/drivers/stm32wlxx/src/stm32wlxx_hal_dma.c ****   }
 263:external/drivers/stm32wlxx/src/stm32wlxx_hal_dma.c **** 
 264:external/drivers/stm32wlxx/src/stm32wlxx_hal_dma.c ****   /* Check the parameters */
 265:external/drivers/stm32wlxx/src/stm32wlxx_hal_dma.c ****   assert_param(IS_DMA_ALL_INSTANCE(hdma->Instance));
 266:external/drivers/stm32wlxx/src/stm32wlxx_hal_dma.c **** 
 267:external/drivers/stm32wlxx/src/stm32wlxx_hal_dma.c ****   /* Disable the selected DMA Channelx */
 268:external/drivers/stm32wlxx/src/stm32wlxx_hal_dma.c ****   __HAL_DMA_DISABLE(hdma);
 269:external/drivers/stm32wlxx/src/stm32wlxx_hal_dma.c **** 
 270:external/drivers/stm32wlxx/src/stm32wlxx_hal_dma.c ****   /* Compute the channel index */
 271:external/drivers/stm32wlxx/src/stm32wlxx_hal_dma.c ****   if ((uint32_t)(hdma->Instance) < (uint32_t)(DMA2_Channel1))
 272:external/drivers/stm32wlxx/src/stm32wlxx_hal_dma.c ****   {
 273:external/drivers/stm32wlxx/src/stm32wlxx_hal_dma.c ****     /* DMA1 */
 274:external/drivers/stm32wlxx/src/stm32wlxx_hal_dma.c ****     hdma->ChannelIndex = (((uint32_t)hdma->Instance - (uint32_t)DMA1_Channel1) / ((uint32_t)DMA1_Ch
 275:external/drivers/stm32wlxx/src/stm32wlxx_hal_dma.c ****     hdma->DmaBaseAddress = DMA1;
 276:external/drivers/stm32wlxx/src/stm32wlxx_hal_dma.c ****   }
 277:external/drivers/stm32wlxx/src/stm32wlxx_hal_dma.c ****   else
 278:external/drivers/stm32wlxx/src/stm32wlxx_hal_dma.c ****   {
 279:external/drivers/stm32wlxx/src/stm32wlxx_hal_dma.c ****     /* DMA2 */
 280:external/drivers/stm32wlxx/src/stm32wlxx_hal_dma.c ****     hdma->ChannelIndex = (((uint32_t)hdma->Instance - (uint32_t)DMA2_Channel1) / ((uint32_t)DMA2_Ch
 281:external/drivers/stm32wlxx/src/stm32wlxx_hal_dma.c ****     hdma->DmaBaseAddress = DMA2;
 282:external/drivers/stm32wlxx/src/stm32wlxx_hal_dma.c ****   }
 283:external/drivers/stm32wlxx/src/stm32wlxx_hal_dma.c **** 
 284:external/drivers/stm32wlxx/src/stm32wlxx_hal_dma.c ****   /* Reset DMA Channel control register */
 285:external/drivers/stm32wlxx/src/stm32wlxx_hal_dma.c ****   hdma->Instance->CCR = 0U;
 286:external/drivers/stm32wlxx/src/stm32wlxx_hal_dma.c **** 
 287:external/drivers/stm32wlxx/src/stm32wlxx_hal_dma.c ****   /* Clear all flags */
 288:external/drivers/stm32wlxx/src/stm32wlxx_hal_dma.c ****   hdma->DmaBaseAddress->IFCR = (DMA_ISR_GIF1 << (hdma->ChannelIndex & 0x1CU));
 289:external/drivers/stm32wlxx/src/stm32wlxx_hal_dma.c **** 
 290:external/drivers/stm32wlxx/src/stm32wlxx_hal_dma.c ****   /* Initialize parameters for DMAMUX channel :
 291:external/drivers/stm32wlxx/src/stm32wlxx_hal_dma.c ****      DMAmuxChannel, DMAmuxChannelStatus and DMAmuxChannelStatusMask */
 292:external/drivers/stm32wlxx/src/stm32wlxx_hal_dma.c **** 
 293:external/drivers/stm32wlxx/src/stm32wlxx_hal_dma.c ****   DMA_CalcDMAMUXChannelBaseAndMask(hdma);
 294:external/drivers/stm32wlxx/src/stm32wlxx_hal_dma.c **** 
 295:external/drivers/stm32wlxx/src/stm32wlxx_hal_dma.c ****   /* Reset the DMAMUX channel that corresponds to the DMA channel */
 296:external/drivers/stm32wlxx/src/stm32wlxx_hal_dma.c ****   hdma->DMAmuxChannel->CCR = 0U;
 297:external/drivers/stm32wlxx/src/stm32wlxx_hal_dma.c **** 
 298:external/drivers/stm32wlxx/src/stm32wlxx_hal_dma.c ****   /* Clear the DMAMUX synchro overrun flag */
 299:external/drivers/stm32wlxx/src/stm32wlxx_hal_dma.c ****   hdma->DMAmuxChannelStatus->CFR = hdma->DMAmuxChannelStatusMask;
 300:external/drivers/stm32wlxx/src/stm32wlxx_hal_dma.c **** 
 301:external/drivers/stm32wlxx/src/stm32wlxx_hal_dma.c ****   /* Reset Request generator parameters if any */
 302:external/drivers/stm32wlxx/src/stm32wlxx_hal_dma.c ****   if (((hdma->Init.Request >  0UL) && (hdma->Init.Request <= DMA_REQUEST_GENERATOR3)))
 303:external/drivers/stm32wlxx/src/stm32wlxx_hal_dma.c ****   {
 304:external/drivers/stm32wlxx/src/stm32wlxx_hal_dma.c ****     /* Initialize parameters for DMAMUX request generator :
 305:external/drivers/stm32wlxx/src/stm32wlxx_hal_dma.c ****        DMAmuxRequestGen, DMAmuxRequestGenStatus and DMAmuxRequestGenStatusMask
 306:external/drivers/stm32wlxx/src/stm32wlxx_hal_dma.c ****     */
 307:external/drivers/stm32wlxx/src/stm32wlxx_hal_dma.c ****     DMA_CalcDMAMUXRequestGenBaseAndMask(hdma);
 308:external/drivers/stm32wlxx/src/stm32wlxx_hal_dma.c **** 
 309:external/drivers/stm32wlxx/src/stm32wlxx_hal_dma.c ****     /* Reset the DMAMUX request generator register*/
 310:external/drivers/stm32wlxx/src/stm32wlxx_hal_dma.c ****     hdma->DMAmuxRequestGen->RGCR = 0U;
 311:external/drivers/stm32wlxx/src/stm32wlxx_hal_dma.c **** 
 312:external/drivers/stm32wlxx/src/stm32wlxx_hal_dma.c ****     /* Clear the DMAMUX request generator overrun flag */
 313:external/drivers/stm32wlxx/src/stm32wlxx_hal_dma.c ****     hdma->DMAmuxRequestGenStatus->RGCFR = hdma->DMAmuxRequestGenStatusMask;
 314:external/drivers/stm32wlxx/src/stm32wlxx_hal_dma.c ****   }
 315:external/drivers/stm32wlxx/src/stm32wlxx_hal_dma.c **** 
 316:external/drivers/stm32wlxx/src/stm32wlxx_hal_dma.c ****   hdma->DMAmuxRequestGen = NULL;
 317:external/drivers/stm32wlxx/src/stm32wlxx_hal_dma.c ****   hdma->DMAmuxRequestGenStatus = NULL;
ARM GAS  /tmp/ccmjCdRm.s 			page 7


 318:external/drivers/stm32wlxx/src/stm32wlxx_hal_dma.c ****   hdma->DMAmuxRequestGenStatusMask = 0U;
 319:external/drivers/stm32wlxx/src/stm32wlxx_hal_dma.c **** 
 320:external/drivers/stm32wlxx/src/stm32wlxx_hal_dma.c ****   /* Clean callbacks */
 321:external/drivers/stm32wlxx/src/stm32wlxx_hal_dma.c ****   hdma->XferCpltCallback = NULL;
 322:external/drivers/stm32wlxx/src/stm32wlxx_hal_dma.c ****   hdma->XferHalfCpltCallback = NULL;
 323:external/drivers/stm32wlxx/src/stm32wlxx_hal_dma.c ****   hdma->XferErrorCallback = NULL;
 324:external/drivers/stm32wlxx/src/stm32wlxx_hal_dma.c ****   hdma->XferAbortCallback = NULL;
 325:external/drivers/stm32wlxx/src/stm32wlxx_hal_dma.c **** 
 326:external/drivers/stm32wlxx/src/stm32wlxx_hal_dma.c ****   /* Initialize the error code */
 327:external/drivers/stm32wlxx/src/stm32wlxx_hal_dma.c ****   hdma->ErrorCode = HAL_DMA_ERROR_NONE;
 328:external/drivers/stm32wlxx/src/stm32wlxx_hal_dma.c **** 
 329:external/drivers/stm32wlxx/src/stm32wlxx_hal_dma.c ****   /* Initialize the DMA state */
 330:external/drivers/stm32wlxx/src/stm32wlxx_hal_dma.c ****   hdma->State = HAL_DMA_STATE_RESET;
 331:external/drivers/stm32wlxx/src/stm32wlxx_hal_dma.c **** 
 332:external/drivers/stm32wlxx/src/stm32wlxx_hal_dma.c ****   /* Release Lock */
 333:external/drivers/stm32wlxx/src/stm32wlxx_hal_dma.c ****   __HAL_UNLOCK(hdma);
 334:external/drivers/stm32wlxx/src/stm32wlxx_hal_dma.c **** 
 335:external/drivers/stm32wlxx/src/stm32wlxx_hal_dma.c ****   return HAL_OK;
 336:external/drivers/stm32wlxx/src/stm32wlxx_hal_dma.c **** }
 337:external/drivers/stm32wlxx/src/stm32wlxx_hal_dma.c **** 
 338:external/drivers/stm32wlxx/src/stm32wlxx_hal_dma.c **** /**
 339:external/drivers/stm32wlxx/src/stm32wlxx_hal_dma.c ****   * @}
 340:external/drivers/stm32wlxx/src/stm32wlxx_hal_dma.c ****   */
 341:external/drivers/stm32wlxx/src/stm32wlxx_hal_dma.c **** 
 342:external/drivers/stm32wlxx/src/stm32wlxx_hal_dma.c **** /** @defgroup DMA_Exported_Functions_Group2 Input and Output operation functions
 343:external/drivers/stm32wlxx/src/stm32wlxx_hal_dma.c ****   *  @brief   Input and Output operation functions
 344:external/drivers/stm32wlxx/src/stm32wlxx_hal_dma.c ****   *
 345:external/drivers/stm32wlxx/src/stm32wlxx_hal_dma.c **** @verbatim
 346:external/drivers/stm32wlxx/src/stm32wlxx_hal_dma.c ****  ===============================================================================
 347:external/drivers/stm32wlxx/src/stm32wlxx_hal_dma.c ****                       #####  IO operation functions  #####
 348:external/drivers/stm32wlxx/src/stm32wlxx_hal_dma.c ****  ===============================================================================
 349:external/drivers/stm32wlxx/src/stm32wlxx_hal_dma.c ****     [..]  This section provides functions allowing to:
 350:external/drivers/stm32wlxx/src/stm32wlxx_hal_dma.c ****       (+) Configure the source, destination address and data length and Start DMA transfer
 351:external/drivers/stm32wlxx/src/stm32wlxx_hal_dma.c ****       (+) Configure the source, destination address and data length and
 352:external/drivers/stm32wlxx/src/stm32wlxx_hal_dma.c ****           Start DMA transfer with interrupt
 353:external/drivers/stm32wlxx/src/stm32wlxx_hal_dma.c ****       (+) Abort DMA transfer
 354:external/drivers/stm32wlxx/src/stm32wlxx_hal_dma.c ****       (+) Poll for transfer complete
 355:external/drivers/stm32wlxx/src/stm32wlxx_hal_dma.c ****       (+) Handle DMA interrupt request
 356:external/drivers/stm32wlxx/src/stm32wlxx_hal_dma.c ****       (+) Register and Unregister DMA callbacks
 357:external/drivers/stm32wlxx/src/stm32wlxx_hal_dma.c **** 
 358:external/drivers/stm32wlxx/src/stm32wlxx_hal_dma.c **** @endverbatim
 359:external/drivers/stm32wlxx/src/stm32wlxx_hal_dma.c ****   * @{
 360:external/drivers/stm32wlxx/src/stm32wlxx_hal_dma.c ****   */
 361:external/drivers/stm32wlxx/src/stm32wlxx_hal_dma.c **** 
 362:external/drivers/stm32wlxx/src/stm32wlxx_hal_dma.c **** /**
 363:external/drivers/stm32wlxx/src/stm32wlxx_hal_dma.c ****   * @brief Start the DMA Transfer.
 364:external/drivers/stm32wlxx/src/stm32wlxx_hal_dma.c ****   * @param hdma Pointer to a DMA_HandleTypeDef structure that contains
 365:external/drivers/stm32wlxx/src/stm32wlxx_hal_dma.c ****   *             the configuration information for the specified DMA Channel.
 366:external/drivers/stm32wlxx/src/stm32wlxx_hal_dma.c ****   * @param SrcAddress The source memory Buffer address
 367:external/drivers/stm32wlxx/src/stm32wlxx_hal_dma.c ****   * @param DstAddress The destination memory Buffer address
 368:external/drivers/stm32wlxx/src/stm32wlxx_hal_dma.c ****   * @param DataLength The length of data to be transferred from source to destination
 369:external/drivers/stm32wlxx/src/stm32wlxx_hal_dma.c ****   * @retval HAL status
 370:external/drivers/stm32wlxx/src/stm32wlxx_hal_dma.c ****   */
 371:external/drivers/stm32wlxx/src/stm32wlxx_hal_dma.c **** HAL_StatusTypeDef HAL_DMA_Start(DMA_HandleTypeDef *hdma, uint32_t SrcAddress, uint32_t DstAddress, 
 372:external/drivers/stm32wlxx/src/stm32wlxx_hal_dma.c **** {
 373:external/drivers/stm32wlxx/src/stm32wlxx_hal_dma.c ****   HAL_StatusTypeDef status = HAL_OK;
 374:external/drivers/stm32wlxx/src/stm32wlxx_hal_dma.c **** 
ARM GAS  /tmp/ccmjCdRm.s 			page 8


 375:external/drivers/stm32wlxx/src/stm32wlxx_hal_dma.c ****   /* Check the parameters */
 376:external/drivers/stm32wlxx/src/stm32wlxx_hal_dma.c ****   assert_param(IS_DMA_BUFFER_SIZE(DataLength));
 377:external/drivers/stm32wlxx/src/stm32wlxx_hal_dma.c **** 
 378:external/drivers/stm32wlxx/src/stm32wlxx_hal_dma.c ****   /* Process locked */
 379:external/drivers/stm32wlxx/src/stm32wlxx_hal_dma.c ****   __HAL_LOCK(hdma);
 380:external/drivers/stm32wlxx/src/stm32wlxx_hal_dma.c **** 
 381:external/drivers/stm32wlxx/src/stm32wlxx_hal_dma.c ****   if (hdma->State == HAL_DMA_STATE_READY)
 382:external/drivers/stm32wlxx/src/stm32wlxx_hal_dma.c ****   {
 383:external/drivers/stm32wlxx/src/stm32wlxx_hal_dma.c ****     /* Change DMA peripheral state */
 384:external/drivers/stm32wlxx/src/stm32wlxx_hal_dma.c ****     hdma->State = HAL_DMA_STATE_BUSY;
 385:external/drivers/stm32wlxx/src/stm32wlxx_hal_dma.c **** 
 386:external/drivers/stm32wlxx/src/stm32wlxx_hal_dma.c ****     /* Initialize the error code */
 387:external/drivers/stm32wlxx/src/stm32wlxx_hal_dma.c ****     hdma->ErrorCode = HAL_DMA_ERROR_NONE;
 388:external/drivers/stm32wlxx/src/stm32wlxx_hal_dma.c **** 
 389:external/drivers/stm32wlxx/src/stm32wlxx_hal_dma.c ****     /* Disable the peripheral */
 390:external/drivers/stm32wlxx/src/stm32wlxx_hal_dma.c ****     __HAL_DMA_DISABLE(hdma);
 391:external/drivers/stm32wlxx/src/stm32wlxx_hal_dma.c **** 
 392:external/drivers/stm32wlxx/src/stm32wlxx_hal_dma.c ****     /* Configure the source, destination address and the data length & clear flags*/
 393:external/drivers/stm32wlxx/src/stm32wlxx_hal_dma.c ****     DMA_SetConfig(hdma, SrcAddress, DstAddress, DataLength);
 394:external/drivers/stm32wlxx/src/stm32wlxx_hal_dma.c **** 
 395:external/drivers/stm32wlxx/src/stm32wlxx_hal_dma.c ****     /* Enable the Peripheral */
 396:external/drivers/stm32wlxx/src/stm32wlxx_hal_dma.c ****     __HAL_DMA_ENABLE(hdma);
 397:external/drivers/stm32wlxx/src/stm32wlxx_hal_dma.c ****   }
 398:external/drivers/stm32wlxx/src/stm32wlxx_hal_dma.c ****   else
 399:external/drivers/stm32wlxx/src/stm32wlxx_hal_dma.c ****   {
 400:external/drivers/stm32wlxx/src/stm32wlxx_hal_dma.c ****     /* Change the error code */
 401:external/drivers/stm32wlxx/src/stm32wlxx_hal_dma.c ****     hdma->ErrorCode = HAL_DMA_ERROR_BUSY;
 402:external/drivers/stm32wlxx/src/stm32wlxx_hal_dma.c **** 
 403:external/drivers/stm32wlxx/src/stm32wlxx_hal_dma.c ****     /* Process Unlocked */
 404:external/drivers/stm32wlxx/src/stm32wlxx_hal_dma.c ****     __HAL_UNLOCK(hdma);
 405:external/drivers/stm32wlxx/src/stm32wlxx_hal_dma.c **** 
 406:external/drivers/stm32wlxx/src/stm32wlxx_hal_dma.c ****     /* Return error status */
 407:external/drivers/stm32wlxx/src/stm32wlxx_hal_dma.c ****     status = HAL_ERROR;
 408:external/drivers/stm32wlxx/src/stm32wlxx_hal_dma.c ****   }
 409:external/drivers/stm32wlxx/src/stm32wlxx_hal_dma.c **** 
 410:external/drivers/stm32wlxx/src/stm32wlxx_hal_dma.c ****   return status;
 411:external/drivers/stm32wlxx/src/stm32wlxx_hal_dma.c **** }
 412:external/drivers/stm32wlxx/src/stm32wlxx_hal_dma.c **** 
 413:external/drivers/stm32wlxx/src/stm32wlxx_hal_dma.c **** /**
 414:external/drivers/stm32wlxx/src/stm32wlxx_hal_dma.c ****   * @brief Start the DMA Transfer with interrupt enabled.
 415:external/drivers/stm32wlxx/src/stm32wlxx_hal_dma.c ****   * @param hdma Pointer to a DMA_HandleTypeDef structure that contains
 416:external/drivers/stm32wlxx/src/stm32wlxx_hal_dma.c ****   *             the configuration information for the specified DMA Channel.
 417:external/drivers/stm32wlxx/src/stm32wlxx_hal_dma.c ****   * @param SrcAddress The source memory Buffer address
 418:external/drivers/stm32wlxx/src/stm32wlxx_hal_dma.c ****   * @param DstAddress The destination memory Buffer address
 419:external/drivers/stm32wlxx/src/stm32wlxx_hal_dma.c ****   * @param DataLength The length of data to be transferred from source to destination
 420:external/drivers/stm32wlxx/src/stm32wlxx_hal_dma.c ****   * @retval HAL status
 421:external/drivers/stm32wlxx/src/stm32wlxx_hal_dma.c ****   */
 422:external/drivers/stm32wlxx/src/stm32wlxx_hal_dma.c **** HAL_StatusTypeDef HAL_DMA_Start_IT(DMA_HandleTypeDef *hdma, uint32_t SrcAddress, uint32_t DstAddres
 423:external/drivers/stm32wlxx/src/stm32wlxx_hal_dma.c ****                                    uint32_t DataLength)
 424:external/drivers/stm32wlxx/src/stm32wlxx_hal_dma.c **** {
 425:external/drivers/stm32wlxx/src/stm32wlxx_hal_dma.c ****   HAL_StatusTypeDef status = HAL_OK;
 426:external/drivers/stm32wlxx/src/stm32wlxx_hal_dma.c **** 
 427:external/drivers/stm32wlxx/src/stm32wlxx_hal_dma.c ****   /* Check the parameters */
 428:external/drivers/stm32wlxx/src/stm32wlxx_hal_dma.c ****   assert_param(IS_DMA_BUFFER_SIZE(DataLength));
 429:external/drivers/stm32wlxx/src/stm32wlxx_hal_dma.c **** 
 430:external/drivers/stm32wlxx/src/stm32wlxx_hal_dma.c ****   /* Process locked */
 431:external/drivers/stm32wlxx/src/stm32wlxx_hal_dma.c ****   __HAL_LOCK(hdma);
ARM GAS  /tmp/ccmjCdRm.s 			page 9


 432:external/drivers/stm32wlxx/src/stm32wlxx_hal_dma.c **** 
 433:external/drivers/stm32wlxx/src/stm32wlxx_hal_dma.c ****   if (hdma->State == HAL_DMA_STATE_READY)
 434:external/drivers/stm32wlxx/src/stm32wlxx_hal_dma.c ****   {
 435:external/drivers/stm32wlxx/src/stm32wlxx_hal_dma.c ****     /* Change DMA peripheral state */
 436:external/drivers/stm32wlxx/src/stm32wlxx_hal_dma.c ****     hdma->State = HAL_DMA_STATE_BUSY;
 437:external/drivers/stm32wlxx/src/stm32wlxx_hal_dma.c ****     hdma->ErrorCode = HAL_DMA_ERROR_NONE;
 438:external/drivers/stm32wlxx/src/stm32wlxx_hal_dma.c **** 
 439:external/drivers/stm32wlxx/src/stm32wlxx_hal_dma.c ****     /* Disable the peripheral */
 440:external/drivers/stm32wlxx/src/stm32wlxx_hal_dma.c ****     __HAL_DMA_DISABLE(hdma);
 441:external/drivers/stm32wlxx/src/stm32wlxx_hal_dma.c **** 
 442:external/drivers/stm32wlxx/src/stm32wlxx_hal_dma.c ****     /* Configure the source, destination address and the data length & clear flags*/
 443:external/drivers/stm32wlxx/src/stm32wlxx_hal_dma.c ****     DMA_SetConfig(hdma, SrcAddress, DstAddress, DataLength);
 444:external/drivers/stm32wlxx/src/stm32wlxx_hal_dma.c **** 
 445:external/drivers/stm32wlxx/src/stm32wlxx_hal_dma.c ****     /* Enable the transfer complete interrupt */
 446:external/drivers/stm32wlxx/src/stm32wlxx_hal_dma.c ****     /* Enable the transfer Error interrupt */
 447:external/drivers/stm32wlxx/src/stm32wlxx_hal_dma.c ****     if (NULL != hdma->XferHalfCpltCallback)
 448:external/drivers/stm32wlxx/src/stm32wlxx_hal_dma.c ****     {
 449:external/drivers/stm32wlxx/src/stm32wlxx_hal_dma.c ****       /* Enable the Half transfer complete interrupt as well */
 450:external/drivers/stm32wlxx/src/stm32wlxx_hal_dma.c ****       __HAL_DMA_ENABLE_IT(hdma, (DMA_IT_TC | DMA_IT_HT | DMA_IT_TE));
 451:external/drivers/stm32wlxx/src/stm32wlxx_hal_dma.c ****     }
 452:external/drivers/stm32wlxx/src/stm32wlxx_hal_dma.c ****     else
 453:external/drivers/stm32wlxx/src/stm32wlxx_hal_dma.c ****     {
 454:external/drivers/stm32wlxx/src/stm32wlxx_hal_dma.c ****       __HAL_DMA_DISABLE_IT(hdma, DMA_IT_HT);
 455:external/drivers/stm32wlxx/src/stm32wlxx_hal_dma.c ****       __HAL_DMA_ENABLE_IT(hdma, (DMA_IT_TC | DMA_IT_TE));
 456:external/drivers/stm32wlxx/src/stm32wlxx_hal_dma.c ****     }
 457:external/drivers/stm32wlxx/src/stm32wlxx_hal_dma.c **** 
 458:external/drivers/stm32wlxx/src/stm32wlxx_hal_dma.c ****     /* Check if DMAMUX Synchronization is enabled*/
 459:external/drivers/stm32wlxx/src/stm32wlxx_hal_dma.c ****     if ((hdma->DMAmuxChannel->CCR & DMAMUX_CxCR_SE) != 0U)
 460:external/drivers/stm32wlxx/src/stm32wlxx_hal_dma.c ****     {
 461:external/drivers/stm32wlxx/src/stm32wlxx_hal_dma.c ****       /* Enable DMAMUX sync overrun IT*/
 462:external/drivers/stm32wlxx/src/stm32wlxx_hal_dma.c ****       hdma->DMAmuxChannel->CCR |= DMAMUX_CxCR_SOIE;
 463:external/drivers/stm32wlxx/src/stm32wlxx_hal_dma.c ****     }
 464:external/drivers/stm32wlxx/src/stm32wlxx_hal_dma.c **** 
 465:external/drivers/stm32wlxx/src/stm32wlxx_hal_dma.c ****     if (hdma->DMAmuxRequestGen != NULL)
 466:external/drivers/stm32wlxx/src/stm32wlxx_hal_dma.c ****     {
 467:external/drivers/stm32wlxx/src/stm32wlxx_hal_dma.c ****       /* if using DMAMUX request generator, enable the DMAMUX request generator overrun IT*/
 468:external/drivers/stm32wlxx/src/stm32wlxx_hal_dma.c ****       /* enable the request gen overrun IT*/
 469:external/drivers/stm32wlxx/src/stm32wlxx_hal_dma.c ****       hdma->DMAmuxRequestGen->RGCR |= DMAMUX_RGxCR_OIE;
 470:external/drivers/stm32wlxx/src/stm32wlxx_hal_dma.c ****     }
 471:external/drivers/stm32wlxx/src/stm32wlxx_hal_dma.c **** 
 472:external/drivers/stm32wlxx/src/stm32wlxx_hal_dma.c ****     /* Enable the Peripheral */
 473:external/drivers/stm32wlxx/src/stm32wlxx_hal_dma.c ****     __HAL_DMA_ENABLE(hdma);
 474:external/drivers/stm32wlxx/src/stm32wlxx_hal_dma.c ****   }
 475:external/drivers/stm32wlxx/src/stm32wlxx_hal_dma.c ****   else
 476:external/drivers/stm32wlxx/src/stm32wlxx_hal_dma.c ****   {
 477:external/drivers/stm32wlxx/src/stm32wlxx_hal_dma.c ****     /* Change the error code */
 478:external/drivers/stm32wlxx/src/stm32wlxx_hal_dma.c ****     hdma->ErrorCode = HAL_DMA_ERROR_BUSY;
 479:external/drivers/stm32wlxx/src/stm32wlxx_hal_dma.c **** 
 480:external/drivers/stm32wlxx/src/stm32wlxx_hal_dma.c ****     /* Process Unlocked */
 481:external/drivers/stm32wlxx/src/stm32wlxx_hal_dma.c ****     __HAL_UNLOCK(hdma);
 482:external/drivers/stm32wlxx/src/stm32wlxx_hal_dma.c **** 
 483:external/drivers/stm32wlxx/src/stm32wlxx_hal_dma.c ****     /* Return error status */
 484:external/drivers/stm32wlxx/src/stm32wlxx_hal_dma.c ****     status = HAL_ERROR;
 485:external/drivers/stm32wlxx/src/stm32wlxx_hal_dma.c ****   }
 486:external/drivers/stm32wlxx/src/stm32wlxx_hal_dma.c **** 
 487:external/drivers/stm32wlxx/src/stm32wlxx_hal_dma.c ****   return status;
 488:external/drivers/stm32wlxx/src/stm32wlxx_hal_dma.c **** }
ARM GAS  /tmp/ccmjCdRm.s 			page 10


 489:external/drivers/stm32wlxx/src/stm32wlxx_hal_dma.c **** 
 490:external/drivers/stm32wlxx/src/stm32wlxx_hal_dma.c **** /**
 491:external/drivers/stm32wlxx/src/stm32wlxx_hal_dma.c ****   * @brief Abort the DMA Transfer.
 492:external/drivers/stm32wlxx/src/stm32wlxx_hal_dma.c ****   * @param hdma Pointer to a DMA_HandleTypeDef structure that contains
 493:external/drivers/stm32wlxx/src/stm32wlxx_hal_dma.c ****   *             the configuration information for the specified DMA Channel.
 494:external/drivers/stm32wlxx/src/stm32wlxx_hal_dma.c ****   * @retval HAL status
 495:external/drivers/stm32wlxx/src/stm32wlxx_hal_dma.c ****   */
 496:external/drivers/stm32wlxx/src/stm32wlxx_hal_dma.c **** HAL_StatusTypeDef HAL_DMA_Abort(DMA_HandleTypeDef *hdma)
 497:external/drivers/stm32wlxx/src/stm32wlxx_hal_dma.c **** {
 498:external/drivers/stm32wlxx/src/stm32wlxx_hal_dma.c ****   /* Check the DMA peripheral handle */
 499:external/drivers/stm32wlxx/src/stm32wlxx_hal_dma.c ****   if (NULL == hdma)
 500:external/drivers/stm32wlxx/src/stm32wlxx_hal_dma.c ****   {
 501:external/drivers/stm32wlxx/src/stm32wlxx_hal_dma.c ****     return HAL_ERROR;
 502:external/drivers/stm32wlxx/src/stm32wlxx_hal_dma.c ****   }
 503:external/drivers/stm32wlxx/src/stm32wlxx_hal_dma.c **** 
 504:external/drivers/stm32wlxx/src/stm32wlxx_hal_dma.c ****   /* Check the DMA peripheral state */
 505:external/drivers/stm32wlxx/src/stm32wlxx_hal_dma.c ****   if (hdma->State != HAL_DMA_STATE_BUSY)
 506:external/drivers/stm32wlxx/src/stm32wlxx_hal_dma.c ****   {
 507:external/drivers/stm32wlxx/src/stm32wlxx_hal_dma.c ****     hdma->ErrorCode = HAL_DMA_ERROR_NO_XFER;
 508:external/drivers/stm32wlxx/src/stm32wlxx_hal_dma.c **** 
 509:external/drivers/stm32wlxx/src/stm32wlxx_hal_dma.c ****     /* Process Unlocked */
 510:external/drivers/stm32wlxx/src/stm32wlxx_hal_dma.c ****     __HAL_UNLOCK(hdma);
 511:external/drivers/stm32wlxx/src/stm32wlxx_hal_dma.c **** 
 512:external/drivers/stm32wlxx/src/stm32wlxx_hal_dma.c ****     return HAL_ERROR;
 513:external/drivers/stm32wlxx/src/stm32wlxx_hal_dma.c ****   }
 514:external/drivers/stm32wlxx/src/stm32wlxx_hal_dma.c ****   else
 515:external/drivers/stm32wlxx/src/stm32wlxx_hal_dma.c ****   {
 516:external/drivers/stm32wlxx/src/stm32wlxx_hal_dma.c ****     /* Disable the channel */
 517:external/drivers/stm32wlxx/src/stm32wlxx_hal_dma.c ****     __HAL_DMA_DISABLE(hdma);
 518:external/drivers/stm32wlxx/src/stm32wlxx_hal_dma.c **** 
 519:external/drivers/stm32wlxx/src/stm32wlxx_hal_dma.c ****     /* Disable DMA IT */
 520:external/drivers/stm32wlxx/src/stm32wlxx_hal_dma.c ****     __HAL_DMA_DISABLE_IT(hdma, (DMA_IT_TC | DMA_IT_HT | DMA_IT_TE));
 521:external/drivers/stm32wlxx/src/stm32wlxx_hal_dma.c **** 
 522:external/drivers/stm32wlxx/src/stm32wlxx_hal_dma.c ****     /* disable the DMAMUX sync overrun IT*/
 523:external/drivers/stm32wlxx/src/stm32wlxx_hal_dma.c ****     hdma->DMAmuxChannel->CCR &= ~DMAMUX_CxCR_SOIE;
 524:external/drivers/stm32wlxx/src/stm32wlxx_hal_dma.c **** 
 525:external/drivers/stm32wlxx/src/stm32wlxx_hal_dma.c ****     /* Clear all flags */
 526:external/drivers/stm32wlxx/src/stm32wlxx_hal_dma.c ****     hdma->DmaBaseAddress->IFCR = (DMA_ISR_GIF1 << (hdma->ChannelIndex & 0x1CU));
 527:external/drivers/stm32wlxx/src/stm32wlxx_hal_dma.c **** 
 528:external/drivers/stm32wlxx/src/stm32wlxx_hal_dma.c ****     /* Clear the DMAMUX synchro overrun flag */
 529:external/drivers/stm32wlxx/src/stm32wlxx_hal_dma.c ****     hdma->DMAmuxChannelStatus->CFR = hdma->DMAmuxChannelStatusMask;
 530:external/drivers/stm32wlxx/src/stm32wlxx_hal_dma.c **** 
 531:external/drivers/stm32wlxx/src/stm32wlxx_hal_dma.c ****     if (hdma->DMAmuxRequestGen != NULL)
 532:external/drivers/stm32wlxx/src/stm32wlxx_hal_dma.c ****     {
 533:external/drivers/stm32wlxx/src/stm32wlxx_hal_dma.c ****       /* if using DMAMUX request generator, disable the DMAMUX request generator overrun IT*/
 534:external/drivers/stm32wlxx/src/stm32wlxx_hal_dma.c ****       /* disable the request gen overrun IT*/
 535:external/drivers/stm32wlxx/src/stm32wlxx_hal_dma.c ****       hdma->DMAmuxRequestGen->RGCR &= ~DMAMUX_RGxCR_OIE;
 536:external/drivers/stm32wlxx/src/stm32wlxx_hal_dma.c **** 
 537:external/drivers/stm32wlxx/src/stm32wlxx_hal_dma.c ****       /* Clear the DMAMUX request generator overrun flag */
 538:external/drivers/stm32wlxx/src/stm32wlxx_hal_dma.c ****       hdma->DMAmuxRequestGenStatus->RGCFR = hdma->DMAmuxRequestGenStatusMask;
 539:external/drivers/stm32wlxx/src/stm32wlxx_hal_dma.c ****     }
 540:external/drivers/stm32wlxx/src/stm32wlxx_hal_dma.c **** 
 541:external/drivers/stm32wlxx/src/stm32wlxx_hal_dma.c ****     /* Change the DMA state */
 542:external/drivers/stm32wlxx/src/stm32wlxx_hal_dma.c ****     hdma->State = HAL_DMA_STATE_READY;
 543:external/drivers/stm32wlxx/src/stm32wlxx_hal_dma.c **** 
 544:external/drivers/stm32wlxx/src/stm32wlxx_hal_dma.c ****     /* Process Unlocked */
 545:external/drivers/stm32wlxx/src/stm32wlxx_hal_dma.c ****     __HAL_UNLOCK(hdma);
ARM GAS  /tmp/ccmjCdRm.s 			page 11


 546:external/drivers/stm32wlxx/src/stm32wlxx_hal_dma.c ****   }
 547:external/drivers/stm32wlxx/src/stm32wlxx_hal_dma.c **** 
 548:external/drivers/stm32wlxx/src/stm32wlxx_hal_dma.c ****   return HAL_OK;
 549:external/drivers/stm32wlxx/src/stm32wlxx_hal_dma.c **** }
 550:external/drivers/stm32wlxx/src/stm32wlxx_hal_dma.c **** 
 551:external/drivers/stm32wlxx/src/stm32wlxx_hal_dma.c **** /**
 552:external/drivers/stm32wlxx/src/stm32wlxx_hal_dma.c ****   * @brief Aborts the DMA Transfer in Interrupt mode.
 553:external/drivers/stm32wlxx/src/stm32wlxx_hal_dma.c ****   * @param hdma Pointer to a DMA_HandleTypeDef structure that contains
 554:external/drivers/stm32wlxx/src/stm32wlxx_hal_dma.c ****   *             the configuration information for the specified DMA Channel.
 555:external/drivers/stm32wlxx/src/stm32wlxx_hal_dma.c ****   * @retval HAL status
 556:external/drivers/stm32wlxx/src/stm32wlxx_hal_dma.c ****   */
 557:external/drivers/stm32wlxx/src/stm32wlxx_hal_dma.c **** HAL_StatusTypeDef HAL_DMA_Abort_IT(DMA_HandleTypeDef *hdma)
 558:external/drivers/stm32wlxx/src/stm32wlxx_hal_dma.c **** {
 559:external/drivers/stm32wlxx/src/stm32wlxx_hal_dma.c ****   HAL_StatusTypeDef status = HAL_OK;
 560:external/drivers/stm32wlxx/src/stm32wlxx_hal_dma.c **** 
 561:external/drivers/stm32wlxx/src/stm32wlxx_hal_dma.c ****   if (hdma->State != HAL_DMA_STATE_BUSY)
 562:external/drivers/stm32wlxx/src/stm32wlxx_hal_dma.c ****   {
 563:external/drivers/stm32wlxx/src/stm32wlxx_hal_dma.c ****     /* no transfer ongoing */
 564:external/drivers/stm32wlxx/src/stm32wlxx_hal_dma.c ****     hdma->ErrorCode = HAL_DMA_ERROR_NO_XFER;
 565:external/drivers/stm32wlxx/src/stm32wlxx_hal_dma.c **** 
 566:external/drivers/stm32wlxx/src/stm32wlxx_hal_dma.c ****     status = HAL_ERROR;
 567:external/drivers/stm32wlxx/src/stm32wlxx_hal_dma.c ****   }
 568:external/drivers/stm32wlxx/src/stm32wlxx_hal_dma.c ****   else
 569:external/drivers/stm32wlxx/src/stm32wlxx_hal_dma.c ****   {
 570:external/drivers/stm32wlxx/src/stm32wlxx_hal_dma.c ****     /* Disable the channel */
 571:external/drivers/stm32wlxx/src/stm32wlxx_hal_dma.c ****     __HAL_DMA_DISABLE(hdma);
 572:external/drivers/stm32wlxx/src/stm32wlxx_hal_dma.c **** 
 573:external/drivers/stm32wlxx/src/stm32wlxx_hal_dma.c ****     /* Disable DMA IT */
 574:external/drivers/stm32wlxx/src/stm32wlxx_hal_dma.c ****     __HAL_DMA_DISABLE_IT(hdma, (DMA_IT_TC | DMA_IT_HT | DMA_IT_TE));
 575:external/drivers/stm32wlxx/src/stm32wlxx_hal_dma.c **** 
 576:external/drivers/stm32wlxx/src/stm32wlxx_hal_dma.c ****     /* disable the DMAMUX sync overrun IT*/
 577:external/drivers/stm32wlxx/src/stm32wlxx_hal_dma.c ****     hdma->DMAmuxChannel->CCR &= ~DMAMUX_CxCR_SOIE;
 578:external/drivers/stm32wlxx/src/stm32wlxx_hal_dma.c **** 
 579:external/drivers/stm32wlxx/src/stm32wlxx_hal_dma.c ****     /* Clear all flags */
 580:external/drivers/stm32wlxx/src/stm32wlxx_hal_dma.c ****     hdma->DmaBaseAddress->IFCR = (DMA_ISR_GIF1 << (hdma->ChannelIndex & 0x1CU));
 581:external/drivers/stm32wlxx/src/stm32wlxx_hal_dma.c **** 
 582:external/drivers/stm32wlxx/src/stm32wlxx_hal_dma.c ****     /* Clear the DMAMUX synchro overrun flag */
 583:external/drivers/stm32wlxx/src/stm32wlxx_hal_dma.c ****     hdma->DMAmuxChannelStatus->CFR = hdma->DMAmuxChannelStatusMask;
 584:external/drivers/stm32wlxx/src/stm32wlxx_hal_dma.c **** 
 585:external/drivers/stm32wlxx/src/stm32wlxx_hal_dma.c ****     if (hdma->DMAmuxRequestGen != NULL)
 586:external/drivers/stm32wlxx/src/stm32wlxx_hal_dma.c ****     {
 587:external/drivers/stm32wlxx/src/stm32wlxx_hal_dma.c ****       /* if using DMAMUX request generator, disable the DMAMUX request generator overrun IT*/
 588:external/drivers/stm32wlxx/src/stm32wlxx_hal_dma.c ****       /* disable the request gen overrun IT*/
 589:external/drivers/stm32wlxx/src/stm32wlxx_hal_dma.c ****       hdma->DMAmuxRequestGen->RGCR &= ~DMAMUX_RGxCR_OIE;
 590:external/drivers/stm32wlxx/src/stm32wlxx_hal_dma.c **** 
 591:external/drivers/stm32wlxx/src/stm32wlxx_hal_dma.c ****       /* Clear the DMAMUX request generator overrun flag */
 592:external/drivers/stm32wlxx/src/stm32wlxx_hal_dma.c ****       hdma->DMAmuxRequestGenStatus->RGCFR = hdma->DMAmuxRequestGenStatusMask;
 593:external/drivers/stm32wlxx/src/stm32wlxx_hal_dma.c ****     }
 594:external/drivers/stm32wlxx/src/stm32wlxx_hal_dma.c **** 
 595:external/drivers/stm32wlxx/src/stm32wlxx_hal_dma.c ****     /* Change the DMA state */
 596:external/drivers/stm32wlxx/src/stm32wlxx_hal_dma.c ****     hdma->State = HAL_DMA_STATE_READY;
 597:external/drivers/stm32wlxx/src/stm32wlxx_hal_dma.c **** 
 598:external/drivers/stm32wlxx/src/stm32wlxx_hal_dma.c ****     /* Process Unlocked */
 599:external/drivers/stm32wlxx/src/stm32wlxx_hal_dma.c ****     __HAL_UNLOCK(hdma);
 600:external/drivers/stm32wlxx/src/stm32wlxx_hal_dma.c **** 
 601:external/drivers/stm32wlxx/src/stm32wlxx_hal_dma.c ****     /* Call User Abort callback */
 602:external/drivers/stm32wlxx/src/stm32wlxx_hal_dma.c ****     if (hdma->XferAbortCallback != NULL)
ARM GAS  /tmp/ccmjCdRm.s 			page 12


 603:external/drivers/stm32wlxx/src/stm32wlxx_hal_dma.c ****     {
 604:external/drivers/stm32wlxx/src/stm32wlxx_hal_dma.c ****       hdma->XferAbortCallback(hdma);
 605:external/drivers/stm32wlxx/src/stm32wlxx_hal_dma.c ****     }
 606:external/drivers/stm32wlxx/src/stm32wlxx_hal_dma.c ****   }
 607:external/drivers/stm32wlxx/src/stm32wlxx_hal_dma.c ****   return status;
 608:external/drivers/stm32wlxx/src/stm32wlxx_hal_dma.c **** }
 609:external/drivers/stm32wlxx/src/stm32wlxx_hal_dma.c **** 
 610:external/drivers/stm32wlxx/src/stm32wlxx_hal_dma.c **** /**
 611:external/drivers/stm32wlxx/src/stm32wlxx_hal_dma.c ****   * @brief Polling for transfer complete.
 612:external/drivers/stm32wlxx/src/stm32wlxx_hal_dma.c ****   * @param hdma Pointer to a DMA_HandleTypeDef structure that contains
 613:external/drivers/stm32wlxx/src/stm32wlxx_hal_dma.c ****   *             the configuration information for the specified DMA Channel.
 614:external/drivers/stm32wlxx/src/stm32wlxx_hal_dma.c ****   * @param CompleteLevel Specifies the DMA level complete.
 615:external/drivers/stm32wlxx/src/stm32wlxx_hal_dma.c ****   * @param Timeout Timeout duration.
 616:external/drivers/stm32wlxx/src/stm32wlxx_hal_dma.c ****   * @retval HAL status
 617:external/drivers/stm32wlxx/src/stm32wlxx_hal_dma.c ****   */
 618:external/drivers/stm32wlxx/src/stm32wlxx_hal_dma.c **** HAL_StatusTypeDef HAL_DMA_PollForTransfer(DMA_HandleTypeDef *hdma, HAL_DMA_LevelCompleteTypeDef Com
 619:external/drivers/stm32wlxx/src/stm32wlxx_hal_dma.c ****                                           uint32_t Timeout)
 620:external/drivers/stm32wlxx/src/stm32wlxx_hal_dma.c **** {
 621:external/drivers/stm32wlxx/src/stm32wlxx_hal_dma.c ****   uint32_t temp;
 622:external/drivers/stm32wlxx/src/stm32wlxx_hal_dma.c ****   uint32_t tickstart;
 623:external/drivers/stm32wlxx/src/stm32wlxx_hal_dma.c **** 
 624:external/drivers/stm32wlxx/src/stm32wlxx_hal_dma.c ****   if (hdma->State != HAL_DMA_STATE_BUSY)
 625:external/drivers/stm32wlxx/src/stm32wlxx_hal_dma.c ****   {
 626:external/drivers/stm32wlxx/src/stm32wlxx_hal_dma.c ****     /* no transfer ongoing */
 627:external/drivers/stm32wlxx/src/stm32wlxx_hal_dma.c ****     hdma->ErrorCode = HAL_DMA_ERROR_NO_XFER;
 628:external/drivers/stm32wlxx/src/stm32wlxx_hal_dma.c ****     __HAL_UNLOCK(hdma);
 629:external/drivers/stm32wlxx/src/stm32wlxx_hal_dma.c ****     return HAL_ERROR;
 630:external/drivers/stm32wlxx/src/stm32wlxx_hal_dma.c ****   }
 631:external/drivers/stm32wlxx/src/stm32wlxx_hal_dma.c **** 
 632:external/drivers/stm32wlxx/src/stm32wlxx_hal_dma.c ****   /* Polling mode not supported in circular mode */
 633:external/drivers/stm32wlxx/src/stm32wlxx_hal_dma.c ****   if ((hdma->Instance->CCR & DMA_CCR_CIRC) != 0U)
 634:external/drivers/stm32wlxx/src/stm32wlxx_hal_dma.c ****   {
 635:external/drivers/stm32wlxx/src/stm32wlxx_hal_dma.c ****     hdma->ErrorCode = HAL_DMA_ERROR_NOT_SUPPORTED;
 636:external/drivers/stm32wlxx/src/stm32wlxx_hal_dma.c ****     return HAL_ERROR;
 637:external/drivers/stm32wlxx/src/stm32wlxx_hal_dma.c ****   }
 638:external/drivers/stm32wlxx/src/stm32wlxx_hal_dma.c **** 
 639:external/drivers/stm32wlxx/src/stm32wlxx_hal_dma.c ****   /* Get the level transfer complete flag */
 640:external/drivers/stm32wlxx/src/stm32wlxx_hal_dma.c ****   if (HAL_DMA_FULL_TRANSFER == CompleteLevel)
 641:external/drivers/stm32wlxx/src/stm32wlxx_hal_dma.c ****   {
 642:external/drivers/stm32wlxx/src/stm32wlxx_hal_dma.c ****     /* Transfer Complete flag */
 643:external/drivers/stm32wlxx/src/stm32wlxx_hal_dma.c ****     temp = DMA_FLAG_TC1 << (hdma->ChannelIndex & 0x1CU);
 644:external/drivers/stm32wlxx/src/stm32wlxx_hal_dma.c ****   }
 645:external/drivers/stm32wlxx/src/stm32wlxx_hal_dma.c ****   else
 646:external/drivers/stm32wlxx/src/stm32wlxx_hal_dma.c ****   {
 647:external/drivers/stm32wlxx/src/stm32wlxx_hal_dma.c ****     /* Half Transfer Complete flag */
 648:external/drivers/stm32wlxx/src/stm32wlxx_hal_dma.c ****     temp = DMA_FLAG_HT1 << (hdma->ChannelIndex & 0x1CU);
 649:external/drivers/stm32wlxx/src/stm32wlxx_hal_dma.c ****   }
 650:external/drivers/stm32wlxx/src/stm32wlxx_hal_dma.c **** 
 651:external/drivers/stm32wlxx/src/stm32wlxx_hal_dma.c ****   /* Get tick */
 652:external/drivers/stm32wlxx/src/stm32wlxx_hal_dma.c ****   tickstart = HAL_GetTick();
 653:external/drivers/stm32wlxx/src/stm32wlxx_hal_dma.c **** 
 654:external/drivers/stm32wlxx/src/stm32wlxx_hal_dma.c ****   while ((hdma->DmaBaseAddress->ISR & temp) == 0U)
 655:external/drivers/stm32wlxx/src/stm32wlxx_hal_dma.c ****   {
 656:external/drivers/stm32wlxx/src/stm32wlxx_hal_dma.c ****     if ((hdma->DmaBaseAddress->ISR & (DMA_FLAG_TE1 << (hdma->ChannelIndex & 0x1CU))) != 0U)
 657:external/drivers/stm32wlxx/src/stm32wlxx_hal_dma.c ****     {
 658:external/drivers/stm32wlxx/src/stm32wlxx_hal_dma.c ****       /* When a DMA transfer error occurs */
 659:external/drivers/stm32wlxx/src/stm32wlxx_hal_dma.c ****       /* A hardware clear of its EN bits is performed */
ARM GAS  /tmp/ccmjCdRm.s 			page 13


 660:external/drivers/stm32wlxx/src/stm32wlxx_hal_dma.c ****       /* Clear all flags */
 661:external/drivers/stm32wlxx/src/stm32wlxx_hal_dma.c ****       hdma->DmaBaseAddress->IFCR = (DMA_ISR_GIF1 << (hdma->ChannelIndex & 0x1CU));
 662:external/drivers/stm32wlxx/src/stm32wlxx_hal_dma.c **** 
 663:external/drivers/stm32wlxx/src/stm32wlxx_hal_dma.c ****       /* Update error code */
 664:external/drivers/stm32wlxx/src/stm32wlxx_hal_dma.c ****       hdma->ErrorCode = HAL_DMA_ERROR_TE;
 665:external/drivers/stm32wlxx/src/stm32wlxx_hal_dma.c **** 
 666:external/drivers/stm32wlxx/src/stm32wlxx_hal_dma.c ****       /* Change the DMA state */
 667:external/drivers/stm32wlxx/src/stm32wlxx_hal_dma.c ****       hdma->State = HAL_DMA_STATE_READY;
 668:external/drivers/stm32wlxx/src/stm32wlxx_hal_dma.c **** 
 669:external/drivers/stm32wlxx/src/stm32wlxx_hal_dma.c ****       /* Process Unlocked */
 670:external/drivers/stm32wlxx/src/stm32wlxx_hal_dma.c ****       __HAL_UNLOCK(hdma);
 671:external/drivers/stm32wlxx/src/stm32wlxx_hal_dma.c **** 
 672:external/drivers/stm32wlxx/src/stm32wlxx_hal_dma.c ****       return HAL_ERROR;
 673:external/drivers/stm32wlxx/src/stm32wlxx_hal_dma.c ****     }
 674:external/drivers/stm32wlxx/src/stm32wlxx_hal_dma.c ****     /* Check for the Timeout */
 675:external/drivers/stm32wlxx/src/stm32wlxx_hal_dma.c ****     if (Timeout != HAL_MAX_DELAY)
 676:external/drivers/stm32wlxx/src/stm32wlxx_hal_dma.c ****     {
 677:external/drivers/stm32wlxx/src/stm32wlxx_hal_dma.c ****       if (((HAL_GetTick() - tickstart) > Timeout) || (Timeout == 0U))
 678:external/drivers/stm32wlxx/src/stm32wlxx_hal_dma.c ****       {
 679:external/drivers/stm32wlxx/src/stm32wlxx_hal_dma.c ****         /* Update error code */
 680:external/drivers/stm32wlxx/src/stm32wlxx_hal_dma.c ****         hdma->ErrorCode = HAL_DMA_ERROR_TIMEOUT;
 681:external/drivers/stm32wlxx/src/stm32wlxx_hal_dma.c **** 
 682:external/drivers/stm32wlxx/src/stm32wlxx_hal_dma.c ****         /* Change the DMA state */
 683:external/drivers/stm32wlxx/src/stm32wlxx_hal_dma.c ****         hdma->State = HAL_DMA_STATE_READY;
 684:external/drivers/stm32wlxx/src/stm32wlxx_hal_dma.c **** 
 685:external/drivers/stm32wlxx/src/stm32wlxx_hal_dma.c ****         /* Process Unlocked */
 686:external/drivers/stm32wlxx/src/stm32wlxx_hal_dma.c ****         __HAL_UNLOCK(hdma);
 687:external/drivers/stm32wlxx/src/stm32wlxx_hal_dma.c **** 
 688:external/drivers/stm32wlxx/src/stm32wlxx_hal_dma.c ****         return HAL_ERROR;
 689:external/drivers/stm32wlxx/src/stm32wlxx_hal_dma.c ****       }
 690:external/drivers/stm32wlxx/src/stm32wlxx_hal_dma.c ****     }
 691:external/drivers/stm32wlxx/src/stm32wlxx_hal_dma.c ****   }
 692:external/drivers/stm32wlxx/src/stm32wlxx_hal_dma.c **** 
 693:external/drivers/stm32wlxx/src/stm32wlxx_hal_dma.c ****   /*Check for DMAMUX Request generator (if used) overrun status */
 694:external/drivers/stm32wlxx/src/stm32wlxx_hal_dma.c ****   if (hdma->DMAmuxRequestGen != NULL)
 695:external/drivers/stm32wlxx/src/stm32wlxx_hal_dma.c ****   {
 696:external/drivers/stm32wlxx/src/stm32wlxx_hal_dma.c ****     /* if using DMAMUX request generator Check for DMAMUX request generator overrun */
 697:external/drivers/stm32wlxx/src/stm32wlxx_hal_dma.c ****     if ((hdma->DMAmuxRequestGenStatus->RGSR & hdma->DMAmuxRequestGenStatusMask) != 0U)
 698:external/drivers/stm32wlxx/src/stm32wlxx_hal_dma.c ****     {
 699:external/drivers/stm32wlxx/src/stm32wlxx_hal_dma.c ****       /* Disable the request gen overrun interrupt */
 700:external/drivers/stm32wlxx/src/stm32wlxx_hal_dma.c ****       hdma->DMAmuxRequestGen->RGCR |= DMAMUX_RGxCR_OIE;
 701:external/drivers/stm32wlxx/src/stm32wlxx_hal_dma.c **** 
 702:external/drivers/stm32wlxx/src/stm32wlxx_hal_dma.c ****       /* Clear the DMAMUX request generator overrun flag */
 703:external/drivers/stm32wlxx/src/stm32wlxx_hal_dma.c ****       hdma->DMAmuxRequestGenStatus->RGCFR = hdma->DMAmuxRequestGenStatusMask;
 704:external/drivers/stm32wlxx/src/stm32wlxx_hal_dma.c **** 
 705:external/drivers/stm32wlxx/src/stm32wlxx_hal_dma.c ****       /* Update error code */
 706:external/drivers/stm32wlxx/src/stm32wlxx_hal_dma.c ****       hdma->ErrorCode |= HAL_DMA_ERROR_REQGEN;
 707:external/drivers/stm32wlxx/src/stm32wlxx_hal_dma.c ****     }
 708:external/drivers/stm32wlxx/src/stm32wlxx_hal_dma.c ****   }
 709:external/drivers/stm32wlxx/src/stm32wlxx_hal_dma.c **** 
 710:external/drivers/stm32wlxx/src/stm32wlxx_hal_dma.c ****   /* Check for DMAMUX Synchronization overrun */
 711:external/drivers/stm32wlxx/src/stm32wlxx_hal_dma.c ****   if ((hdma->DMAmuxChannelStatus->CSR & hdma->DMAmuxChannelStatusMask) != 0U)
 712:external/drivers/stm32wlxx/src/stm32wlxx_hal_dma.c ****   {
 713:external/drivers/stm32wlxx/src/stm32wlxx_hal_dma.c ****     /* Clear the DMAMUX synchro overrun flag */
 714:external/drivers/stm32wlxx/src/stm32wlxx_hal_dma.c ****     hdma->DMAmuxChannelStatus->CFR = hdma->DMAmuxChannelStatusMask;
 715:external/drivers/stm32wlxx/src/stm32wlxx_hal_dma.c **** 
 716:external/drivers/stm32wlxx/src/stm32wlxx_hal_dma.c ****     /* Update error code */
ARM GAS  /tmp/ccmjCdRm.s 			page 14


 717:external/drivers/stm32wlxx/src/stm32wlxx_hal_dma.c ****     hdma->ErrorCode |= HAL_DMA_ERROR_SYNC;
 718:external/drivers/stm32wlxx/src/stm32wlxx_hal_dma.c ****   }
 719:external/drivers/stm32wlxx/src/stm32wlxx_hal_dma.c **** 
 720:external/drivers/stm32wlxx/src/stm32wlxx_hal_dma.c ****   if (HAL_DMA_FULL_TRANSFER == CompleteLevel)
 721:external/drivers/stm32wlxx/src/stm32wlxx_hal_dma.c ****   {
 722:external/drivers/stm32wlxx/src/stm32wlxx_hal_dma.c ****     /* Clear the transfer complete flag */
 723:external/drivers/stm32wlxx/src/stm32wlxx_hal_dma.c ****     hdma->DmaBaseAddress->IFCR = (DMA_FLAG_TC1 << (hdma->ChannelIndex & 0x1CU));
 724:external/drivers/stm32wlxx/src/stm32wlxx_hal_dma.c **** 
 725:external/drivers/stm32wlxx/src/stm32wlxx_hal_dma.c ****     /* Process unlocked */
 726:external/drivers/stm32wlxx/src/stm32wlxx_hal_dma.c ****     __HAL_UNLOCK(hdma);
 727:external/drivers/stm32wlxx/src/stm32wlxx_hal_dma.c **** 
 728:external/drivers/stm32wlxx/src/stm32wlxx_hal_dma.c ****     /* The selected Channelx EN bit is cleared (DMA is disabled and
 729:external/drivers/stm32wlxx/src/stm32wlxx_hal_dma.c ****     all transfers are complete) */
 730:external/drivers/stm32wlxx/src/stm32wlxx_hal_dma.c ****     hdma->State = HAL_DMA_STATE_READY;
 731:external/drivers/stm32wlxx/src/stm32wlxx_hal_dma.c ****   }
 732:external/drivers/stm32wlxx/src/stm32wlxx_hal_dma.c ****   else
 733:external/drivers/stm32wlxx/src/stm32wlxx_hal_dma.c ****   {
 734:external/drivers/stm32wlxx/src/stm32wlxx_hal_dma.c ****     /* Clear the half transfer complete flag */
 735:external/drivers/stm32wlxx/src/stm32wlxx_hal_dma.c ****     hdma->DmaBaseAddress->IFCR = (DMA_FLAG_HT1 << (hdma->ChannelIndex & 0x1CU));
 736:external/drivers/stm32wlxx/src/stm32wlxx_hal_dma.c ****   }
 737:external/drivers/stm32wlxx/src/stm32wlxx_hal_dma.c **** 
 738:external/drivers/stm32wlxx/src/stm32wlxx_hal_dma.c ****   return HAL_OK;
 739:external/drivers/stm32wlxx/src/stm32wlxx_hal_dma.c **** }
 740:external/drivers/stm32wlxx/src/stm32wlxx_hal_dma.c **** 
 741:external/drivers/stm32wlxx/src/stm32wlxx_hal_dma.c **** /**
 742:external/drivers/stm32wlxx/src/stm32wlxx_hal_dma.c ****   * @brief Handle DMA interrupt request.
 743:external/drivers/stm32wlxx/src/stm32wlxx_hal_dma.c ****   * @param hdma Pointer to a DMA_HandleTypeDef structure that contains
 744:external/drivers/stm32wlxx/src/stm32wlxx_hal_dma.c ****   *             the configuration information for the specified DMA Channel.
 745:external/drivers/stm32wlxx/src/stm32wlxx_hal_dma.c ****   * @retval None
 746:external/drivers/stm32wlxx/src/stm32wlxx_hal_dma.c ****   */
 747:external/drivers/stm32wlxx/src/stm32wlxx_hal_dma.c **** void HAL_DMA_IRQHandler(DMA_HandleTypeDef *hdma)
 748:external/drivers/stm32wlxx/src/stm32wlxx_hal_dma.c **** {
 749:external/drivers/stm32wlxx/src/stm32wlxx_hal_dma.c ****   uint32_t flag_it = hdma->DmaBaseAddress->ISR;
 750:external/drivers/stm32wlxx/src/stm32wlxx_hal_dma.c ****   uint32_t source_it = hdma->Instance->CCR;
 751:external/drivers/stm32wlxx/src/stm32wlxx_hal_dma.c **** 
 752:external/drivers/stm32wlxx/src/stm32wlxx_hal_dma.c ****   /* Half Transfer Complete Interrupt management ******************************/
 753:external/drivers/stm32wlxx/src/stm32wlxx_hal_dma.c ****   if (((flag_it & (DMA_FLAG_HT1 << (hdma->ChannelIndex & 0x1CU))) != 0U) && ((source_it & DMA_IT_HT
 754:external/drivers/stm32wlxx/src/stm32wlxx_hal_dma.c ****   {
 755:external/drivers/stm32wlxx/src/stm32wlxx_hal_dma.c ****     /* Disable the half transfer interrupt if the DMA mode is not CIRCULAR */
 756:external/drivers/stm32wlxx/src/stm32wlxx_hal_dma.c ****     if ((hdma->Instance->CCR & DMA_CCR_CIRC) == 0U)
 757:external/drivers/stm32wlxx/src/stm32wlxx_hal_dma.c ****     {
 758:external/drivers/stm32wlxx/src/stm32wlxx_hal_dma.c ****       /* Disable the half transfer interrupt */
 759:external/drivers/stm32wlxx/src/stm32wlxx_hal_dma.c ****       __HAL_DMA_DISABLE_IT(hdma, DMA_IT_HT);
 760:external/drivers/stm32wlxx/src/stm32wlxx_hal_dma.c ****     }
 761:external/drivers/stm32wlxx/src/stm32wlxx_hal_dma.c ****     /* Clear the half transfer complete flag */
 762:external/drivers/stm32wlxx/src/stm32wlxx_hal_dma.c ****     hdma->DmaBaseAddress->IFCR = DMA_ISR_HTIF1 << (hdma->ChannelIndex & 0x1CU);
 763:external/drivers/stm32wlxx/src/stm32wlxx_hal_dma.c **** 
 764:external/drivers/stm32wlxx/src/stm32wlxx_hal_dma.c ****     /* DMA peripheral state is not updated in Half Transfer */
 765:external/drivers/stm32wlxx/src/stm32wlxx_hal_dma.c ****     /* but in Transfer Complete case */
 766:external/drivers/stm32wlxx/src/stm32wlxx_hal_dma.c **** 
 767:external/drivers/stm32wlxx/src/stm32wlxx_hal_dma.c ****     if (hdma->XferHalfCpltCallback != NULL)
 768:external/drivers/stm32wlxx/src/stm32wlxx_hal_dma.c ****     {
 769:external/drivers/stm32wlxx/src/stm32wlxx_hal_dma.c ****       /* Half transfer callback */
 770:external/drivers/stm32wlxx/src/stm32wlxx_hal_dma.c ****       hdma->XferHalfCpltCallback(hdma);
 771:external/drivers/stm32wlxx/src/stm32wlxx_hal_dma.c ****     }
 772:external/drivers/stm32wlxx/src/stm32wlxx_hal_dma.c ****   }
 773:external/drivers/stm32wlxx/src/stm32wlxx_hal_dma.c **** 
ARM GAS  /tmp/ccmjCdRm.s 			page 15


 774:external/drivers/stm32wlxx/src/stm32wlxx_hal_dma.c ****   /* Transfer Complete Interrupt management ***********************************/
 775:external/drivers/stm32wlxx/src/stm32wlxx_hal_dma.c ****   else if ((0U != (flag_it & (DMA_FLAG_TC1 << (hdma->ChannelIndex & 0x1CU)))) && (0U != (source_it 
 776:external/drivers/stm32wlxx/src/stm32wlxx_hal_dma.c ****   {
 777:external/drivers/stm32wlxx/src/stm32wlxx_hal_dma.c ****     if ((hdma->Instance->CCR & DMA_CCR_CIRC) == 0U)
 778:external/drivers/stm32wlxx/src/stm32wlxx_hal_dma.c ****     {
 779:external/drivers/stm32wlxx/src/stm32wlxx_hal_dma.c ****       /* Disable the transfer complete and error interrupt */
 780:external/drivers/stm32wlxx/src/stm32wlxx_hal_dma.c ****       __HAL_DMA_DISABLE_IT(hdma, DMA_IT_TE | DMA_IT_TC);
 781:external/drivers/stm32wlxx/src/stm32wlxx_hal_dma.c **** 
 782:external/drivers/stm32wlxx/src/stm32wlxx_hal_dma.c ****       /* Change the DMA state */
 783:external/drivers/stm32wlxx/src/stm32wlxx_hal_dma.c ****       hdma->State = HAL_DMA_STATE_READY;
 784:external/drivers/stm32wlxx/src/stm32wlxx_hal_dma.c ****     }
 785:external/drivers/stm32wlxx/src/stm32wlxx_hal_dma.c ****     /* Clear the transfer complete flag */
 786:external/drivers/stm32wlxx/src/stm32wlxx_hal_dma.c ****     __HAL_DMA_CLEAR_FLAG(hdma, (DMA_FLAG_TC1 << (hdma->ChannelIndex & 0x1CU)));
 787:external/drivers/stm32wlxx/src/stm32wlxx_hal_dma.c **** 
 788:external/drivers/stm32wlxx/src/stm32wlxx_hal_dma.c ****     /* Process Unlocked */
 789:external/drivers/stm32wlxx/src/stm32wlxx_hal_dma.c ****     __HAL_UNLOCK(hdma);
 790:external/drivers/stm32wlxx/src/stm32wlxx_hal_dma.c **** 
 791:external/drivers/stm32wlxx/src/stm32wlxx_hal_dma.c ****     if (hdma->XferCpltCallback != NULL)
 792:external/drivers/stm32wlxx/src/stm32wlxx_hal_dma.c ****     {
 793:external/drivers/stm32wlxx/src/stm32wlxx_hal_dma.c ****       /* Transfer complete callback */
 794:external/drivers/stm32wlxx/src/stm32wlxx_hal_dma.c ****       hdma->XferCpltCallback(hdma);
 795:external/drivers/stm32wlxx/src/stm32wlxx_hal_dma.c ****     }
 796:external/drivers/stm32wlxx/src/stm32wlxx_hal_dma.c ****   }
 797:external/drivers/stm32wlxx/src/stm32wlxx_hal_dma.c **** 
 798:external/drivers/stm32wlxx/src/stm32wlxx_hal_dma.c ****   /* Transfer Error Interrupt management **************************************/
 799:external/drivers/stm32wlxx/src/stm32wlxx_hal_dma.c ****   else if (((flag_it & (DMA_FLAG_TE1 << (hdma->ChannelIndex & 0x1CU))) != 0U) && ((source_it & DMA_
 800:external/drivers/stm32wlxx/src/stm32wlxx_hal_dma.c ****   {
 801:external/drivers/stm32wlxx/src/stm32wlxx_hal_dma.c ****     /* When a DMA transfer error occurs */
 802:external/drivers/stm32wlxx/src/stm32wlxx_hal_dma.c ****     /* A hardware clear of its EN bits is performed */
 803:external/drivers/stm32wlxx/src/stm32wlxx_hal_dma.c ****     /* Disable ALL DMA IT */
 804:external/drivers/stm32wlxx/src/stm32wlxx_hal_dma.c ****     __HAL_DMA_DISABLE_IT(hdma, (DMA_IT_TC | DMA_IT_HT | DMA_IT_TE));
 805:external/drivers/stm32wlxx/src/stm32wlxx_hal_dma.c **** 
 806:external/drivers/stm32wlxx/src/stm32wlxx_hal_dma.c ****     /* Clear all flags */
 807:external/drivers/stm32wlxx/src/stm32wlxx_hal_dma.c ****     hdma->DmaBaseAddress->IFCR = (DMA_ISR_GIF1 << (hdma->ChannelIndex & 0x1CU));
 808:external/drivers/stm32wlxx/src/stm32wlxx_hal_dma.c **** 
 809:external/drivers/stm32wlxx/src/stm32wlxx_hal_dma.c ****     /* Update error code */
 810:external/drivers/stm32wlxx/src/stm32wlxx_hal_dma.c ****     hdma->ErrorCode = HAL_DMA_ERROR_TE;
 811:external/drivers/stm32wlxx/src/stm32wlxx_hal_dma.c **** 
 812:external/drivers/stm32wlxx/src/stm32wlxx_hal_dma.c ****     /* Change the DMA state */
 813:external/drivers/stm32wlxx/src/stm32wlxx_hal_dma.c ****     hdma->State = HAL_DMA_STATE_READY;
 814:external/drivers/stm32wlxx/src/stm32wlxx_hal_dma.c **** 
 815:external/drivers/stm32wlxx/src/stm32wlxx_hal_dma.c ****     /* Process Unlocked */
 816:external/drivers/stm32wlxx/src/stm32wlxx_hal_dma.c ****     __HAL_UNLOCK(hdma);
 817:external/drivers/stm32wlxx/src/stm32wlxx_hal_dma.c **** 
 818:external/drivers/stm32wlxx/src/stm32wlxx_hal_dma.c ****     if (hdma->XferErrorCallback != NULL)
 819:external/drivers/stm32wlxx/src/stm32wlxx_hal_dma.c ****     {
 820:external/drivers/stm32wlxx/src/stm32wlxx_hal_dma.c ****       /* Transfer error callback */
 821:external/drivers/stm32wlxx/src/stm32wlxx_hal_dma.c ****       hdma->XferErrorCallback(hdma);
 822:external/drivers/stm32wlxx/src/stm32wlxx_hal_dma.c ****     }
 823:external/drivers/stm32wlxx/src/stm32wlxx_hal_dma.c ****   }
 824:external/drivers/stm32wlxx/src/stm32wlxx_hal_dma.c ****   else
 825:external/drivers/stm32wlxx/src/stm32wlxx_hal_dma.c ****   {
 826:external/drivers/stm32wlxx/src/stm32wlxx_hal_dma.c ****     /* Nothing To Do */
 827:external/drivers/stm32wlxx/src/stm32wlxx_hal_dma.c ****   }
 828:external/drivers/stm32wlxx/src/stm32wlxx_hal_dma.c ****   return;
 829:external/drivers/stm32wlxx/src/stm32wlxx_hal_dma.c **** }
 830:external/drivers/stm32wlxx/src/stm32wlxx_hal_dma.c **** 
ARM GAS  /tmp/ccmjCdRm.s 			page 16


 831:external/drivers/stm32wlxx/src/stm32wlxx_hal_dma.c **** /**
 832:external/drivers/stm32wlxx/src/stm32wlxx_hal_dma.c ****   * @brief Register callbacks
 833:external/drivers/stm32wlxx/src/stm32wlxx_hal_dma.c ****   * @param hdma Pointer to a DMA_HandleTypeDef structure that contains
 834:external/drivers/stm32wlxx/src/stm32wlxx_hal_dma.c ****   *             the configuration information for the specified DMA Channel.
 835:external/drivers/stm32wlxx/src/stm32wlxx_hal_dma.c ****   * @param CallbackID User Callback identifier
 836:external/drivers/stm32wlxx/src/stm32wlxx_hal_dma.c ****   *                   a HAL_DMA_CallbackIDTypeDef ENUM as parameter.
 837:external/drivers/stm32wlxx/src/stm32wlxx_hal_dma.c ****   * @param pCallback Pointer to private callback function which has pointer to
 838:external/drivers/stm32wlxx/src/stm32wlxx_hal_dma.c ****   *                  a DMA_HandleTypeDef structure as parameter.
 839:external/drivers/stm32wlxx/src/stm32wlxx_hal_dma.c ****   * @retval HAL status
 840:external/drivers/stm32wlxx/src/stm32wlxx_hal_dma.c ****   */
 841:external/drivers/stm32wlxx/src/stm32wlxx_hal_dma.c **** HAL_StatusTypeDef HAL_DMA_RegisterCallback(DMA_HandleTypeDef *hdma, HAL_DMA_CallbackIDTypeDef Callb
 842:external/drivers/stm32wlxx/src/stm32wlxx_hal_dma.c **** {
 843:external/drivers/stm32wlxx/src/stm32wlxx_hal_dma.c ****   HAL_StatusTypeDef status = HAL_OK;
 844:external/drivers/stm32wlxx/src/stm32wlxx_hal_dma.c **** 
 845:external/drivers/stm32wlxx/src/stm32wlxx_hal_dma.c ****   /* Process locked */
 846:external/drivers/stm32wlxx/src/stm32wlxx_hal_dma.c ****   __HAL_LOCK(hdma);
 847:external/drivers/stm32wlxx/src/stm32wlxx_hal_dma.c **** 
 848:external/drivers/stm32wlxx/src/stm32wlxx_hal_dma.c ****   if (hdma->State == HAL_DMA_STATE_READY)
 849:external/drivers/stm32wlxx/src/stm32wlxx_hal_dma.c ****   {
 850:external/drivers/stm32wlxx/src/stm32wlxx_hal_dma.c ****     switch (CallbackID)
 851:external/drivers/stm32wlxx/src/stm32wlxx_hal_dma.c ****     {
 852:external/drivers/stm32wlxx/src/stm32wlxx_hal_dma.c ****       case  HAL_DMA_XFER_CPLT_CB_ID:
 853:external/drivers/stm32wlxx/src/stm32wlxx_hal_dma.c ****         hdma->XferCpltCallback = pCallback;
 854:external/drivers/stm32wlxx/src/stm32wlxx_hal_dma.c ****         break;
 855:external/drivers/stm32wlxx/src/stm32wlxx_hal_dma.c **** 
 856:external/drivers/stm32wlxx/src/stm32wlxx_hal_dma.c ****       case  HAL_DMA_XFER_HALFCPLT_CB_ID:
 857:external/drivers/stm32wlxx/src/stm32wlxx_hal_dma.c ****         hdma->XferHalfCpltCallback = pCallback;
 858:external/drivers/stm32wlxx/src/stm32wlxx_hal_dma.c ****         break;
 859:external/drivers/stm32wlxx/src/stm32wlxx_hal_dma.c **** 
 860:external/drivers/stm32wlxx/src/stm32wlxx_hal_dma.c ****       case  HAL_DMA_XFER_ERROR_CB_ID:
 861:external/drivers/stm32wlxx/src/stm32wlxx_hal_dma.c ****         hdma->XferErrorCallback = pCallback;
 862:external/drivers/stm32wlxx/src/stm32wlxx_hal_dma.c ****         break;
 863:external/drivers/stm32wlxx/src/stm32wlxx_hal_dma.c **** 
 864:external/drivers/stm32wlxx/src/stm32wlxx_hal_dma.c ****       case  HAL_DMA_XFER_ABORT_CB_ID:
 865:external/drivers/stm32wlxx/src/stm32wlxx_hal_dma.c ****         hdma->XferAbortCallback = pCallback;
 866:external/drivers/stm32wlxx/src/stm32wlxx_hal_dma.c ****         break;
 867:external/drivers/stm32wlxx/src/stm32wlxx_hal_dma.c **** 
 868:external/drivers/stm32wlxx/src/stm32wlxx_hal_dma.c ****       default:
 869:external/drivers/stm32wlxx/src/stm32wlxx_hal_dma.c ****         status = HAL_ERROR;
 870:external/drivers/stm32wlxx/src/stm32wlxx_hal_dma.c ****         break;
 871:external/drivers/stm32wlxx/src/stm32wlxx_hal_dma.c ****     }
 872:external/drivers/stm32wlxx/src/stm32wlxx_hal_dma.c ****   }
 873:external/drivers/stm32wlxx/src/stm32wlxx_hal_dma.c ****   else
 874:external/drivers/stm32wlxx/src/stm32wlxx_hal_dma.c ****   {
 875:external/drivers/stm32wlxx/src/stm32wlxx_hal_dma.c ****     status = HAL_ERROR;
 876:external/drivers/stm32wlxx/src/stm32wlxx_hal_dma.c ****   }
 877:external/drivers/stm32wlxx/src/stm32wlxx_hal_dma.c **** 
 878:external/drivers/stm32wlxx/src/stm32wlxx_hal_dma.c ****   /* Release Lock */
 879:external/drivers/stm32wlxx/src/stm32wlxx_hal_dma.c ****   __HAL_UNLOCK(hdma);
 880:external/drivers/stm32wlxx/src/stm32wlxx_hal_dma.c **** 
 881:external/drivers/stm32wlxx/src/stm32wlxx_hal_dma.c ****   return status;
 882:external/drivers/stm32wlxx/src/stm32wlxx_hal_dma.c **** }
 883:external/drivers/stm32wlxx/src/stm32wlxx_hal_dma.c **** 
 884:external/drivers/stm32wlxx/src/stm32wlxx_hal_dma.c **** /**
 885:external/drivers/stm32wlxx/src/stm32wlxx_hal_dma.c ****   * @brief UnRegister callbacks
 886:external/drivers/stm32wlxx/src/stm32wlxx_hal_dma.c ****   * @param hdma Pointer to a DMA_HandleTypeDef structure that contains
 887:external/drivers/stm32wlxx/src/stm32wlxx_hal_dma.c ****   *             the configuration information for the specified DMA Channel.
ARM GAS  /tmp/ccmjCdRm.s 			page 17


 888:external/drivers/stm32wlxx/src/stm32wlxx_hal_dma.c ****   * @param CallbackID User Callback identifier
 889:external/drivers/stm32wlxx/src/stm32wlxx_hal_dma.c ****   *                   a HAL_DMA_CallbackIDTypeDef ENUM as parameter.
 890:external/drivers/stm32wlxx/src/stm32wlxx_hal_dma.c ****   * @retval HAL status
 891:external/drivers/stm32wlxx/src/stm32wlxx_hal_dma.c ****   */
 892:external/drivers/stm32wlxx/src/stm32wlxx_hal_dma.c **** HAL_StatusTypeDef HAL_DMA_UnRegisterCallback(DMA_HandleTypeDef *hdma, HAL_DMA_CallbackIDTypeDef Cal
 893:external/drivers/stm32wlxx/src/stm32wlxx_hal_dma.c **** {
 894:external/drivers/stm32wlxx/src/stm32wlxx_hal_dma.c ****   HAL_StatusTypeDef status = HAL_OK;
 895:external/drivers/stm32wlxx/src/stm32wlxx_hal_dma.c **** 
 896:external/drivers/stm32wlxx/src/stm32wlxx_hal_dma.c ****   /* Process locked */
 897:external/drivers/stm32wlxx/src/stm32wlxx_hal_dma.c ****   __HAL_LOCK(hdma);
 898:external/drivers/stm32wlxx/src/stm32wlxx_hal_dma.c **** 
 899:external/drivers/stm32wlxx/src/stm32wlxx_hal_dma.c ****   if (hdma->State == HAL_DMA_STATE_READY)
 900:external/drivers/stm32wlxx/src/stm32wlxx_hal_dma.c ****   {
 901:external/drivers/stm32wlxx/src/stm32wlxx_hal_dma.c ****     switch (CallbackID)
 902:external/drivers/stm32wlxx/src/stm32wlxx_hal_dma.c ****     {
 903:external/drivers/stm32wlxx/src/stm32wlxx_hal_dma.c ****       case  HAL_DMA_XFER_CPLT_CB_ID:
 904:external/drivers/stm32wlxx/src/stm32wlxx_hal_dma.c ****         hdma->XferCpltCallback = NULL;
 905:external/drivers/stm32wlxx/src/stm32wlxx_hal_dma.c ****         break;
 906:external/drivers/stm32wlxx/src/stm32wlxx_hal_dma.c **** 
 907:external/drivers/stm32wlxx/src/stm32wlxx_hal_dma.c ****       case  HAL_DMA_XFER_HALFCPLT_CB_ID:
 908:external/drivers/stm32wlxx/src/stm32wlxx_hal_dma.c ****         hdma->XferHalfCpltCallback = NULL;
 909:external/drivers/stm32wlxx/src/stm32wlxx_hal_dma.c ****         break;
 910:external/drivers/stm32wlxx/src/stm32wlxx_hal_dma.c **** 
 911:external/drivers/stm32wlxx/src/stm32wlxx_hal_dma.c ****       case  HAL_DMA_XFER_ERROR_CB_ID:
 912:external/drivers/stm32wlxx/src/stm32wlxx_hal_dma.c ****         hdma->XferErrorCallback = NULL;
 913:external/drivers/stm32wlxx/src/stm32wlxx_hal_dma.c ****         break;
 914:external/drivers/stm32wlxx/src/stm32wlxx_hal_dma.c **** 
 915:external/drivers/stm32wlxx/src/stm32wlxx_hal_dma.c ****       case  HAL_DMA_XFER_ABORT_CB_ID:
 916:external/drivers/stm32wlxx/src/stm32wlxx_hal_dma.c ****         hdma->XferAbortCallback = NULL;
 917:external/drivers/stm32wlxx/src/stm32wlxx_hal_dma.c ****         break;
 918:external/drivers/stm32wlxx/src/stm32wlxx_hal_dma.c **** 
 919:external/drivers/stm32wlxx/src/stm32wlxx_hal_dma.c ****       case   HAL_DMA_XFER_ALL_CB_ID:
 920:external/drivers/stm32wlxx/src/stm32wlxx_hal_dma.c ****         hdma->XferCpltCallback = NULL;
 921:external/drivers/stm32wlxx/src/stm32wlxx_hal_dma.c ****         hdma->XferHalfCpltCallback = NULL;
 922:external/drivers/stm32wlxx/src/stm32wlxx_hal_dma.c ****         hdma->XferErrorCallback = NULL;
 923:external/drivers/stm32wlxx/src/stm32wlxx_hal_dma.c ****         hdma->XferAbortCallback = NULL;
 924:external/drivers/stm32wlxx/src/stm32wlxx_hal_dma.c ****         break;
 925:external/drivers/stm32wlxx/src/stm32wlxx_hal_dma.c **** 
 926:external/drivers/stm32wlxx/src/stm32wlxx_hal_dma.c ****       default:
 927:external/drivers/stm32wlxx/src/stm32wlxx_hal_dma.c ****         status = HAL_ERROR;
 928:external/drivers/stm32wlxx/src/stm32wlxx_hal_dma.c ****         break;
 929:external/drivers/stm32wlxx/src/stm32wlxx_hal_dma.c ****     }
 930:external/drivers/stm32wlxx/src/stm32wlxx_hal_dma.c ****   }
 931:external/drivers/stm32wlxx/src/stm32wlxx_hal_dma.c ****   else
 932:external/drivers/stm32wlxx/src/stm32wlxx_hal_dma.c ****   {
 933:external/drivers/stm32wlxx/src/stm32wlxx_hal_dma.c ****     status = HAL_ERROR;
 934:external/drivers/stm32wlxx/src/stm32wlxx_hal_dma.c ****   }
 935:external/drivers/stm32wlxx/src/stm32wlxx_hal_dma.c **** 
 936:external/drivers/stm32wlxx/src/stm32wlxx_hal_dma.c ****   /* Release Lock */
 937:external/drivers/stm32wlxx/src/stm32wlxx_hal_dma.c ****   __HAL_UNLOCK(hdma);
 938:external/drivers/stm32wlxx/src/stm32wlxx_hal_dma.c **** 
 939:external/drivers/stm32wlxx/src/stm32wlxx_hal_dma.c ****   return status;
 940:external/drivers/stm32wlxx/src/stm32wlxx_hal_dma.c **** }
 941:external/drivers/stm32wlxx/src/stm32wlxx_hal_dma.c **** 
 942:external/drivers/stm32wlxx/src/stm32wlxx_hal_dma.c **** /**
 943:external/drivers/stm32wlxx/src/stm32wlxx_hal_dma.c ****   * @}
 944:external/drivers/stm32wlxx/src/stm32wlxx_hal_dma.c ****   */
ARM GAS  /tmp/ccmjCdRm.s 			page 18


 945:external/drivers/stm32wlxx/src/stm32wlxx_hal_dma.c **** 
 946:external/drivers/stm32wlxx/src/stm32wlxx_hal_dma.c **** 
 947:external/drivers/stm32wlxx/src/stm32wlxx_hal_dma.c **** /** @defgroup DMA_Exported_Functions_Group3 Peripheral State and Errors functions
 948:external/drivers/stm32wlxx/src/stm32wlxx_hal_dma.c ****   *  @brief    Peripheral State and Errors functions
 949:external/drivers/stm32wlxx/src/stm32wlxx_hal_dma.c ****   *
 950:external/drivers/stm32wlxx/src/stm32wlxx_hal_dma.c **** @verbatim
 951:external/drivers/stm32wlxx/src/stm32wlxx_hal_dma.c ****  ===============================================================================
 952:external/drivers/stm32wlxx/src/stm32wlxx_hal_dma.c ****             ##### Peripheral State and Errors functions #####
 953:external/drivers/stm32wlxx/src/stm32wlxx_hal_dma.c ****  ===============================================================================
 954:external/drivers/stm32wlxx/src/stm32wlxx_hal_dma.c ****     [..]
 955:external/drivers/stm32wlxx/src/stm32wlxx_hal_dma.c ****     This subsection provides functions allowing to
 956:external/drivers/stm32wlxx/src/stm32wlxx_hal_dma.c ****       (+) Check the DMA state
 957:external/drivers/stm32wlxx/src/stm32wlxx_hal_dma.c ****       (+) Get error code
 958:external/drivers/stm32wlxx/src/stm32wlxx_hal_dma.c **** 
 959:external/drivers/stm32wlxx/src/stm32wlxx_hal_dma.c **** @endverbatim
 960:external/drivers/stm32wlxx/src/stm32wlxx_hal_dma.c ****   * @{
 961:external/drivers/stm32wlxx/src/stm32wlxx_hal_dma.c ****   */
 962:external/drivers/stm32wlxx/src/stm32wlxx_hal_dma.c **** 
 963:external/drivers/stm32wlxx/src/stm32wlxx_hal_dma.c **** /**
 964:external/drivers/stm32wlxx/src/stm32wlxx_hal_dma.c ****   * @brief Return the DMA handle state.
 965:external/drivers/stm32wlxx/src/stm32wlxx_hal_dma.c ****   * @param hdma Pointer to a DMA_HandleTypeDef structure that contains
 966:external/drivers/stm32wlxx/src/stm32wlxx_hal_dma.c ****   *             the configuration information for the specified DMA Channel.
 967:external/drivers/stm32wlxx/src/stm32wlxx_hal_dma.c ****   * @retval HAL state
 968:external/drivers/stm32wlxx/src/stm32wlxx_hal_dma.c ****   */
 969:external/drivers/stm32wlxx/src/stm32wlxx_hal_dma.c **** HAL_DMA_StateTypeDef HAL_DMA_GetState(DMA_HandleTypeDef *hdma)
 970:external/drivers/stm32wlxx/src/stm32wlxx_hal_dma.c **** {
 971:external/drivers/stm32wlxx/src/stm32wlxx_hal_dma.c ****   /* Return DMA handle state */
 972:external/drivers/stm32wlxx/src/stm32wlxx_hal_dma.c ****   return hdma->State;
 973:external/drivers/stm32wlxx/src/stm32wlxx_hal_dma.c **** }
 974:external/drivers/stm32wlxx/src/stm32wlxx_hal_dma.c **** 
 975:external/drivers/stm32wlxx/src/stm32wlxx_hal_dma.c **** /**
 976:external/drivers/stm32wlxx/src/stm32wlxx_hal_dma.c ****   * @brief Return the DMA error code.
 977:external/drivers/stm32wlxx/src/stm32wlxx_hal_dma.c ****   * @param hdma Pointer to a DMA_HandleTypeDef structure that contains
 978:external/drivers/stm32wlxx/src/stm32wlxx_hal_dma.c ****   *             the configuration information for the specified DMA Channel.
 979:external/drivers/stm32wlxx/src/stm32wlxx_hal_dma.c ****   * @retval DMA Error Code
 980:external/drivers/stm32wlxx/src/stm32wlxx_hal_dma.c ****   */
 981:external/drivers/stm32wlxx/src/stm32wlxx_hal_dma.c **** uint32_t HAL_DMA_GetError(DMA_HandleTypeDef *hdma)
 982:external/drivers/stm32wlxx/src/stm32wlxx_hal_dma.c **** {
 983:external/drivers/stm32wlxx/src/stm32wlxx_hal_dma.c ****   /* Return the DMA error code */
 984:external/drivers/stm32wlxx/src/stm32wlxx_hal_dma.c ****   return hdma->ErrorCode;
 985:external/drivers/stm32wlxx/src/stm32wlxx_hal_dma.c **** }
 986:external/drivers/stm32wlxx/src/stm32wlxx_hal_dma.c **** 
 987:external/drivers/stm32wlxx/src/stm32wlxx_hal_dma.c **** /**
 988:external/drivers/stm32wlxx/src/stm32wlxx_hal_dma.c ****   * @}
 989:external/drivers/stm32wlxx/src/stm32wlxx_hal_dma.c ****   */
 990:external/drivers/stm32wlxx/src/stm32wlxx_hal_dma.c **** 
 991:external/drivers/stm32wlxx/src/stm32wlxx_hal_dma.c **** /**
 992:external/drivers/stm32wlxx/src/stm32wlxx_hal_dma.c ****   * @}
 993:external/drivers/stm32wlxx/src/stm32wlxx_hal_dma.c ****   */
 994:external/drivers/stm32wlxx/src/stm32wlxx_hal_dma.c **** 
 995:external/drivers/stm32wlxx/src/stm32wlxx_hal_dma.c **** #if defined(DMA_CCR_SECM) && defined(DMA_CCR_PRIV)
 996:external/drivers/stm32wlxx/src/stm32wlxx_hal_dma.c **** /** @defgroup DMA_Exported_Functions_Group4 Attributes management functions
 997:external/drivers/stm32wlxx/src/stm32wlxx_hal_dma.c ****   *  @brief    Attributes management functions
 998:external/drivers/stm32wlxx/src/stm32wlxx_hal_dma.c ****   *
 999:external/drivers/stm32wlxx/src/stm32wlxx_hal_dma.c **** @verbatim
1000:external/drivers/stm32wlxx/src/stm32wlxx_hal_dma.c ****  ===============================================================================
1001:external/drivers/stm32wlxx/src/stm32wlxx_hal_dma.c ****             ##### Attributes management functions #####
ARM GAS  /tmp/ccmjCdRm.s 			page 19


1002:external/drivers/stm32wlxx/src/stm32wlxx_hal_dma.c ****  ===============================================================================
1003:external/drivers/stm32wlxx/src/stm32wlxx_hal_dma.c ****     [..]
1004:external/drivers/stm32wlxx/src/stm32wlxx_hal_dma.c ****     This subsection provides functions allowing to
1005:external/drivers/stm32wlxx/src/stm32wlxx_hal_dma.c ****       (+) Configure the DMA channel(s) privilege and non-privilege attributes
1006:external/drivers/stm32wlxx/src/stm32wlxx_hal_dma.c ****       (+) Configure the DMA channel(s) secure and non-secure attributes from
1007:external/drivers/stm32wlxx/src/stm32wlxx_hal_dma.c ****           secure world when the system implements the security (ESE=1)
1008:external/drivers/stm32wlxx/src/stm32wlxx_hal_dma.c ****       (+) Get the DMA channel(s) attributes
1009:external/drivers/stm32wlxx/src/stm32wlxx_hal_dma.c **** 
1010:external/drivers/stm32wlxx/src/stm32wlxx_hal_dma.c **** @endverbatim
1011:external/drivers/stm32wlxx/src/stm32wlxx_hal_dma.c ****   * @{
1012:external/drivers/stm32wlxx/src/stm32wlxx_hal_dma.c ****   */
1013:external/drivers/stm32wlxx/src/stm32wlxx_hal_dma.c **** 
1014:external/drivers/stm32wlxx/src/stm32wlxx_hal_dma.c **** /**
1015:external/drivers/stm32wlxx/src/stm32wlxx_hal_dma.c ****   * @brief Configure the DMA channel attribute(s).
1016:external/drivers/stm32wlxx/src/stm32wlxx_hal_dma.c ****   * @note  Available attributes are security and privilege protection.
1017:external/drivers/stm32wlxx/src/stm32wlxx_hal_dma.c ****   *        Each field can be set independently. Not allowed configurations
1018:external/drivers/stm32wlxx/src/stm32wlxx_hal_dma.c ****   *        are not taken into account & HAL_ERROR returned.
1019:external/drivers/stm32wlxx/src/stm32wlxx_hal_dma.c ****   * @param hdma Pointer to a DMA_HandleTypeDef structure that contains
1020:external/drivers/stm32wlxx/src/stm32wlxx_hal_dma.c ****   *             the configuration information for the specified DMA Channel.
1021:external/drivers/stm32wlxx/src/stm32wlxx_hal_dma.c ****   * @param ChannelAttributes specifies the DMA channel secure/privilege attributes.
1022:external/drivers/stm32wlxx/src/stm32wlxx_hal_dma.c ****   *        This parameter can be a one or a combination of @ref DMA_Channel_Attributes
1023:external/drivers/stm32wlxx/src/stm32wlxx_hal_dma.c ****   * @retval HAL Status
1024:external/drivers/stm32wlxx/src/stm32wlxx_hal_dma.c ****   */
1025:external/drivers/stm32wlxx/src/stm32wlxx_hal_dma.c **** HAL_StatusTypeDef HAL_DMA_ConfigChannelAttributes(DMA_HandleTypeDef *hdma, uint32_t ChannelAttribut
1026:external/drivers/stm32wlxx/src/stm32wlxx_hal_dma.c **** {
1027:external/drivers/stm32wlxx/src/stm32wlxx_hal_dma.c ****   HAL_StatusTypeDef status = HAL_OK;
1028:external/drivers/stm32wlxx/src/stm32wlxx_hal_dma.c ****   uint32_t ccr;
1029:external/drivers/stm32wlxx/src/stm32wlxx_hal_dma.c **** 
1030:external/drivers/stm32wlxx/src/stm32wlxx_hal_dma.c **** #if defined (CORE_CM0PLUS)
1031:external/drivers/stm32wlxx/src/stm32wlxx_hal_dma.c ****   uint32_t ccr_SECM;
1032:external/drivers/stm32wlxx/src/stm32wlxx_hal_dma.c **** #endif /* CORE_CM0PLUS */
1033:external/drivers/stm32wlxx/src/stm32wlxx_hal_dma.c **** 
1034:external/drivers/stm32wlxx/src/stm32wlxx_hal_dma.c ****   /* Check the DMA peripheral handle */
1035:external/drivers/stm32wlxx/src/stm32wlxx_hal_dma.c ****   if (hdma == NULL)
1036:external/drivers/stm32wlxx/src/stm32wlxx_hal_dma.c ****   {
1037:external/drivers/stm32wlxx/src/stm32wlxx_hal_dma.c ****     status = HAL_ERROR;
1038:external/drivers/stm32wlxx/src/stm32wlxx_hal_dma.c ****     return status;
1039:external/drivers/stm32wlxx/src/stm32wlxx_hal_dma.c ****   }
1040:external/drivers/stm32wlxx/src/stm32wlxx_hal_dma.c **** 
1041:external/drivers/stm32wlxx/src/stm32wlxx_hal_dma.c ****   /* Check the parameters */
1042:external/drivers/stm32wlxx/src/stm32wlxx_hal_dma.c ****   assert_param(IS_DMA_ATTRIBUTES(ChannelAttributes));
1043:external/drivers/stm32wlxx/src/stm32wlxx_hal_dma.c **** 
1044:external/drivers/stm32wlxx/src/stm32wlxx_hal_dma.c ****   /* Read CCR register */
1045:external/drivers/stm32wlxx/src/stm32wlxx_hal_dma.c ****   ccr = READ_REG(hdma->Instance->CCR);
1046:external/drivers/stm32wlxx/src/stm32wlxx_hal_dma.c **** 
1047:external/drivers/stm32wlxx/src/stm32wlxx_hal_dma.c ****   /* Apply any requested privilege/non-privilege attributes */
1048:external/drivers/stm32wlxx/src/stm32wlxx_hal_dma.c ****   if ((ChannelAttributes & DMA_CHANNEL_ATTR_PRIV_MASK) != 0U)
1049:external/drivers/stm32wlxx/src/stm32wlxx_hal_dma.c ****   {
1050:external/drivers/stm32wlxx/src/stm32wlxx_hal_dma.c ****     if ((ChannelAttributes & DMA_CCR_PRIV) != 0U)
1051:external/drivers/stm32wlxx/src/stm32wlxx_hal_dma.c ****     {
1052:external/drivers/stm32wlxx/src/stm32wlxx_hal_dma.c ****       SET_BIT(ccr, DMA_CCR_PRIV);
1053:external/drivers/stm32wlxx/src/stm32wlxx_hal_dma.c ****     }
1054:external/drivers/stm32wlxx/src/stm32wlxx_hal_dma.c ****     else
1055:external/drivers/stm32wlxx/src/stm32wlxx_hal_dma.c ****     {
1056:external/drivers/stm32wlxx/src/stm32wlxx_hal_dma.c ****       CLEAR_BIT(ccr, DMA_CCR_PRIV);
1057:external/drivers/stm32wlxx/src/stm32wlxx_hal_dma.c ****     }
1058:external/drivers/stm32wlxx/src/stm32wlxx_hal_dma.c ****   }
ARM GAS  /tmp/ccmjCdRm.s 			page 20


1059:external/drivers/stm32wlxx/src/stm32wlxx_hal_dma.c **** 
1060:external/drivers/stm32wlxx/src/stm32wlxx_hal_dma.c **** #if defined (CORE_CM0PLUS)
1061:external/drivers/stm32wlxx/src/stm32wlxx_hal_dma.c ****   /* Channel */
1062:external/drivers/stm32wlxx/src/stm32wlxx_hal_dma.c ****   /* Check what is the current SECM status */
1063:external/drivers/stm32wlxx/src/stm32wlxx_hal_dma.c ****   if ((hdma->Instance->CCR & DMA_CCR_SECM) == DMA_CCR_SECM)
1064:external/drivers/stm32wlxx/src/stm32wlxx_hal_dma.c ****   {
1065:external/drivers/stm32wlxx/src/stm32wlxx_hal_dma.c ****     /* Channel is currently secure */
1066:external/drivers/stm32wlxx/src/stm32wlxx_hal_dma.c ****     ccr_SECM = DMA_CCR_SECM;
1067:external/drivers/stm32wlxx/src/stm32wlxx_hal_dma.c ****   }
1068:external/drivers/stm32wlxx/src/stm32wlxx_hal_dma.c ****   else
1069:external/drivers/stm32wlxx/src/stm32wlxx_hal_dma.c ****   {
1070:external/drivers/stm32wlxx/src/stm32wlxx_hal_dma.c ****     /* Channel is currently non-secure */
1071:external/drivers/stm32wlxx/src/stm32wlxx_hal_dma.c ****     ccr_SECM = 0U;
1072:external/drivers/stm32wlxx/src/stm32wlxx_hal_dma.c ****   }
1073:external/drivers/stm32wlxx/src/stm32wlxx_hal_dma.c **** 
1074:external/drivers/stm32wlxx/src/stm32wlxx_hal_dma.c ****   if ((ChannelAttributes & DMA_CHANNEL_ATTR_SEC_MASK) != 0U)
1075:external/drivers/stm32wlxx/src/stm32wlxx_hal_dma.c ****   {
1076:external/drivers/stm32wlxx/src/stm32wlxx_hal_dma.c ****     if ((ChannelAttributes & DMA_CCR_SECM) != 0U)
1077:external/drivers/stm32wlxx/src/stm32wlxx_hal_dma.c ****     {
1078:external/drivers/stm32wlxx/src/stm32wlxx_hal_dma.c ****       SET_BIT(ccr, DMA_CCR_SECM);
1079:external/drivers/stm32wlxx/src/stm32wlxx_hal_dma.c ****       /* Channel changed to secure */
1080:external/drivers/stm32wlxx/src/stm32wlxx_hal_dma.c ****       ccr_SECM = DMA_CCR_SECM;
1081:external/drivers/stm32wlxx/src/stm32wlxx_hal_dma.c ****     }
1082:external/drivers/stm32wlxx/src/stm32wlxx_hal_dma.c ****     else
1083:external/drivers/stm32wlxx/src/stm32wlxx_hal_dma.c ****     {
1084:external/drivers/stm32wlxx/src/stm32wlxx_hal_dma.c ****       CLEAR_BIT(ccr, DMA_CCR_SECM);
1085:external/drivers/stm32wlxx/src/stm32wlxx_hal_dma.c ****       /* Channel changed to non-secure */
1086:external/drivers/stm32wlxx/src/stm32wlxx_hal_dma.c ****       ccr_SECM = 0U;
1087:external/drivers/stm32wlxx/src/stm32wlxx_hal_dma.c ****     }
1088:external/drivers/stm32wlxx/src/stm32wlxx_hal_dma.c ****   }
1089:external/drivers/stm32wlxx/src/stm32wlxx_hal_dma.c **** 
1090:external/drivers/stm32wlxx/src/stm32wlxx_hal_dma.c ****   /* Channel source */
1091:external/drivers/stm32wlxx/src/stm32wlxx_hal_dma.c ****   if ((ChannelAttributes & DMA_CHANNEL_ATTR_SEC_SRC_MASK) != 0U)
1092:external/drivers/stm32wlxx/src/stm32wlxx_hal_dma.c ****   {
1093:external/drivers/stm32wlxx/src/stm32wlxx_hal_dma.c ****     /* Configure Source security attributes */
1094:external/drivers/stm32wlxx/src/stm32wlxx_hal_dma.c ****     if ((ChannelAttributes & DMA_CCR_SSEC) != 0x0U)
1095:external/drivers/stm32wlxx/src/stm32wlxx_hal_dma.c ****     {
1096:external/drivers/stm32wlxx/src/stm32wlxx_hal_dma.c ****       /* SSEC can only be set if channel is secure */
1097:external/drivers/stm32wlxx/src/stm32wlxx_hal_dma.c ****       /* Otherwise configuration is not taken into account */
1098:external/drivers/stm32wlxx/src/stm32wlxx_hal_dma.c ****       if (ccr_SECM == 0U)
1099:external/drivers/stm32wlxx/src/stm32wlxx_hal_dma.c ****       {
1100:external/drivers/stm32wlxx/src/stm32wlxx_hal_dma.c ****         status = HAL_ERROR;
1101:external/drivers/stm32wlxx/src/stm32wlxx_hal_dma.c ****       }
1102:external/drivers/stm32wlxx/src/stm32wlxx_hal_dma.c ****       else
1103:external/drivers/stm32wlxx/src/stm32wlxx_hal_dma.c ****       {
1104:external/drivers/stm32wlxx/src/stm32wlxx_hal_dma.c ****         SET_BIT(ccr, DMA_CCR_SSEC);
1105:external/drivers/stm32wlxx/src/stm32wlxx_hal_dma.c ****       }
1106:external/drivers/stm32wlxx/src/stm32wlxx_hal_dma.c ****     }
1107:external/drivers/stm32wlxx/src/stm32wlxx_hal_dma.c ****     else
1108:external/drivers/stm32wlxx/src/stm32wlxx_hal_dma.c ****     {
1109:external/drivers/stm32wlxx/src/stm32wlxx_hal_dma.c ****       CLEAR_BIT(ccr, DMA_CCR_SSEC);
1110:external/drivers/stm32wlxx/src/stm32wlxx_hal_dma.c ****     }
1111:external/drivers/stm32wlxx/src/stm32wlxx_hal_dma.c ****   }
1112:external/drivers/stm32wlxx/src/stm32wlxx_hal_dma.c **** 
1113:external/drivers/stm32wlxx/src/stm32wlxx_hal_dma.c ****   /* Channel destination */
1114:external/drivers/stm32wlxx/src/stm32wlxx_hal_dma.c ****   if ((ChannelAttributes & DMA_CHANNEL_ATTR_SEC_DEST_MASK) != 0U)
1115:external/drivers/stm32wlxx/src/stm32wlxx_hal_dma.c ****   {
ARM GAS  /tmp/ccmjCdRm.s 			page 21


1116:external/drivers/stm32wlxx/src/stm32wlxx_hal_dma.c ****     /* Configure Destination security attributes */
1117:external/drivers/stm32wlxx/src/stm32wlxx_hal_dma.c ****     if ((ChannelAttributes & DMA_CCR_DSEC) != 0U)
1118:external/drivers/stm32wlxx/src/stm32wlxx_hal_dma.c ****     {
1119:external/drivers/stm32wlxx/src/stm32wlxx_hal_dma.c ****       if (ccr_SECM == 0U)
1120:external/drivers/stm32wlxx/src/stm32wlxx_hal_dma.c ****       {
1121:external/drivers/stm32wlxx/src/stm32wlxx_hal_dma.c ****         /* DSEC can only be set if channel is secure */
1122:external/drivers/stm32wlxx/src/stm32wlxx_hal_dma.c ****         /* Destination channel is non secure */
1123:external/drivers/stm32wlxx/src/stm32wlxx_hal_dma.c ****         status = HAL_ERROR;
1124:external/drivers/stm32wlxx/src/stm32wlxx_hal_dma.c ****       }
1125:external/drivers/stm32wlxx/src/stm32wlxx_hal_dma.c ****       else
1126:external/drivers/stm32wlxx/src/stm32wlxx_hal_dma.c ****       {
1127:external/drivers/stm32wlxx/src/stm32wlxx_hal_dma.c ****         SET_BIT(ccr, DMA_CCR_DSEC);
1128:external/drivers/stm32wlxx/src/stm32wlxx_hal_dma.c ****       }
1129:external/drivers/stm32wlxx/src/stm32wlxx_hal_dma.c ****     }
1130:external/drivers/stm32wlxx/src/stm32wlxx_hal_dma.c ****     else
1131:external/drivers/stm32wlxx/src/stm32wlxx_hal_dma.c ****     {
1132:external/drivers/stm32wlxx/src/stm32wlxx_hal_dma.c ****       CLEAR_BIT(ccr, DMA_CCR_DSEC);
1133:external/drivers/stm32wlxx/src/stm32wlxx_hal_dma.c ****     }
1134:external/drivers/stm32wlxx/src/stm32wlxx_hal_dma.c ****   }
1135:external/drivers/stm32wlxx/src/stm32wlxx_hal_dma.c **** 
1136:external/drivers/stm32wlxx/src/stm32wlxx_hal_dma.c **** #endif /* CORE_CM0PLUS */
1137:external/drivers/stm32wlxx/src/stm32wlxx_hal_dma.c **** 
1138:external/drivers/stm32wlxx/src/stm32wlxx_hal_dma.c ****   /* Update CCR Register: PRIV, SECM, SCEC, DSEC bits */
1139:external/drivers/stm32wlxx/src/stm32wlxx_hal_dma.c ****   WRITE_REG(hdma->Instance->CCR, ccr);
1140:external/drivers/stm32wlxx/src/stm32wlxx_hal_dma.c **** 
1141:external/drivers/stm32wlxx/src/stm32wlxx_hal_dma.c ****   return status;
1142:external/drivers/stm32wlxx/src/stm32wlxx_hal_dma.c **** }
1143:external/drivers/stm32wlxx/src/stm32wlxx_hal_dma.c **** 
1144:external/drivers/stm32wlxx/src/stm32wlxx_hal_dma.c **** /**
1145:external/drivers/stm32wlxx/src/stm32wlxx_hal_dma.c ****   * @brief Get the attribute of a DMA channel.
1146:external/drivers/stm32wlxx/src/stm32wlxx_hal_dma.c ****   * @note  Secure and non-secure attributes are only available from secure state
1147:external/drivers/stm32wlxx/src/stm32wlxx_hal_dma.c ****   *        when the system implements the security (ESE=1)
1148:external/drivers/stm32wlxx/src/stm32wlxx_hal_dma.c ****   * @param hdma Pointer to a DMA_HandleTypeDef structure that contains
1149:external/drivers/stm32wlxx/src/stm32wlxx_hal_dma.c ****   *             the configuration information for the specified DMA Channel.
1150:external/drivers/stm32wlxx/src/stm32wlxx_hal_dma.c ****   * @param ChannelAttributes pointer to return the attributes.
1151:external/drivers/stm32wlxx/src/stm32wlxx_hal_dma.c ****   * @retval HAL Status.
1152:external/drivers/stm32wlxx/src/stm32wlxx_hal_dma.c ****   */
1153:external/drivers/stm32wlxx/src/stm32wlxx_hal_dma.c **** HAL_StatusTypeDef HAL_DMA_GetConfigChannelAttributes(DMA_HandleTypeDef *hdma, uint32_t *ChannelAttr
1154:external/drivers/stm32wlxx/src/stm32wlxx_hal_dma.c **** {
1155:external/drivers/stm32wlxx/src/stm32wlxx_hal_dma.c ****   uint32_t read_attributes;
1156:external/drivers/stm32wlxx/src/stm32wlxx_hal_dma.c ****   uint32_t attributes;
1157:external/drivers/stm32wlxx/src/stm32wlxx_hal_dma.c **** 
1158:external/drivers/stm32wlxx/src/stm32wlxx_hal_dma.c ****   /* Check the DMA peripheral handle and pointer to returned value */
1159:external/drivers/stm32wlxx/src/stm32wlxx_hal_dma.c ****   if ((hdma == NULL) || (ChannelAttributes == NULL))
1160:external/drivers/stm32wlxx/src/stm32wlxx_hal_dma.c ****   {
1161:external/drivers/stm32wlxx/src/stm32wlxx_hal_dma.c ****     return HAL_ERROR;
1162:external/drivers/stm32wlxx/src/stm32wlxx_hal_dma.c ****   }
1163:external/drivers/stm32wlxx/src/stm32wlxx_hal_dma.c **** 
1164:external/drivers/stm32wlxx/src/stm32wlxx_hal_dma.c **** #if defined (CORE_CM0PLUS)
1165:external/drivers/stm32wlxx/src/stm32wlxx_hal_dma.c ****   /* Get secure or non-secure attributes */
1166:external/drivers/stm32wlxx/src/stm32wlxx_hal_dma.c ****   read_attributes = READ_BIT(hdma->Instance->CCR, DMA_CCR_PRIV | DMA_CCR_SECM | DMA_CCR_SSEC | DMA_
1167:external/drivers/stm32wlxx/src/stm32wlxx_hal_dma.c **** 
1168:external/drivers/stm32wlxx/src/stm32wlxx_hal_dma.c ****   /* Get privilege attributes */
1169:external/drivers/stm32wlxx/src/stm32wlxx_hal_dma.c ****   attributes = ((read_attributes & DMA_CCR_PRIV) == 0U) ? DMA_CHANNEL_NPRIV : DMA_CHANNEL_PRIV;
1170:external/drivers/stm32wlxx/src/stm32wlxx_hal_dma.c **** 
1171:external/drivers/stm32wlxx/src/stm32wlxx_hal_dma.c ****   /* Get security attributes */
1172:external/drivers/stm32wlxx/src/stm32wlxx_hal_dma.c ****   attributes |= ((read_attributes & DMA_CCR_SECM) == 0U) ? DMA_CHANNEL_NSEC : DMA_CHANNEL_SEC;
ARM GAS  /tmp/ccmjCdRm.s 			page 22


1173:external/drivers/stm32wlxx/src/stm32wlxx_hal_dma.c **** 
1174:external/drivers/stm32wlxx/src/stm32wlxx_hal_dma.c ****   /* Get security attributes of the source */
1175:external/drivers/stm32wlxx/src/stm32wlxx_hal_dma.c ****   attributes |= ((read_attributes & DMA_CCR_SSEC) == 0U) ? DMA_CHANNEL_SRC_NSEC : DMA_CHANNEL_SRC_S
1176:external/drivers/stm32wlxx/src/stm32wlxx_hal_dma.c **** 
1177:external/drivers/stm32wlxx/src/stm32wlxx_hal_dma.c ****   /* Get security attributes of the destination */
1178:external/drivers/stm32wlxx/src/stm32wlxx_hal_dma.c ****   attributes |= ((read_attributes & DMA_CCR_DSEC) == 0U) ? DMA_CHANNEL_DEST_NSEC : DMA_CHANNEL_DEST
1179:external/drivers/stm32wlxx/src/stm32wlxx_hal_dma.c **** 
1180:external/drivers/stm32wlxx/src/stm32wlxx_hal_dma.c **** #else
1181:external/drivers/stm32wlxx/src/stm32wlxx_hal_dma.c **** 
1182:external/drivers/stm32wlxx/src/stm32wlxx_hal_dma.c ****   /* Get secure or non-secure attributes */
1183:external/drivers/stm32wlxx/src/stm32wlxx_hal_dma.c ****   read_attributes = READ_BIT(hdma->Instance->CCR, DMA_CCR_PRIV | DMA_CCR_SECM);
1184:external/drivers/stm32wlxx/src/stm32wlxx_hal_dma.c **** 
1185:external/drivers/stm32wlxx/src/stm32wlxx_hal_dma.c ****   /* Get privilege attributes */
1186:external/drivers/stm32wlxx/src/stm32wlxx_hal_dma.c ****   attributes = ((read_attributes & DMA_CCR_PRIV) == 0U) ? DMA_CHANNEL_NPRIV : DMA_CHANNEL_PRIV;
1187:external/drivers/stm32wlxx/src/stm32wlxx_hal_dma.c **** 
1188:external/drivers/stm32wlxx/src/stm32wlxx_hal_dma.c ****   /* Get security attributes */
1189:external/drivers/stm32wlxx/src/stm32wlxx_hal_dma.c ****   attributes |= ((read_attributes & DMA_CCR_SECM) == 0U) ? DMA_CHANNEL_NSEC : DMA_CHANNEL_SEC;
1190:external/drivers/stm32wlxx/src/stm32wlxx_hal_dma.c **** #endif /* CORE_CM0PLUS */
1191:external/drivers/stm32wlxx/src/stm32wlxx_hal_dma.c **** 
1192:external/drivers/stm32wlxx/src/stm32wlxx_hal_dma.c ****   /* return value */
1193:external/drivers/stm32wlxx/src/stm32wlxx_hal_dma.c ****   *ChannelAttributes = attributes;
1194:external/drivers/stm32wlxx/src/stm32wlxx_hal_dma.c **** 
1195:external/drivers/stm32wlxx/src/stm32wlxx_hal_dma.c ****   return HAL_OK;
1196:external/drivers/stm32wlxx/src/stm32wlxx_hal_dma.c **** }
1197:external/drivers/stm32wlxx/src/stm32wlxx_hal_dma.c **** #endif /* DMA_SECURE_SWITCH */
1198:external/drivers/stm32wlxx/src/stm32wlxx_hal_dma.c **** /** @addtogroup DMA_Private_Functions
1199:external/drivers/stm32wlxx/src/stm32wlxx_hal_dma.c ****   * @{
1200:external/drivers/stm32wlxx/src/stm32wlxx_hal_dma.c ****   */
1201:external/drivers/stm32wlxx/src/stm32wlxx_hal_dma.c **** 
1202:external/drivers/stm32wlxx/src/stm32wlxx_hal_dma.c **** /**
1203:external/drivers/stm32wlxx/src/stm32wlxx_hal_dma.c ****   * @brief Sets the DMA Transfer parameter.
1204:external/drivers/stm32wlxx/src/stm32wlxx_hal_dma.c ****   * @param hdma Pointer to a DMA_HandleTypeDef structure that contains
1205:external/drivers/stm32wlxx/src/stm32wlxx_hal_dma.c ****   *             the configuration information for the specified DMA Channel.
1206:external/drivers/stm32wlxx/src/stm32wlxx_hal_dma.c ****   * @param SrcAddress The source memory Buffer address
1207:external/drivers/stm32wlxx/src/stm32wlxx_hal_dma.c ****   * @param DstAddress The destination memory Buffer address
1208:external/drivers/stm32wlxx/src/stm32wlxx_hal_dma.c ****   * @param DataLength The length of data to be transferred from source to destination
1209:external/drivers/stm32wlxx/src/stm32wlxx_hal_dma.c ****   * @retval HAL status
1210:external/drivers/stm32wlxx/src/stm32wlxx_hal_dma.c ****   */
1211:external/drivers/stm32wlxx/src/stm32wlxx_hal_dma.c **** static void DMA_SetConfig(DMA_HandleTypeDef *hdma, uint32_t SrcAddress, uint32_t DstAddress, uint32
1212:external/drivers/stm32wlxx/src/stm32wlxx_hal_dma.c **** {
  27              		.loc 1 1212 1 view -0
  28              		.cfi_startproc
  29              		@ args = 0, pretend = 0, frame = 0
  30              		@ frame_needed = 0, uses_anonymous_args = 0
  31              		@ link register save eliminated.
  32              		.loc 1 1212 1 is_stmt 0 view .LVU1
  33 0000 10B4     		push	{r4}
  34              	.LCFI0:
  35              		.cfi_def_cfa_offset 4
  36              		.cfi_offset 4, -4
1213:external/drivers/stm32wlxx/src/stm32wlxx_hal_dma.c ****   /* Clear the DMAMUX synchro overrun flag */
1214:external/drivers/stm32wlxx/src/stm32wlxx_hal_dma.c ****   hdma->DMAmuxChannelStatus->CFR = hdma->DMAmuxChannelStatusMask;
  37              		.loc 1 1214 3 is_stmt 1 view .LVU2
  38              		.loc 1 1214 7 is_stmt 0 view .LVU3
  39 0002 C46C     		ldr	r4, [r0, #76]
  40              		.loc 1 1214 34 view .LVU4
  41 0004 D0F850C0 		ldr	ip, [r0, #80]
ARM GAS  /tmp/ccmjCdRm.s 			page 23


  42 0008 C4F804C0 		str	ip, [r4, #4]
1215:external/drivers/stm32wlxx/src/stm32wlxx_hal_dma.c **** 
1216:external/drivers/stm32wlxx/src/stm32wlxx_hal_dma.c ****   if (hdma->DMAmuxRequestGen != NULL)
  43              		.loc 1 1216 3 is_stmt 1 view .LVU5
  44              		.loc 1 1216 11 is_stmt 0 view .LVU6
  45 000c 446D     		ldr	r4, [r0, #84]
  46              		.loc 1 1216 6 view .LVU7
  47 000e 24B1     		cbz	r4, .L2
1217:external/drivers/stm32wlxx/src/stm32wlxx_hal_dma.c ****   {
1218:external/drivers/stm32wlxx/src/stm32wlxx_hal_dma.c ****     /* Clear the DMAMUX request generator overrun flag */
1219:external/drivers/stm32wlxx/src/stm32wlxx_hal_dma.c ****     hdma->DMAmuxRequestGenStatus->RGCFR = hdma->DMAmuxRequestGenStatusMask;
  48              		.loc 1 1219 5 is_stmt 1 view .LVU8
  49              		.loc 1 1219 9 is_stmt 0 view .LVU9
  50 0010 846D     		ldr	r4, [r0, #88]
  51              		.loc 1 1219 41 view .LVU10
  52 0012 D0F85CC0 		ldr	ip, [r0, #92]
  53 0016 C4F804C0 		str	ip, [r4, #4]
  54              	.L2:
1220:external/drivers/stm32wlxx/src/stm32wlxx_hal_dma.c ****   }
1221:external/drivers/stm32wlxx/src/stm32wlxx_hal_dma.c **** 
1222:external/drivers/stm32wlxx/src/stm32wlxx_hal_dma.c ****   /* Clear all flags */
1223:external/drivers/stm32wlxx/src/stm32wlxx_hal_dma.c ****   hdma->DmaBaseAddress->IFCR = (DMA_ISR_GIF1 << (hdma->ChannelIndex & 0x1CU));
  55              		.loc 1 1223 3 is_stmt 1 view .LVU11
  56              		.loc 1 1223 54 is_stmt 0 view .LVU12
  57 001a 446C     		ldr	r4, [r0, #68]
  58              		.loc 1 1223 69 view .LVU13
  59 001c 04F01C0C 		and	ip, r4, #28
  60              		.loc 1 1223 46 view .LVU14
  61 0020 0124     		movs	r4, #1
  62 0022 04FA0CF4 		lsl	r4, r4, ip
  63              		.loc 1 1223 30 view .LVU15
  64 0026 D0F840C0 		ldr	ip, [r0, #64]
  65 002a CCF80440 		str	r4, [ip, #4]
1224:external/drivers/stm32wlxx/src/stm32wlxx_hal_dma.c **** 
1225:external/drivers/stm32wlxx/src/stm32wlxx_hal_dma.c ****   /* Configure DMA Channel data length */
1226:external/drivers/stm32wlxx/src/stm32wlxx_hal_dma.c ****   hdma->Instance->CNDTR = DataLength;
  66              		.loc 1 1226 3 is_stmt 1 view .LVU16
  67              		.loc 1 1226 7 is_stmt 0 view .LVU17
  68 002e 0468     		ldr	r4, [r0]
  69              		.loc 1 1226 25 view .LVU18
  70 0030 6360     		str	r3, [r4, #4]
1227:external/drivers/stm32wlxx/src/stm32wlxx_hal_dma.c **** 
1228:external/drivers/stm32wlxx/src/stm32wlxx_hal_dma.c ****   /* Memory to Peripheral */
1229:external/drivers/stm32wlxx/src/stm32wlxx_hal_dma.c ****   if ((hdma->Init.Direction) == DMA_MEMORY_TO_PERIPH)
  71              		.loc 1 1229 3 is_stmt 1 view .LVU19
  72              		.loc 1 1229 18 is_stmt 0 view .LVU20
  73 0032 8368     		ldr	r3, [r0, #8]
  74              	.LVL1:
  75              		.loc 1 1229 6 view .LVU21
  76 0034 102B     		cmp	r3, #16
  77 0036 05D0     		beq	.L6
1230:external/drivers/stm32wlxx/src/stm32wlxx_hal_dma.c ****   {
1231:external/drivers/stm32wlxx/src/stm32wlxx_hal_dma.c ****     /* Configure DMA Channel destination address */
1232:external/drivers/stm32wlxx/src/stm32wlxx_hal_dma.c ****     hdma->Instance->CPAR = DstAddress;
1233:external/drivers/stm32wlxx/src/stm32wlxx_hal_dma.c **** 
1234:external/drivers/stm32wlxx/src/stm32wlxx_hal_dma.c ****     /* Configure DMA Channel source address */
1235:external/drivers/stm32wlxx/src/stm32wlxx_hal_dma.c ****     hdma->Instance->CMAR = SrcAddress;
ARM GAS  /tmp/ccmjCdRm.s 			page 24


1236:external/drivers/stm32wlxx/src/stm32wlxx_hal_dma.c ****   }
1237:external/drivers/stm32wlxx/src/stm32wlxx_hal_dma.c ****   /* Peripheral to Memory */
1238:external/drivers/stm32wlxx/src/stm32wlxx_hal_dma.c ****   else
1239:external/drivers/stm32wlxx/src/stm32wlxx_hal_dma.c ****   {
1240:external/drivers/stm32wlxx/src/stm32wlxx_hal_dma.c ****     /* Configure DMA Channel source address */
1241:external/drivers/stm32wlxx/src/stm32wlxx_hal_dma.c ****     hdma->Instance->CPAR = SrcAddress;
  78              		.loc 1 1241 5 is_stmt 1 view .LVU22
  79              		.loc 1 1241 9 is_stmt 0 view .LVU23
  80 0038 0368     		ldr	r3, [r0]
  81              		.loc 1 1241 26 view .LVU24
  82 003a 9960     		str	r1, [r3, #8]
  83              	.LVL2:
1242:external/drivers/stm32wlxx/src/stm32wlxx_hal_dma.c **** 
1243:external/drivers/stm32wlxx/src/stm32wlxx_hal_dma.c ****     /* Configure DMA Channel destination address */
1244:external/drivers/stm32wlxx/src/stm32wlxx_hal_dma.c ****     hdma->Instance->CMAR = DstAddress;
  84              		.loc 1 1244 5 is_stmt 1 view .LVU25
  85              		.loc 1 1244 9 is_stmt 0 view .LVU26
  86 003c 0368     		ldr	r3, [r0]
  87              		.loc 1 1244 26 view .LVU27
  88 003e DA60     		str	r2, [r3, #12]
  89              	.L1:
1245:external/drivers/stm32wlxx/src/stm32wlxx_hal_dma.c ****   }
1246:external/drivers/stm32wlxx/src/stm32wlxx_hal_dma.c **** }
  90              		.loc 1 1246 1 view .LVU28
  91 0040 10BC     		pop	{r4}
  92              	.LCFI1:
  93              		.cfi_remember_state
  94              		.cfi_restore 4
  95              		.cfi_def_cfa_offset 0
  96 0042 7047     		bx	lr
  97              	.LVL3:
  98              	.L6:
  99              	.LCFI2:
 100              		.cfi_restore_state
1232:external/drivers/stm32wlxx/src/stm32wlxx_hal_dma.c **** 
 101              		.loc 1 1232 5 is_stmt 1 view .LVU29
1232:external/drivers/stm32wlxx/src/stm32wlxx_hal_dma.c **** 
 102              		.loc 1 1232 9 is_stmt 0 view .LVU30
 103 0044 0368     		ldr	r3, [r0]
1232:external/drivers/stm32wlxx/src/stm32wlxx_hal_dma.c **** 
 104              		.loc 1 1232 26 view .LVU31
 105 0046 9A60     		str	r2, [r3, #8]
 106              	.LVL4:
1235:external/drivers/stm32wlxx/src/stm32wlxx_hal_dma.c ****   }
 107              		.loc 1 1235 5 is_stmt 1 view .LVU32
1235:external/drivers/stm32wlxx/src/stm32wlxx_hal_dma.c ****   }
 108              		.loc 1 1235 9 is_stmt 0 view .LVU33
 109 0048 0368     		ldr	r3, [r0]
1235:external/drivers/stm32wlxx/src/stm32wlxx_hal_dma.c ****   }
 110              		.loc 1 1235 26 view .LVU34
 111 004a D960     		str	r1, [r3, #12]
 112 004c F8E7     		b	.L1
 113              		.cfi_endproc
 114              	.LFE856:
 116              		.section	.text.DMA_CalcDMAMUXChannelBaseAndMask,"ax",%progbits
 117              		.align	1
 118              		.syntax unified
ARM GAS  /tmp/ccmjCdRm.s 			page 25


 119              		.thumb
 120              		.thumb_func
 122              	DMA_CalcDMAMUXChannelBaseAndMask:
 123              	.LVL5:
 124              	.LFB857:
1247:external/drivers/stm32wlxx/src/stm32wlxx_hal_dma.c **** 
1248:external/drivers/stm32wlxx/src/stm32wlxx_hal_dma.c **** /**
1249:external/drivers/stm32wlxx/src/stm32wlxx_hal_dma.c ****   * @brief Updates the DMA handle with the DMAMUX  channel and status mask depending on channel num
1250:external/drivers/stm32wlxx/src/stm32wlxx_hal_dma.c ****   * @param hdma Pointer to a DMA_HandleTypeDef structure that contains
1251:external/drivers/stm32wlxx/src/stm32wlxx_hal_dma.c ****   *             the configuration information for the specified DMA Channel.
1252:external/drivers/stm32wlxx/src/stm32wlxx_hal_dma.c ****   * @retval None
1253:external/drivers/stm32wlxx/src/stm32wlxx_hal_dma.c ****   */
1254:external/drivers/stm32wlxx/src/stm32wlxx_hal_dma.c **** static void DMA_CalcDMAMUXChannelBaseAndMask(DMA_HandleTypeDef *hdma)
1255:external/drivers/stm32wlxx/src/stm32wlxx_hal_dma.c **** {
 125              		.loc 1 1255 1 is_stmt 1 view -0
 126              		.cfi_startproc
 127              		@ args = 0, pretend = 0, frame = 0
 128              		@ frame_needed = 0, uses_anonymous_args = 0
 129              		@ link register save eliminated.
1256:external/drivers/stm32wlxx/src/stm32wlxx_hal_dma.c ****   uint32_t channel_number;
 130              		.loc 1 1256 3 view .LVU36
1257:external/drivers/stm32wlxx/src/stm32wlxx_hal_dma.c **** 
1258:external/drivers/stm32wlxx/src/stm32wlxx_hal_dma.c ****   /* check if instance is not outside the DMA channel range */
1259:external/drivers/stm32wlxx/src/stm32wlxx_hal_dma.c ****   if ((uint32_t)hdma->Instance < (uint32_t)DMA2_Channel1)
 131              		.loc 1 1259 3 view .LVU37
 132              		.loc 1 1259 21 is_stmt 0 view .LVU38
 133 0000 0368     		ldr	r3, [r0]
 134              		.loc 1 1259 6 view .LVU39
 135 0002 144A     		ldr	r2, .L10
 136 0004 9342     		cmp	r3, r2
 137 0006 16D8     		bhi	.L8
1260:external/drivers/stm32wlxx/src/stm32wlxx_hal_dma.c ****   {
1261:external/drivers/stm32wlxx/src/stm32wlxx_hal_dma.c ****     /* DMA1 */
1262:external/drivers/stm32wlxx/src/stm32wlxx_hal_dma.c ****     /* Associate a DMA Channel to a DMAMUX channel */
1263:external/drivers/stm32wlxx/src/stm32wlxx_hal_dma.c ****     hdma->DMAmuxChannel = (DMAMUX1_Channel0 + (hdma->ChannelIndex >> 2U));
 138              		.loc 1 1263 5 is_stmt 1 view .LVU40
 139              		.loc 1 1263 52 is_stmt 0 view .LVU41
 140 0008 426C     		ldr	r2, [r0, #68]
 141              		.loc 1 1263 45 view .LVU42
 142 000a 22F00302 		bic	r2, r2, #3
 143 000e 02F18042 		add	r2, r2, #1073741824
 144 0012 02F50232 		add	r2, r2, #133120
 145              		.loc 1 1263 25 view .LVU43
 146 0016 8264     		str	r2, [r0, #72]
1264:external/drivers/stm32wlxx/src/stm32wlxx_hal_dma.c **** 
1265:external/drivers/stm32wlxx/src/stm32wlxx_hal_dma.c ****     /* Prepare channel_number used for DMAmuxChannelStatusMask computation */
1266:external/drivers/stm32wlxx/src/stm32wlxx_hal_dma.c ****     channel_number = (((uint32_t)hdma->Instance & 0xFFU) - 8U) / 20U;
 147              		.loc 1 1266 5 is_stmt 1 view .LVU44
 148              		.loc 1 1266 49 is_stmt 0 view .LVU45
 149 0018 DBB2     		uxtb	r3, r3
 150              		.loc 1 1266 58 view .LVU46
 151 001a 083B     		subs	r3, r3, #8
 152              		.loc 1 1266 20 view .LVU47
 153 001c 0E4A     		ldr	r2, .L10+4
 154 001e A2FB0323 		umull	r2, r3, r2, r3
 155 0022 1B09     		lsrs	r3, r3, #4
 156              	.LVL6:
ARM GAS  /tmp/ccmjCdRm.s 			page 26


 157              	.L9:
1267:external/drivers/stm32wlxx/src/stm32wlxx_hal_dma.c ****   }
1268:external/drivers/stm32wlxx/src/stm32wlxx_hal_dma.c ****   else
1269:external/drivers/stm32wlxx/src/stm32wlxx_hal_dma.c ****   {
1270:external/drivers/stm32wlxx/src/stm32wlxx_hal_dma.c ****     /* DMA2 */
1271:external/drivers/stm32wlxx/src/stm32wlxx_hal_dma.c ****     /* Associate a DMA Channel to a DMAMUX channel */
1272:external/drivers/stm32wlxx/src/stm32wlxx_hal_dma.c ****     hdma->DMAmuxChannel = (DMAMUX1_Channel7 + (hdma->ChannelIndex >> 2U));
1273:external/drivers/stm32wlxx/src/stm32wlxx_hal_dma.c **** 
1274:external/drivers/stm32wlxx/src/stm32wlxx_hal_dma.c ****     /* Prepare channel_number used for DMAmuxChannelStatusMask computation */
1275:external/drivers/stm32wlxx/src/stm32wlxx_hal_dma.c ****     channel_number = (((((uint32_t)hdma->Instance & 0xFFU) - 8U) / 20U) + 7U);
1276:external/drivers/stm32wlxx/src/stm32wlxx_hal_dma.c ****   }
1277:external/drivers/stm32wlxx/src/stm32wlxx_hal_dma.c **** 
1278:external/drivers/stm32wlxx/src/stm32wlxx_hal_dma.c ****   /* Initialize the field DMAmuxChannelStatus to DMAMUX1_ChannelStatus base */
1279:external/drivers/stm32wlxx/src/stm32wlxx_hal_dma.c ****   hdma->DMAmuxChannelStatus = DMAMUX1_ChannelStatus;
 158              		.loc 1 1279 3 is_stmt 1 view .LVU48
 159              		.loc 1 1279 29 is_stmt 0 view .LVU49
 160 0024 0D4A     		ldr	r2, .L10+8
 161 0026 C264     		str	r2, [r0, #76]
1280:external/drivers/stm32wlxx/src/stm32wlxx_hal_dma.c **** 
1281:external/drivers/stm32wlxx/src/stm32wlxx_hal_dma.c ****   /* Initialize the field DMAmuxChannelStatusMask with the corresponding index of the DMAMUX channe
1282:external/drivers/stm32wlxx/src/stm32wlxx_hal_dma.c ****   hdma->DMAmuxChannelStatusMask = 1UL << (channel_number & 0x1FU);
 162              		.loc 1 1282 3 is_stmt 1 view .LVU50
 163              		.loc 1 1282 58 is_stmt 0 view .LVU51
 164 0028 03F01F03 		and	r3, r3, #31
 165              	.LVL7:
 166              		.loc 1 1282 39 view .LVU52
 167 002c 0122     		movs	r2, #1
 168 002e 02FA03F3 		lsl	r3, r2, r3
 169              		.loc 1 1282 33 view .LVU53
 170 0032 0365     		str	r3, [r0, #80]
1283:external/drivers/stm32wlxx/src/stm32wlxx_hal_dma.c **** }
 171              		.loc 1 1283 1 view .LVU54
 172 0034 7047     		bx	lr
 173              	.LVL8:
 174              	.L8:
1272:external/drivers/stm32wlxx/src/stm32wlxx_hal_dma.c **** 
 175              		.loc 1 1272 5 is_stmt 1 view .LVU55
1272:external/drivers/stm32wlxx/src/stm32wlxx_hal_dma.c **** 
 176              		.loc 1 1272 52 is_stmt 0 view .LVU56
 177 0036 426C     		ldr	r2, [r0, #68]
1272:external/drivers/stm32wlxx/src/stm32wlxx_hal_dma.c **** 
 178              		.loc 1 1272 45 view .LVU57
 179 0038 22F00301 		bic	r1, r2, #3
 180 003c 084A     		ldr	r2, .L10+12
 181 003e 0A44     		add	r2, r2, r1
1272:external/drivers/stm32wlxx/src/stm32wlxx_hal_dma.c **** 
 182              		.loc 1 1272 25 view .LVU58
 183 0040 8264     		str	r2, [r0, #72]
1275:external/drivers/stm32wlxx/src/stm32wlxx_hal_dma.c ****   }
 184              		.loc 1 1275 5 is_stmt 1 view .LVU59
1275:external/drivers/stm32wlxx/src/stm32wlxx_hal_dma.c ****   }
 185              		.loc 1 1275 51 is_stmt 0 view .LVU60
 186 0042 DBB2     		uxtb	r3, r3
1275:external/drivers/stm32wlxx/src/stm32wlxx_hal_dma.c ****   }
 187              		.loc 1 1275 60 view .LVU61
 188 0044 083B     		subs	r3, r3, #8
1275:external/drivers/stm32wlxx/src/stm32wlxx_hal_dma.c ****   }
ARM GAS  /tmp/ccmjCdRm.s 			page 27


 189              		.loc 1 1275 66 view .LVU62
 190 0046 044A     		ldr	r2, .L10+4
 191 0048 A2FB0323 		umull	r2, r3, r2, r3
 192 004c 1B09     		lsrs	r3, r3, #4
1275:external/drivers/stm32wlxx/src/stm32wlxx_hal_dma.c ****   }
 193              		.loc 1 1275 20 view .LVU63
 194 004e 0733     		adds	r3, r3, #7
 195              	.LVL9:
1275:external/drivers/stm32wlxx/src/stm32wlxx_hal_dma.c ****   }
 196              		.loc 1 1275 20 view .LVU64
 197 0050 E8E7     		b	.L9
 198              	.L11:
 199 0052 00BF     		.align	2
 200              	.L10:
 201 0054 07040240 		.word	1073873927
 202 0058 CDCCCCCC 		.word	-858993459
 203 005c 80080240 		.word	1073875072
 204 0060 1C080240 		.word	1073874972
 205              		.cfi_endproc
 206              	.LFE857:
 208              		.section	.text.DMA_CalcDMAMUXRequestGenBaseAndMask,"ax",%progbits
 209              		.align	1
 210              		.syntax unified
 211              		.thumb
 212              		.thumb_func
 214              	DMA_CalcDMAMUXRequestGenBaseAndMask:
 215              	.LVL10:
 216              	.LFB858:
1284:external/drivers/stm32wlxx/src/stm32wlxx_hal_dma.c **** 
1285:external/drivers/stm32wlxx/src/stm32wlxx_hal_dma.c **** /**
1286:external/drivers/stm32wlxx/src/stm32wlxx_hal_dma.c ****   * @brief Updates the DMA handle with the DMAMUX  request generator params
1287:external/drivers/stm32wlxx/src/stm32wlxx_hal_dma.c ****   * @param hdma Pointer to a DMA_HandleTypeDef structure that contains
1288:external/drivers/stm32wlxx/src/stm32wlxx_hal_dma.c ****   *             the configuration information for the specified DMA Channel.
1289:external/drivers/stm32wlxx/src/stm32wlxx_hal_dma.c ****   * @retval None
1290:external/drivers/stm32wlxx/src/stm32wlxx_hal_dma.c ****   */
1291:external/drivers/stm32wlxx/src/stm32wlxx_hal_dma.c **** 
1292:external/drivers/stm32wlxx/src/stm32wlxx_hal_dma.c **** static void DMA_CalcDMAMUXRequestGenBaseAndMask(DMA_HandleTypeDef *hdma)
1293:external/drivers/stm32wlxx/src/stm32wlxx_hal_dma.c **** {
 217              		.loc 1 1293 1 is_stmt 1 view -0
 218              		.cfi_startproc
 219              		@ args = 0, pretend = 0, frame = 0
 220              		@ frame_needed = 0, uses_anonymous_args = 0
 221              		@ link register save eliminated.
1294:external/drivers/stm32wlxx/src/stm32wlxx_hal_dma.c ****   uint32_t request =  hdma->Init.Request & DMAMUX_CxCR_DMAREQ_ID;
 222              		.loc 1 1294 3 view .LVU66
 223              		.loc 1 1294 33 is_stmt 0 view .LVU67
 224 0000 4368     		ldr	r3, [r0, #4]
 225              		.loc 1 1294 12 view .LVU68
 226 0002 03F07F03 		and	r3, r3, #127
 227              	.LVL11:
1295:external/drivers/stm32wlxx/src/stm32wlxx_hal_dma.c **** 
1296:external/drivers/stm32wlxx/src/stm32wlxx_hal_dma.c ****   /* DMA Channels are connected to DMAMUX1 request generator blocks*/
1297:external/drivers/stm32wlxx/src/stm32wlxx_hal_dma.c ****   hdma->DMAmuxRequestGen = (DMAMUX_RequestGen_TypeDef *)((uint32_t)(((uint32_t)DMAMUX1_RequestGener
 228              		.loc 1 1297 3 is_stmt 1 view .LVU69
 229              		.loc 1 1297 58 is_stmt 0 view .LVU70
 230 0006 074A     		ldr	r2, .L13
 231 0008 1A44     		add	r2, r2, r3
ARM GAS  /tmp/ccmjCdRm.s 			page 28


 232 000a 9200     		lsls	r2, r2, #2
 233              		.loc 1 1297 26 view .LVU71
 234 000c 4265     		str	r2, [r0, #84]
1298:external/drivers/stm32wlxx/src/stm32wlxx_hal_dma.c **** 
1299:external/drivers/stm32wlxx/src/stm32wlxx_hal_dma.c ****   hdma->DMAmuxRequestGenStatus = DMAMUX1_RequestGenStatus;
 235              		.loc 1 1299 3 is_stmt 1 view .LVU72
 236              		.loc 1 1299 32 is_stmt 0 view .LVU73
 237 000e 064A     		ldr	r2, .L13+4
 238 0010 8265     		str	r2, [r0, #88]
1300:external/drivers/stm32wlxx/src/stm32wlxx_hal_dma.c **** 
1301:external/drivers/stm32wlxx/src/stm32wlxx_hal_dma.c ****   /* here "Request" is either DMA_REQUEST_GENERATOR0 to DMA_REQUEST_GENERATOR3, i.e. <= 4*/
1302:external/drivers/stm32wlxx/src/stm32wlxx_hal_dma.c ****   hdma->DMAmuxRequestGenStatusMask = 1UL << ((request - 1U) & 0x3U);
 239              		.loc 1 1302 3 is_stmt 1 view .LVU74
 240              		.loc 1 1302 55 is_stmt 0 view .LVU75
 241 0012 013B     		subs	r3, r3, #1
 242              	.LVL12:
 243              		.loc 1 1302 61 view .LVU76
 244 0014 03F00303 		and	r3, r3, #3
 245              	.LVL13:
 246              		.loc 1 1302 42 view .LVU77
 247 0018 0122     		movs	r2, #1
 248 001a 02FA03F3 		lsl	r3, r2, r3
 249              		.loc 1 1302 36 view .LVU78
 250 001e C365     		str	r3, [r0, #92]
1303:external/drivers/stm32wlxx/src/stm32wlxx_hal_dma.c **** }
 251              		.loc 1 1303 1 view .LVU79
 252 0020 7047     		bx	lr
 253              	.L14:
 254 0022 00BF     		.align	2
 255              	.L13:
 256 0024 3F820010 		.word	268468799
 257 0028 40090240 		.word	1073875264
 258              		.cfi_endproc
 259              	.LFE858:
 261              		.section	.text.HAL_DMA_Init,"ax",%progbits
 262              		.align	1
 263              		.global	HAL_DMA_Init
 264              		.syntax unified
 265              		.thumb
 266              		.thumb_func
 268              	HAL_DMA_Init:
 269              	.LVL14:
 270              	.LFB844:
 154:external/drivers/stm32wlxx/src/stm32wlxx_hal_dma.c ****   /* Check the DMA handle allocation */
 271              		.loc 1 154 1 is_stmt 1 view -0
 272              		.cfi_startproc
 273              		@ args = 0, pretend = 0, frame = 0
 274              		@ frame_needed = 0, uses_anonymous_args = 0
 156:external/drivers/stm32wlxx/src/stm32wlxx_hal_dma.c ****   {
 275              		.loc 1 156 3 view .LVU81
 156:external/drivers/stm32wlxx/src/stm32wlxx_hal_dma.c ****   {
 276              		.loc 1 156 6 is_stmt 0 view .LVU82
 277 0000 0028     		cmp	r0, #0
 278 0002 5ED0     		beq	.L22
 154:external/drivers/stm32wlxx/src/stm32wlxx_hal_dma.c ****   /* Check the DMA handle allocation */
 279              		.loc 1 154 1 view .LVU83
 280 0004 10B5     		push	{r4, lr}
ARM GAS  /tmp/ccmjCdRm.s 			page 29


 281              	.LCFI3:
 282              		.cfi_def_cfa_offset 8
 283              		.cfi_offset 4, -8
 284              		.cfi_offset 14, -4
 285 0006 0446     		mov	r4, r0
 162:external/drivers/stm32wlxx/src/stm32wlxx_hal_dma.c ****   assert_param(IS_DMA_DIRECTION(hdma->Init.Direction));
 286              		.loc 1 162 3 is_stmt 1 view .LVU84
 163:external/drivers/stm32wlxx/src/stm32wlxx_hal_dma.c ****   assert_param(IS_DMA_PERIPHERAL_INC_STATE(hdma->Init.PeriphInc));
 287              		.loc 1 163 3 view .LVU85
 164:external/drivers/stm32wlxx/src/stm32wlxx_hal_dma.c ****   assert_param(IS_DMA_MEMORY_INC_STATE(hdma->Init.MemInc));
 288              		.loc 1 164 3 view .LVU86
 165:external/drivers/stm32wlxx/src/stm32wlxx_hal_dma.c ****   assert_param(IS_DMA_PERIPHERAL_DATA_SIZE(hdma->Init.PeriphDataAlignment));
 289              		.loc 1 165 3 view .LVU87
 166:external/drivers/stm32wlxx/src/stm32wlxx_hal_dma.c ****   assert_param(IS_DMA_MEMORY_DATA_SIZE(hdma->Init.MemDataAlignment));
 290              		.loc 1 166 3 view .LVU88
 167:external/drivers/stm32wlxx/src/stm32wlxx_hal_dma.c ****   assert_param(IS_DMA_MODE(hdma->Init.Mode));
 291              		.loc 1 167 3 view .LVU89
 168:external/drivers/stm32wlxx/src/stm32wlxx_hal_dma.c ****   assert_param(IS_DMA_PRIORITY(hdma->Init.Priority));
 292              		.loc 1 168 3 view .LVU90
 169:external/drivers/stm32wlxx/src/stm32wlxx_hal_dma.c **** 
 293              		.loc 1 169 3 view .LVU91
 171:external/drivers/stm32wlxx/src/stm32wlxx_hal_dma.c **** 
 294              		.loc 1 171 3 view .LVU92
 174:external/drivers/stm32wlxx/src/stm32wlxx_hal_dma.c ****   {
 295              		.loc 1 174 3 view .LVU93
 174:external/drivers/stm32wlxx/src/stm32wlxx_hal_dma.c ****   {
 296              		.loc 1 174 22 is_stmt 0 view .LVU94
 297 0008 0368     		ldr	r3, [r0]
 174:external/drivers/stm32wlxx/src/stm32wlxx_hal_dma.c ****   {
 298              		.loc 1 174 6 view .LVU95
 299 000a 2F4A     		ldr	r2, .L29
 300 000c 9342     		cmp	r3, r2
 301 000e 40D8     		bhi	.L17
 177:external/drivers/stm32wlxx/src/stm32wlxx_hal_dma.c ****     hdma->DmaBaseAddress = DMA1;
 302              		.loc 1 177 5 is_stmt 1 view .LVU96
 177:external/drivers/stm32wlxx/src/stm32wlxx_hal_dma.c ****     hdma->DmaBaseAddress = DMA1;
 303              		.loc 1 177 53 is_stmt 0 view .LVU97
 304 0010 2E4A     		ldr	r2, .L29+4
 305 0012 1A44     		add	r2, r2, r3
 177:external/drivers/stm32wlxx/src/stm32wlxx_hal_dma.c ****     hdma->DmaBaseAddress = DMA1;
 306              		.loc 1 177 80 view .LVU98
 307 0014 2E49     		ldr	r1, .L29+8
 308 0016 A1FB0212 		umull	r1, r2, r1, r2
 309 001a 1209     		lsrs	r2, r2, #4
 177:external/drivers/stm32wlxx/src/stm32wlxx_hal_dma.c ****     hdma->DmaBaseAddress = DMA1;
 310              		.loc 1 177 135 view .LVU99
 311 001c 9200     		lsls	r2, r2, #2
 177:external/drivers/stm32wlxx/src/stm32wlxx_hal_dma.c ****     hdma->DmaBaseAddress = DMA1;
 312              		.loc 1 177 24 view .LVU100
 313 001e 4264     		str	r2, [r0, #68]
 178:external/drivers/stm32wlxx/src/stm32wlxx_hal_dma.c ****   }
 314              		.loc 1 178 5 is_stmt 1 view .LVU101
 178:external/drivers/stm32wlxx/src/stm32wlxx_hal_dma.c ****   }
 315              		.loc 1 178 26 is_stmt 0 view .LVU102
 316 0020 2C4A     		ldr	r2, .L29+12
 317 0022 0264     		str	r2, [r0, #64]
 318              	.L18:
ARM GAS  /tmp/ccmjCdRm.s 			page 30


 188:external/drivers/stm32wlxx/src/stm32wlxx_hal_dma.c **** 
 319              		.loc 1 188 3 is_stmt 1 view .LVU103
 188:external/drivers/stm32wlxx/src/stm32wlxx_hal_dma.c **** 
 320              		.loc 1 188 15 is_stmt 0 view .LVU104
 321 0024 0222     		movs	r2, #2
 322 0026 84F82520 		strb	r2, [r4, #37]
 191:external/drivers/stm32wlxx/src/stm32wlxx_hal_dma.c ****                                   DMA_CCR_MINC  | DMA_CCR_PINC   | DMA_CCR_CIRC   | \
 323              		.loc 1 191 3 is_stmt 1 view .LVU105
 324 002a 1A68     		ldr	r2, [r3]
 325 002c 6FF30E12 		bfc	r2, #4, #11
 326 0030 1A60     		str	r2, [r3]
 196:external/drivers/stm32wlxx/src/stm32wlxx_hal_dma.c ****                                 hdma->Init.PeriphInc           | hdma->Init.MemInc           | \
 327              		.loc 1 196 3 view .LVU106
 328 0032 2168     		ldr	r1, [r4]
 329 0034 0A68     		ldr	r2, [r1]
 330 0036 A368     		ldr	r3, [r4, #8]
 331 0038 E068     		ldr	r0, [r4, #12]
 332              	.LVL15:
 196:external/drivers/stm32wlxx/src/stm32wlxx_hal_dma.c ****                                 hdma->Init.PeriphInc           | hdma->Init.MemInc           | \
 333              		.loc 1 196 3 is_stmt 0 view .LVU107
 334 003a 0343     		orrs	r3, r3, r0
 335 003c 2069     		ldr	r0, [r4, #16]
 336 003e 0343     		orrs	r3, r3, r0
 337 0040 6069     		ldr	r0, [r4, #20]
 338 0042 0343     		orrs	r3, r3, r0
 339 0044 A069     		ldr	r0, [r4, #24]
 340 0046 0343     		orrs	r3, r3, r0
 341 0048 E069     		ldr	r0, [r4, #28]
 342 004a 0343     		orrs	r3, r3, r0
 343 004c 206A     		ldr	r0, [r4, #32]
 344 004e 0343     		orrs	r3, r3, r0
 345 0050 1343     		orrs	r3, r3, r2
 346 0052 0B60     		str	r3, [r1]
 204:external/drivers/stm32wlxx/src/stm32wlxx_hal_dma.c **** 
 347              		.loc 1 204 3 is_stmt 1 view .LVU108
 348 0054 2046     		mov	r0, r4
 349 0056 FFF7FEFF 		bl	DMA_CalcDMAMUXChannelBaseAndMask
 350              	.LVL16:
 206:external/drivers/stm32wlxx/src/stm32wlxx_hal_dma.c ****   {
 351              		.loc 1 206 3 view .LVU109
 206:external/drivers/stm32wlxx/src/stm32wlxx_hal_dma.c ****   {
 352              		.loc 1 206 17 is_stmt 0 view .LVU110
 353 005a A368     		ldr	r3, [r4, #8]
 206:external/drivers/stm32wlxx/src/stm32wlxx_hal_dma.c ****   {
 354              		.loc 1 206 6 view .LVU111
 355 005c B3F5804F 		cmp	r3, #16384
 356 0060 22D0     		beq	.L27
 357              	.L19:
 213:external/drivers/stm32wlxx/src/stm32wlxx_hal_dma.c **** 
 358              		.loc 1 213 3 is_stmt 1 view .LVU112
 213:external/drivers/stm32wlxx/src/stm32wlxx_hal_dma.c **** 
 359              		.loc 1 213 41 is_stmt 0 view .LVU113
 360 0062 6368     		ldr	r3, [r4, #4]
 213:external/drivers/stm32wlxx/src/stm32wlxx_hal_dma.c **** 
 361              		.loc 1 213 7 view .LVU114
 362 0064 A26C     		ldr	r2, [r4, #72]
 213:external/drivers/stm32wlxx/src/stm32wlxx_hal_dma.c **** 
ARM GAS  /tmp/ccmjCdRm.s 			page 31


 363              		.loc 1 213 50 view .LVU115
 364 0066 03F07F03 		and	r3, r3, #127
 213:external/drivers/stm32wlxx/src/stm32wlxx_hal_dma.c **** 
 365              		.loc 1 213 28 view .LVU116
 366 006a 1360     		str	r3, [r2]
 216:external/drivers/stm32wlxx/src/stm32wlxx_hal_dma.c **** 
 367              		.loc 1 216 3 is_stmt 1 view .LVU117
 216:external/drivers/stm32wlxx/src/stm32wlxx_hal_dma.c **** 
 368              		.loc 1 216 7 is_stmt 0 view .LVU118
 369 006c E36C     		ldr	r3, [r4, #76]
 216:external/drivers/stm32wlxx/src/stm32wlxx_hal_dma.c **** 
 370              		.loc 1 216 40 view .LVU119
 371 006e 226D     		ldr	r2, [r4, #80]
 216:external/drivers/stm32wlxx/src/stm32wlxx_hal_dma.c **** 
 372              		.loc 1 216 34 view .LVU120
 373 0070 5A60     		str	r2, [r3, #4]
 218:external/drivers/stm32wlxx/src/stm32wlxx_hal_dma.c ****   {
 374              		.loc 1 218 3 is_stmt 1 view .LVU121
 218:external/drivers/stm32wlxx/src/stm32wlxx_hal_dma.c ****   {
 375              		.loc 1 218 19 is_stmt 0 view .LVU122
 376 0072 6368     		ldr	r3, [r4, #4]
 218:external/drivers/stm32wlxx/src/stm32wlxx_hal_dma.c ****   {
 377              		.loc 1 218 36 view .LVU123
 378 0074 013B     		subs	r3, r3, #1
 218:external/drivers/stm32wlxx/src/stm32wlxx_hal_dma.c ****   {
 379              		.loc 1 218 6 view .LVU124
 380 0076 032B     		cmp	r3, #3
 381 0078 19D9     		bls	.L28
 233:external/drivers/stm32wlxx/src/stm32wlxx_hal_dma.c ****     hdma->DMAmuxRequestGenStatus = NULL;
 382              		.loc 1 233 5 is_stmt 1 view .LVU125
 233:external/drivers/stm32wlxx/src/stm32wlxx_hal_dma.c ****     hdma->DMAmuxRequestGenStatus = NULL;
 383              		.loc 1 233 28 is_stmt 0 view .LVU126
 384 007a 0023     		movs	r3, #0
 385 007c 6365     		str	r3, [r4, #84]
 234:external/drivers/stm32wlxx/src/stm32wlxx_hal_dma.c ****     hdma->DMAmuxRequestGenStatusMask = 0U;
 386              		.loc 1 234 5 is_stmt 1 view .LVU127
 234:external/drivers/stm32wlxx/src/stm32wlxx_hal_dma.c ****     hdma->DMAmuxRequestGenStatusMask = 0U;
 387              		.loc 1 234 34 is_stmt 0 view .LVU128
 388 007e A365     		str	r3, [r4, #88]
 235:external/drivers/stm32wlxx/src/stm32wlxx_hal_dma.c ****   }
 389              		.loc 1 235 5 is_stmt 1 view .LVU129
 235:external/drivers/stm32wlxx/src/stm32wlxx_hal_dma.c ****   }
 390              		.loc 1 235 38 is_stmt 0 view .LVU130
 391 0080 E365     		str	r3, [r4, #92]
 392              	.L21:
 239:external/drivers/stm32wlxx/src/stm32wlxx_hal_dma.c **** 
 393              		.loc 1 239 3 is_stmt 1 view .LVU131
 239:external/drivers/stm32wlxx/src/stm32wlxx_hal_dma.c **** 
 394              		.loc 1 239 19 is_stmt 0 view .LVU132
 395 0082 0020     		movs	r0, #0
 396 0084 E063     		str	r0, [r4, #60]
 242:external/drivers/stm32wlxx/src/stm32wlxx_hal_dma.c **** 
 397              		.loc 1 242 3 is_stmt 1 view .LVU133
 242:external/drivers/stm32wlxx/src/stm32wlxx_hal_dma.c **** 
 398              		.loc 1 242 15 is_stmt 0 view .LVU134
 399 0086 0123     		movs	r3, #1
 400 0088 84F82530 		strb	r3, [r4, #37]
ARM GAS  /tmp/ccmjCdRm.s 			page 32


 245:external/drivers/stm32wlxx/src/stm32wlxx_hal_dma.c **** 
 401              		.loc 1 245 3 is_stmt 1 view .LVU135
 245:external/drivers/stm32wlxx/src/stm32wlxx_hal_dma.c **** 
 402              		.loc 1 245 3 view .LVU136
 403 008c 84F82400 		strb	r0, [r4, #36]
 245:external/drivers/stm32wlxx/src/stm32wlxx_hal_dma.c **** 
 404              		.loc 1 245 3 view .LVU137
 247:external/drivers/stm32wlxx/src/stm32wlxx_hal_dma.c **** }
 405              		.loc 1 247 3 view .LVU138
 248:external/drivers/stm32wlxx/src/stm32wlxx_hal_dma.c **** 
 406              		.loc 1 248 1 is_stmt 0 view .LVU139
 407 0090 10BD     		pop	{r4, pc}
 408              	.LVL17:
 409              	.L17:
 183:external/drivers/stm32wlxx/src/stm32wlxx_hal_dma.c ****     hdma->DmaBaseAddress = DMA2;
 410              		.loc 1 183 5 is_stmt 1 view .LVU140
 183:external/drivers/stm32wlxx/src/stm32wlxx_hal_dma.c ****     hdma->DmaBaseAddress = DMA2;
 411              		.loc 1 183 53 is_stmt 0 view .LVU141
 412 0092 114A     		ldr	r2, .L29+16
 413 0094 1A44     		add	r2, r2, r3
 183:external/drivers/stm32wlxx/src/stm32wlxx_hal_dma.c ****     hdma->DmaBaseAddress = DMA2;
 414              		.loc 1 183 80 view .LVU142
 415 0096 0E49     		ldr	r1, .L29+8
 416 0098 A1FB0212 		umull	r1, r2, r1, r2
 417 009c 1209     		lsrs	r2, r2, #4
 183:external/drivers/stm32wlxx/src/stm32wlxx_hal_dma.c ****     hdma->DmaBaseAddress = DMA2;
 418              		.loc 1 183 135 view .LVU143
 419 009e 9200     		lsls	r2, r2, #2
 183:external/drivers/stm32wlxx/src/stm32wlxx_hal_dma.c ****     hdma->DmaBaseAddress = DMA2;
 420              		.loc 1 183 24 view .LVU144
 421 00a0 4264     		str	r2, [r0, #68]
 184:external/drivers/stm32wlxx/src/stm32wlxx_hal_dma.c ****   }
 422              		.loc 1 184 5 is_stmt 1 view .LVU145
 184:external/drivers/stm32wlxx/src/stm32wlxx_hal_dma.c ****   }
 423              		.loc 1 184 26 is_stmt 0 view .LVU146
 424 00a2 0E4A     		ldr	r2, .L29+20
 425 00a4 0264     		str	r2, [r0, #64]
 426 00a6 BDE7     		b	.L18
 427              	.LVL18:
 428              	.L27:
 209:external/drivers/stm32wlxx/src/stm32wlxx_hal_dma.c ****   }
 429              		.loc 1 209 5 is_stmt 1 view .LVU147
 209:external/drivers/stm32wlxx/src/stm32wlxx_hal_dma.c ****   }
 430              		.loc 1 209 24 is_stmt 0 view .LVU148
 431 00a8 0023     		movs	r3, #0
 432 00aa 6360     		str	r3, [r4, #4]
 433 00ac D9E7     		b	.L19
 434              	.L28:
 223:external/drivers/stm32wlxx/src/stm32wlxx_hal_dma.c **** 
 435              		.loc 1 223 5 is_stmt 1 view .LVU149
 436 00ae 2046     		mov	r0, r4
 437 00b0 FFF7FEFF 		bl	DMA_CalcDMAMUXRequestGenBaseAndMask
 438              	.LVL19:
 226:external/drivers/stm32wlxx/src/stm32wlxx_hal_dma.c **** 
 439              		.loc 1 226 5 view .LVU150
 226:external/drivers/stm32wlxx/src/stm32wlxx_hal_dma.c **** 
 440              		.loc 1 226 9 is_stmt 0 view .LVU151
ARM GAS  /tmp/ccmjCdRm.s 			page 33


 441 00b4 636D     		ldr	r3, [r4, #84]
 226:external/drivers/stm32wlxx/src/stm32wlxx_hal_dma.c **** 
 442              		.loc 1 226 34 view .LVU152
 443 00b6 0022     		movs	r2, #0
 444 00b8 1A60     		str	r2, [r3]
 229:external/drivers/stm32wlxx/src/stm32wlxx_hal_dma.c ****   }
 445              		.loc 1 229 5 is_stmt 1 view .LVU153
 229:external/drivers/stm32wlxx/src/stm32wlxx_hal_dma.c ****   }
 446              		.loc 1 229 9 is_stmt 0 view .LVU154
 447 00ba A36D     		ldr	r3, [r4, #88]
 229:external/drivers/stm32wlxx/src/stm32wlxx_hal_dma.c ****   }
 448              		.loc 1 229 47 view .LVU155
 449 00bc E26D     		ldr	r2, [r4, #92]
 229:external/drivers/stm32wlxx/src/stm32wlxx_hal_dma.c ****   }
 450              		.loc 1 229 41 view .LVU156
 451 00be 5A60     		str	r2, [r3, #4]
 452 00c0 DFE7     		b	.L21
 453              	.LVL20:
 454              	.L22:
 455              	.LCFI4:
 456              		.cfi_def_cfa_offset 0
 457              		.cfi_restore 4
 458              		.cfi_restore 14
 158:external/drivers/stm32wlxx/src/stm32wlxx_hal_dma.c ****   }
 459              		.loc 1 158 12 view .LVU157
 460 00c2 0120     		movs	r0, #1
 461              	.LVL21:
 248:external/drivers/stm32wlxx/src/stm32wlxx_hal_dma.c **** 
 462              		.loc 1 248 1 view .LVU158
 463 00c4 7047     		bx	lr
 464              	.L30:
 465 00c6 00BF     		.align	2
 466              	.L29:
 467 00c8 07040240 		.word	1073873927
 468 00cc F8FFFDBF 		.word	-1073872904
 469 00d0 CDCCCCCC 		.word	-858993459
 470 00d4 00000240 		.word	1073872896
 471 00d8 F8FBFDBF 		.word	-1073873928
 472 00dc 00040240 		.word	1073873920
 473              		.cfi_endproc
 474              	.LFE844:
 476              		.section	.text.HAL_DMA_DeInit,"ax",%progbits
 477              		.align	1
 478              		.global	HAL_DMA_DeInit
 479              		.syntax unified
 480              		.thumb
 481              		.thumb_func
 483              	HAL_DMA_DeInit:
 484              	.LVL22:
 485              	.LFB845:
 257:external/drivers/stm32wlxx/src/stm32wlxx_hal_dma.c ****   /* Check the DMA handle allocation */
 486              		.loc 1 257 1 is_stmt 1 view -0
 487              		.cfi_startproc
 488              		@ args = 0, pretend = 0, frame = 0
 489              		@ frame_needed = 0, uses_anonymous_args = 0
 259:external/drivers/stm32wlxx/src/stm32wlxx_hal_dma.c ****   {
 490              		.loc 1 259 3 view .LVU160
ARM GAS  /tmp/ccmjCdRm.s 			page 34


 259:external/drivers/stm32wlxx/src/stm32wlxx_hal_dma.c ****   {
 491              		.loc 1 259 6 is_stmt 0 view .LVU161
 492 0000 0028     		cmp	r0, #0
 493 0002 4BD0     		beq	.L36
 257:external/drivers/stm32wlxx/src/stm32wlxx_hal_dma.c ****   /* Check the DMA handle allocation */
 494              		.loc 1 257 1 view .LVU162
 495 0004 38B5     		push	{r3, r4, r5, lr}
 496              	.LCFI5:
 497              		.cfi_def_cfa_offset 16
 498              		.cfi_offset 3, -16
 499              		.cfi_offset 4, -12
 500              		.cfi_offset 5, -8
 501              		.cfi_offset 14, -4
 502 0006 0446     		mov	r4, r0
 265:external/drivers/stm32wlxx/src/stm32wlxx_hal_dma.c **** 
 503              		.loc 1 265 3 is_stmt 1 view .LVU163
 268:external/drivers/stm32wlxx/src/stm32wlxx_hal_dma.c **** 
 504              		.loc 1 268 3 view .LVU164
 505 0008 0268     		ldr	r2, [r0]
 506 000a 1368     		ldr	r3, [r2]
 507 000c 23F00103 		bic	r3, r3, #1
 508 0010 1360     		str	r3, [r2]
 271:external/drivers/stm32wlxx/src/stm32wlxx_hal_dma.c ****   {
 509              		.loc 1 271 3 view .LVU165
 271:external/drivers/stm32wlxx/src/stm32wlxx_hal_dma.c ****   {
 510              		.loc 1 271 22 is_stmt 0 view .LVU166
 511 0012 0268     		ldr	r2, [r0]
 271:external/drivers/stm32wlxx/src/stm32wlxx_hal_dma.c ****   {
 512              		.loc 1 271 6 view .LVU167
 513 0014 224B     		ldr	r3, .L42
 514 0016 9A42     		cmp	r2, r3
 515 0018 2CD8     		bhi	.L33
 274:external/drivers/stm32wlxx/src/stm32wlxx_hal_dma.c ****     hdma->DmaBaseAddress = DMA1;
 516              		.loc 1 274 5 is_stmt 1 view .LVU168
 274:external/drivers/stm32wlxx/src/stm32wlxx_hal_dma.c ****     hdma->DmaBaseAddress = DMA1;
 517              		.loc 1 274 53 is_stmt 0 view .LVU169
 518 001a 224B     		ldr	r3, .L42+4
 519 001c 1344     		add	r3, r3, r2
 274:external/drivers/stm32wlxx/src/stm32wlxx_hal_dma.c ****     hdma->DmaBaseAddress = DMA1;
 520              		.loc 1 274 80 view .LVU170
 521 001e 2249     		ldr	r1, .L42+8
 522 0020 A1FB0313 		umull	r1, r3, r1, r3
 523 0024 1B09     		lsrs	r3, r3, #4
 274:external/drivers/stm32wlxx/src/stm32wlxx_hal_dma.c ****     hdma->DmaBaseAddress = DMA1;
 524              		.loc 1 274 135 view .LVU171
 525 0026 9B00     		lsls	r3, r3, #2
 274:external/drivers/stm32wlxx/src/stm32wlxx_hal_dma.c ****     hdma->DmaBaseAddress = DMA1;
 526              		.loc 1 274 24 view .LVU172
 527 0028 4364     		str	r3, [r0, #68]
 275:external/drivers/stm32wlxx/src/stm32wlxx_hal_dma.c ****   }
 528              		.loc 1 275 5 is_stmt 1 view .LVU173
 275:external/drivers/stm32wlxx/src/stm32wlxx_hal_dma.c ****   }
 529              		.loc 1 275 26 is_stmt 0 view .LVU174
 530 002a 204B     		ldr	r3, .L42+12
 531 002c 0364     		str	r3, [r0, #64]
 532              	.L34:
 285:external/drivers/stm32wlxx/src/stm32wlxx_hal_dma.c **** 
ARM GAS  /tmp/ccmjCdRm.s 			page 35


 533              		.loc 1 285 3 is_stmt 1 view .LVU175
 285:external/drivers/stm32wlxx/src/stm32wlxx_hal_dma.c **** 
 534              		.loc 1 285 23 is_stmt 0 view .LVU176
 535 002e 0025     		movs	r5, #0
 536 0030 1560     		str	r5, [r2]
 288:external/drivers/stm32wlxx/src/stm32wlxx_hal_dma.c **** 
 537              		.loc 1 288 3 is_stmt 1 view .LVU177
 288:external/drivers/stm32wlxx/src/stm32wlxx_hal_dma.c **** 
 538              		.loc 1 288 54 is_stmt 0 view .LVU178
 539 0032 636C     		ldr	r3, [r4, #68]
 288:external/drivers/stm32wlxx/src/stm32wlxx_hal_dma.c **** 
 540              		.loc 1 288 69 view .LVU179
 541 0034 03F01C02 		and	r2, r3, #28
 288:external/drivers/stm32wlxx/src/stm32wlxx_hal_dma.c **** 
 542              		.loc 1 288 7 view .LVU180
 543 0038 216C     		ldr	r1, [r4, #64]
 288:external/drivers/stm32wlxx/src/stm32wlxx_hal_dma.c **** 
 544              		.loc 1 288 46 view .LVU181
 545 003a 0123     		movs	r3, #1
 546 003c 9340     		lsls	r3, r3, r2
 288:external/drivers/stm32wlxx/src/stm32wlxx_hal_dma.c **** 
 547              		.loc 1 288 30 view .LVU182
 548 003e 4B60     		str	r3, [r1, #4]
 293:external/drivers/stm32wlxx/src/stm32wlxx_hal_dma.c **** 
 549              		.loc 1 293 3 is_stmt 1 view .LVU183
 550 0040 2046     		mov	r0, r4
 551              	.LVL23:
 293:external/drivers/stm32wlxx/src/stm32wlxx_hal_dma.c **** 
 552              		.loc 1 293 3 is_stmt 0 view .LVU184
 553 0042 FFF7FEFF 		bl	DMA_CalcDMAMUXChannelBaseAndMask
 554              	.LVL24:
 296:external/drivers/stm32wlxx/src/stm32wlxx_hal_dma.c **** 
 555              		.loc 1 296 3 is_stmt 1 view .LVU185
 296:external/drivers/stm32wlxx/src/stm32wlxx_hal_dma.c **** 
 556              		.loc 1 296 7 is_stmt 0 view .LVU186
 557 0046 A36C     		ldr	r3, [r4, #72]
 296:external/drivers/stm32wlxx/src/stm32wlxx_hal_dma.c **** 
 558              		.loc 1 296 28 view .LVU187
 559 0048 1D60     		str	r5, [r3]
 299:external/drivers/stm32wlxx/src/stm32wlxx_hal_dma.c **** 
 560              		.loc 1 299 3 is_stmt 1 view .LVU188
 299:external/drivers/stm32wlxx/src/stm32wlxx_hal_dma.c **** 
 561              		.loc 1 299 7 is_stmt 0 view .LVU189
 562 004a E36C     		ldr	r3, [r4, #76]
 299:external/drivers/stm32wlxx/src/stm32wlxx_hal_dma.c **** 
 563              		.loc 1 299 40 view .LVU190
 564 004c 226D     		ldr	r2, [r4, #80]
 299:external/drivers/stm32wlxx/src/stm32wlxx_hal_dma.c **** 
 565              		.loc 1 299 34 view .LVU191
 566 004e 5A60     		str	r2, [r3, #4]
 302:external/drivers/stm32wlxx/src/stm32wlxx_hal_dma.c ****   {
 567              		.loc 1 302 3 is_stmt 1 view .LVU192
 302:external/drivers/stm32wlxx/src/stm32wlxx_hal_dma.c ****   {
 568              		.loc 1 302 19 is_stmt 0 view .LVU193
 569 0050 6368     		ldr	r3, [r4, #4]
 302:external/drivers/stm32wlxx/src/stm32wlxx_hal_dma.c ****   {
 570              		.loc 1 302 36 view .LVU194
ARM GAS  /tmp/ccmjCdRm.s 			page 36


 571 0052 013B     		subs	r3, r3, #1
 302:external/drivers/stm32wlxx/src/stm32wlxx_hal_dma.c ****   {
 572              		.loc 1 302 6 view .LVU195
 573 0054 032B     		cmp	r3, #3
 574 0056 18D9     		bls	.L41
 575              	.L35:
 316:external/drivers/stm32wlxx/src/stm32wlxx_hal_dma.c ****   hdma->DMAmuxRequestGenStatus = NULL;
 576              		.loc 1 316 3 is_stmt 1 view .LVU196
 316:external/drivers/stm32wlxx/src/stm32wlxx_hal_dma.c ****   hdma->DMAmuxRequestGenStatus = NULL;
 577              		.loc 1 316 26 is_stmt 0 view .LVU197
 578 0058 0020     		movs	r0, #0
 579 005a 6065     		str	r0, [r4, #84]
 317:external/drivers/stm32wlxx/src/stm32wlxx_hal_dma.c ****   hdma->DMAmuxRequestGenStatusMask = 0U;
 580              		.loc 1 317 3 is_stmt 1 view .LVU198
 317:external/drivers/stm32wlxx/src/stm32wlxx_hal_dma.c ****   hdma->DMAmuxRequestGenStatusMask = 0U;
 581              		.loc 1 317 32 is_stmt 0 view .LVU199
 582 005c A065     		str	r0, [r4, #88]
 318:external/drivers/stm32wlxx/src/stm32wlxx_hal_dma.c **** 
 583              		.loc 1 318 3 is_stmt 1 view .LVU200
 318:external/drivers/stm32wlxx/src/stm32wlxx_hal_dma.c **** 
 584              		.loc 1 318 36 is_stmt 0 view .LVU201
 585 005e E065     		str	r0, [r4, #92]
 321:external/drivers/stm32wlxx/src/stm32wlxx_hal_dma.c ****   hdma->XferHalfCpltCallback = NULL;
 586              		.loc 1 321 3 is_stmt 1 view .LVU202
 321:external/drivers/stm32wlxx/src/stm32wlxx_hal_dma.c ****   hdma->XferHalfCpltCallback = NULL;
 587              		.loc 1 321 26 is_stmt 0 view .LVU203
 588 0060 E062     		str	r0, [r4, #44]
 322:external/drivers/stm32wlxx/src/stm32wlxx_hal_dma.c ****   hdma->XferErrorCallback = NULL;
 589              		.loc 1 322 3 is_stmt 1 view .LVU204
 322:external/drivers/stm32wlxx/src/stm32wlxx_hal_dma.c ****   hdma->XferErrorCallback = NULL;
 590              		.loc 1 322 30 is_stmt 0 view .LVU205
 591 0062 2063     		str	r0, [r4, #48]
 323:external/drivers/stm32wlxx/src/stm32wlxx_hal_dma.c ****   hdma->XferAbortCallback = NULL;
 592              		.loc 1 323 3 is_stmt 1 view .LVU206
 323:external/drivers/stm32wlxx/src/stm32wlxx_hal_dma.c ****   hdma->XferAbortCallback = NULL;
 593              		.loc 1 323 27 is_stmt 0 view .LVU207
 594 0064 6063     		str	r0, [r4, #52]
 324:external/drivers/stm32wlxx/src/stm32wlxx_hal_dma.c **** 
 595              		.loc 1 324 3 is_stmt 1 view .LVU208
 324:external/drivers/stm32wlxx/src/stm32wlxx_hal_dma.c **** 
 596              		.loc 1 324 27 is_stmt 0 view .LVU209
 597 0066 A063     		str	r0, [r4, #56]
 327:external/drivers/stm32wlxx/src/stm32wlxx_hal_dma.c **** 
 598              		.loc 1 327 3 is_stmt 1 view .LVU210
 327:external/drivers/stm32wlxx/src/stm32wlxx_hal_dma.c **** 
 599              		.loc 1 327 19 is_stmt 0 view .LVU211
 600 0068 E063     		str	r0, [r4, #60]
 330:external/drivers/stm32wlxx/src/stm32wlxx_hal_dma.c **** 
 601              		.loc 1 330 3 is_stmt 1 view .LVU212
 330:external/drivers/stm32wlxx/src/stm32wlxx_hal_dma.c **** 
 602              		.loc 1 330 15 is_stmt 0 view .LVU213
 603 006a 84F82500 		strb	r0, [r4, #37]
 333:external/drivers/stm32wlxx/src/stm32wlxx_hal_dma.c **** 
 604              		.loc 1 333 3 is_stmt 1 view .LVU214
 333:external/drivers/stm32wlxx/src/stm32wlxx_hal_dma.c **** 
 605              		.loc 1 333 3 view .LVU215
 606 006e 84F82400 		strb	r0, [r4, #36]
ARM GAS  /tmp/ccmjCdRm.s 			page 37


 333:external/drivers/stm32wlxx/src/stm32wlxx_hal_dma.c **** 
 607              		.loc 1 333 3 view .LVU216
 335:external/drivers/stm32wlxx/src/stm32wlxx_hal_dma.c **** }
 608              		.loc 1 335 3 view .LVU217
 336:external/drivers/stm32wlxx/src/stm32wlxx_hal_dma.c **** 
 609              		.loc 1 336 1 is_stmt 0 view .LVU218
 610 0072 38BD     		pop	{r3, r4, r5, pc}
 611              	.LVL25:
 612              	.L33:
 280:external/drivers/stm32wlxx/src/stm32wlxx_hal_dma.c ****     hdma->DmaBaseAddress = DMA2;
 613              		.loc 1 280 5 is_stmt 1 view .LVU219
 280:external/drivers/stm32wlxx/src/stm32wlxx_hal_dma.c ****     hdma->DmaBaseAddress = DMA2;
 614              		.loc 1 280 53 is_stmt 0 view .LVU220
 615 0074 0E4B     		ldr	r3, .L42+16
 616 0076 1344     		add	r3, r3, r2
 280:external/drivers/stm32wlxx/src/stm32wlxx_hal_dma.c ****     hdma->DmaBaseAddress = DMA2;
 617              		.loc 1 280 80 view .LVU221
 618 0078 0B49     		ldr	r1, .L42+8
 619 007a A1FB0313 		umull	r1, r3, r1, r3
 620 007e 1B09     		lsrs	r3, r3, #4
 280:external/drivers/stm32wlxx/src/stm32wlxx_hal_dma.c ****     hdma->DmaBaseAddress = DMA2;
 621              		.loc 1 280 135 view .LVU222
 622 0080 9B00     		lsls	r3, r3, #2
 280:external/drivers/stm32wlxx/src/stm32wlxx_hal_dma.c ****     hdma->DmaBaseAddress = DMA2;
 623              		.loc 1 280 24 view .LVU223
 624 0082 4364     		str	r3, [r0, #68]
 281:external/drivers/stm32wlxx/src/stm32wlxx_hal_dma.c ****   }
 625              		.loc 1 281 5 is_stmt 1 view .LVU224
 281:external/drivers/stm32wlxx/src/stm32wlxx_hal_dma.c ****   }
 626              		.loc 1 281 26 is_stmt 0 view .LVU225
 627 0084 0B4B     		ldr	r3, .L42+20
 628 0086 0364     		str	r3, [r0, #64]
 629 0088 D1E7     		b	.L34
 630              	.LVL26:
 631              	.L41:
 307:external/drivers/stm32wlxx/src/stm32wlxx_hal_dma.c **** 
 632              		.loc 1 307 5 is_stmt 1 view .LVU226
 633 008a 2046     		mov	r0, r4
 634 008c FFF7FEFF 		bl	DMA_CalcDMAMUXRequestGenBaseAndMask
 635              	.LVL27:
 310:external/drivers/stm32wlxx/src/stm32wlxx_hal_dma.c **** 
 636              		.loc 1 310 5 view .LVU227
 310:external/drivers/stm32wlxx/src/stm32wlxx_hal_dma.c **** 
 637              		.loc 1 310 9 is_stmt 0 view .LVU228
 638 0090 636D     		ldr	r3, [r4, #84]
 310:external/drivers/stm32wlxx/src/stm32wlxx_hal_dma.c **** 
 639              		.loc 1 310 34 view .LVU229
 640 0092 1D60     		str	r5, [r3]
 313:external/drivers/stm32wlxx/src/stm32wlxx_hal_dma.c ****   }
 641              		.loc 1 313 5 is_stmt 1 view .LVU230
 313:external/drivers/stm32wlxx/src/stm32wlxx_hal_dma.c ****   }
 642              		.loc 1 313 9 is_stmt 0 view .LVU231
 643 0094 A36D     		ldr	r3, [r4, #88]
 313:external/drivers/stm32wlxx/src/stm32wlxx_hal_dma.c ****   }
 644              		.loc 1 313 47 view .LVU232
 645 0096 E26D     		ldr	r2, [r4, #92]
 313:external/drivers/stm32wlxx/src/stm32wlxx_hal_dma.c ****   }
ARM GAS  /tmp/ccmjCdRm.s 			page 38


 646              		.loc 1 313 41 view .LVU233
 647 0098 5A60     		str	r2, [r3, #4]
 648 009a DDE7     		b	.L35
 649              	.LVL28:
 650              	.L36:
 651              	.LCFI6:
 652              		.cfi_def_cfa_offset 0
 653              		.cfi_restore 3
 654              		.cfi_restore 4
 655              		.cfi_restore 5
 656              		.cfi_restore 14
 261:external/drivers/stm32wlxx/src/stm32wlxx_hal_dma.c ****   }
 657              		.loc 1 261 12 view .LVU234
 658 009c 0120     		movs	r0, #1
 659              	.LVL29:
 336:external/drivers/stm32wlxx/src/stm32wlxx_hal_dma.c **** 
 660              		.loc 1 336 1 view .LVU235
 661 009e 7047     		bx	lr
 662              	.L43:
 663              		.align	2
 664              	.L42:
 665 00a0 07040240 		.word	1073873927
 666 00a4 F8FFFDBF 		.word	-1073872904
 667 00a8 CDCCCCCC 		.word	-858993459
 668 00ac 00000240 		.word	1073872896
 669 00b0 F8FBFDBF 		.word	-1073873928
 670 00b4 00040240 		.word	1073873920
 671              		.cfi_endproc
 672              	.LFE845:
 674              		.section	.text.HAL_DMA_Start,"ax",%progbits
 675              		.align	1
 676              		.global	HAL_DMA_Start
 677              		.syntax unified
 678              		.thumb
 679              		.thumb_func
 681              	HAL_DMA_Start:
 682              	.LVL30:
 683              	.LFB846:
 372:external/drivers/stm32wlxx/src/stm32wlxx_hal_dma.c ****   HAL_StatusTypeDef status = HAL_OK;
 684              		.loc 1 372 1 is_stmt 1 view -0
 685              		.cfi_startproc
 686              		@ args = 0, pretend = 0, frame = 0
 687              		@ frame_needed = 0, uses_anonymous_args = 0
 372:external/drivers/stm32wlxx/src/stm32wlxx_hal_dma.c ****   HAL_StatusTypeDef status = HAL_OK;
 688              		.loc 1 372 1 is_stmt 0 view .LVU237
 689 0000 70B5     		push	{r4, r5, r6, lr}
 690              	.LCFI7:
 691              		.cfi_def_cfa_offset 16
 692              		.cfi_offset 4, -16
 693              		.cfi_offset 5, -12
 694              		.cfi_offset 6, -8
 695              		.cfi_offset 14, -4
 696 0002 0446     		mov	r4, r0
 373:external/drivers/stm32wlxx/src/stm32wlxx_hal_dma.c **** 
 697              		.loc 1 373 3 is_stmt 1 view .LVU238
 698              	.LVL31:
 376:external/drivers/stm32wlxx/src/stm32wlxx_hal_dma.c **** 
ARM GAS  /tmp/ccmjCdRm.s 			page 39


 699              		.loc 1 376 3 view .LVU239
 379:external/drivers/stm32wlxx/src/stm32wlxx_hal_dma.c **** 
 700              		.loc 1 379 3 view .LVU240
 379:external/drivers/stm32wlxx/src/stm32wlxx_hal_dma.c **** 
 701              		.loc 1 379 3 view .LVU241
 702 0004 90F82400 		ldrb	r0, [r0, #36]	@ zero_extendqisi2
 703              	.LVL32:
 379:external/drivers/stm32wlxx/src/stm32wlxx_hal_dma.c **** 
 704              		.loc 1 379 3 is_stmt 0 view .LVU242
 705 0008 0128     		cmp	r0, #1
 706 000a 22D0     		beq	.L47
 379:external/drivers/stm32wlxx/src/stm32wlxx_hal_dma.c **** 
 707              		.loc 1 379 3 is_stmt 1 discriminator 2 view .LVU243
 708 000c 0120     		movs	r0, #1
 709 000e 84F82400 		strb	r0, [r4, #36]
 379:external/drivers/stm32wlxx/src/stm32wlxx_hal_dma.c **** 
 710              		.loc 1 379 3 discriminator 2 view .LVU244
 381:external/drivers/stm32wlxx/src/stm32wlxx_hal_dma.c ****   {
 711              		.loc 1 381 3 view .LVU245
 381:external/drivers/stm32wlxx/src/stm32wlxx_hal_dma.c ****   {
 712              		.loc 1 381 11 is_stmt 0 view .LVU246
 713 0012 94F82500 		ldrb	r0, [r4, #37]	@ zero_extendqisi2
 714 0016 C0B2     		uxtb	r0, r0
 381:external/drivers/stm32wlxx/src/stm32wlxx_hal_dma.c ****   {
 715              		.loc 1 381 6 view .LVU247
 716 0018 0128     		cmp	r0, #1
 717 001a 06D0     		beq	.L49
 401:external/drivers/stm32wlxx/src/stm32wlxx_hal_dma.c **** 
 718              		.loc 1 401 5 is_stmt 1 view .LVU248
 401:external/drivers/stm32wlxx/src/stm32wlxx_hal_dma.c **** 
 719              		.loc 1 401 21 is_stmt 0 view .LVU249
 720 001c 8023     		movs	r3, #128
 721              	.LVL33:
 401:external/drivers/stm32wlxx/src/stm32wlxx_hal_dma.c **** 
 722              		.loc 1 401 21 view .LVU250
 723 001e E363     		str	r3, [r4, #60]
 404:external/drivers/stm32wlxx/src/stm32wlxx_hal_dma.c **** 
 724              		.loc 1 404 5 is_stmt 1 view .LVU251
 404:external/drivers/stm32wlxx/src/stm32wlxx_hal_dma.c **** 
 725              		.loc 1 404 5 view .LVU252
 726 0020 0023     		movs	r3, #0
 727 0022 84F82430 		strb	r3, [r4, #36]
 404:external/drivers/stm32wlxx/src/stm32wlxx_hal_dma.c **** 
 728              		.loc 1 404 5 view .LVU253
 407:external/drivers/stm32wlxx/src/stm32wlxx_hal_dma.c ****   }
 729              		.loc 1 407 5 view .LVU254
 730              	.LVL34:
 407:external/drivers/stm32wlxx/src/stm32wlxx_hal_dma.c ****   }
 731              		.loc 1 407 12 is_stmt 0 view .LVU255
 732 0026 0120     		movs	r0, #1
 733              	.LVL35:
 734              	.L45:
 411:external/drivers/stm32wlxx/src/stm32wlxx_hal_dma.c **** 
 735              		.loc 1 411 1 view .LVU256
 736 0028 70BD     		pop	{r4, r5, r6, pc}
 737              	.LVL36:
 738              	.L49:
ARM GAS  /tmp/ccmjCdRm.s 			page 40


 384:external/drivers/stm32wlxx/src/stm32wlxx_hal_dma.c **** 
 739              		.loc 1 384 5 is_stmt 1 view .LVU257
 384:external/drivers/stm32wlxx/src/stm32wlxx_hal_dma.c **** 
 740              		.loc 1 384 17 is_stmt 0 view .LVU258
 741 002a 0220     		movs	r0, #2
 742 002c 84F82500 		strb	r0, [r4, #37]
 387:external/drivers/stm32wlxx/src/stm32wlxx_hal_dma.c **** 
 743              		.loc 1 387 5 is_stmt 1 view .LVU259
 387:external/drivers/stm32wlxx/src/stm32wlxx_hal_dma.c **** 
 744              		.loc 1 387 21 is_stmt 0 view .LVU260
 745 0030 0025     		movs	r5, #0
 746 0032 E563     		str	r5, [r4, #60]
 390:external/drivers/stm32wlxx/src/stm32wlxx_hal_dma.c **** 
 747              		.loc 1 390 5 is_stmt 1 view .LVU261
 748 0034 2668     		ldr	r6, [r4]
 749 0036 3068     		ldr	r0, [r6]
 750 0038 20F00100 		bic	r0, r0, #1
 751 003c 3060     		str	r0, [r6]
 393:external/drivers/stm32wlxx/src/stm32wlxx_hal_dma.c **** 
 752              		.loc 1 393 5 view .LVU262
 753 003e 2046     		mov	r0, r4
 754 0040 FFF7FEFF 		bl	DMA_SetConfig
 755              	.LVL37:
 396:external/drivers/stm32wlxx/src/stm32wlxx_hal_dma.c ****   }
 756              		.loc 1 396 5 view .LVU263
 757 0044 2268     		ldr	r2, [r4]
 758 0046 1368     		ldr	r3, [r2]
 759 0048 43F00103 		orr	r3, r3, #1
 760 004c 1360     		str	r3, [r2]
 373:external/drivers/stm32wlxx/src/stm32wlxx_hal_dma.c **** 
 761              		.loc 1 373 21 is_stmt 0 view .LVU264
 762 004e 2846     		mov	r0, r5
 763 0050 EAE7     		b	.L45
 764              	.LVL38:
 765              	.L47:
 379:external/drivers/stm32wlxx/src/stm32wlxx_hal_dma.c **** 
 766              		.loc 1 379 3 discriminator 1 view .LVU265
 767 0052 0220     		movs	r0, #2
 768 0054 E8E7     		b	.L45
 769              		.cfi_endproc
 770              	.LFE846:
 772              		.section	.text.HAL_DMA_Start_IT,"ax",%progbits
 773              		.align	1
 774              		.global	HAL_DMA_Start_IT
 775              		.syntax unified
 776              		.thumb
 777              		.thumb_func
 779              	HAL_DMA_Start_IT:
 780              	.LVL39:
 781              	.LFB847:
 424:external/drivers/stm32wlxx/src/stm32wlxx_hal_dma.c ****   HAL_StatusTypeDef status = HAL_OK;
 782              		.loc 1 424 1 is_stmt 1 view -0
 783              		.cfi_startproc
 784              		@ args = 0, pretend = 0, frame = 0
 785              		@ frame_needed = 0, uses_anonymous_args = 0
 424:external/drivers/stm32wlxx/src/stm32wlxx_hal_dma.c ****   HAL_StatusTypeDef status = HAL_OK;
 786              		.loc 1 424 1 is_stmt 0 view .LVU267
ARM GAS  /tmp/ccmjCdRm.s 			page 41


 787 0000 38B5     		push	{r3, r4, r5, lr}
 788              	.LCFI8:
 789              		.cfi_def_cfa_offset 16
 790              		.cfi_offset 3, -16
 791              		.cfi_offset 4, -12
 792              		.cfi_offset 5, -8
 793              		.cfi_offset 14, -4
 794 0002 0446     		mov	r4, r0
 425:external/drivers/stm32wlxx/src/stm32wlxx_hal_dma.c **** 
 795              		.loc 1 425 3 is_stmt 1 view .LVU268
 796              	.LVL40:
 428:external/drivers/stm32wlxx/src/stm32wlxx_hal_dma.c **** 
 797              		.loc 1 428 3 view .LVU269
 431:external/drivers/stm32wlxx/src/stm32wlxx_hal_dma.c **** 
 798              		.loc 1 431 3 view .LVU270
 431:external/drivers/stm32wlxx/src/stm32wlxx_hal_dma.c **** 
 799              		.loc 1 431 3 view .LVU271
 800 0004 90F82400 		ldrb	r0, [r0, #36]	@ zero_extendqisi2
 801              	.LVL41:
 431:external/drivers/stm32wlxx/src/stm32wlxx_hal_dma.c **** 
 802              		.loc 1 431 3 is_stmt 0 view .LVU272
 803 0008 0128     		cmp	r0, #1
 804 000a 43D0     		beq	.L57
 431:external/drivers/stm32wlxx/src/stm32wlxx_hal_dma.c **** 
 805              		.loc 1 431 3 is_stmt 1 discriminator 2 view .LVU273
 806 000c 0120     		movs	r0, #1
 807 000e 84F82400 		strb	r0, [r4, #36]
 431:external/drivers/stm32wlxx/src/stm32wlxx_hal_dma.c **** 
 808              		.loc 1 431 3 discriminator 2 view .LVU274
 433:external/drivers/stm32wlxx/src/stm32wlxx_hal_dma.c ****   {
 809              		.loc 1 433 3 view .LVU275
 433:external/drivers/stm32wlxx/src/stm32wlxx_hal_dma.c ****   {
 810              		.loc 1 433 11 is_stmt 0 view .LVU276
 811 0012 94F82500 		ldrb	r0, [r4, #37]	@ zero_extendqisi2
 812 0016 C0B2     		uxtb	r0, r0
 433:external/drivers/stm32wlxx/src/stm32wlxx_hal_dma.c ****   {
 813              		.loc 1 433 6 view .LVU277
 814 0018 0128     		cmp	r0, #1
 815 001a 06D0     		beq	.L59
 478:external/drivers/stm32wlxx/src/stm32wlxx_hal_dma.c **** 
 816              		.loc 1 478 5 is_stmt 1 view .LVU278
 478:external/drivers/stm32wlxx/src/stm32wlxx_hal_dma.c **** 
 817              		.loc 1 478 21 is_stmt 0 view .LVU279
 818 001c 8023     		movs	r3, #128
 819              	.LVL42:
 478:external/drivers/stm32wlxx/src/stm32wlxx_hal_dma.c **** 
 820              		.loc 1 478 21 view .LVU280
 821 001e E363     		str	r3, [r4, #60]
 481:external/drivers/stm32wlxx/src/stm32wlxx_hal_dma.c **** 
 822              		.loc 1 481 5 is_stmt 1 view .LVU281
 481:external/drivers/stm32wlxx/src/stm32wlxx_hal_dma.c **** 
 823              		.loc 1 481 5 view .LVU282
 824 0020 0023     		movs	r3, #0
 825 0022 84F82430 		strb	r3, [r4, #36]
 481:external/drivers/stm32wlxx/src/stm32wlxx_hal_dma.c **** 
 826              		.loc 1 481 5 view .LVU283
 484:external/drivers/stm32wlxx/src/stm32wlxx_hal_dma.c ****   }
ARM GAS  /tmp/ccmjCdRm.s 			page 42


 827              		.loc 1 484 5 view .LVU284
 828              	.LVL43:
 484:external/drivers/stm32wlxx/src/stm32wlxx_hal_dma.c ****   }
 829              		.loc 1 484 12 is_stmt 0 view .LVU285
 830 0026 0120     		movs	r0, #1
 831              	.LVL44:
 832              	.L51:
 488:external/drivers/stm32wlxx/src/stm32wlxx_hal_dma.c **** 
 833              		.loc 1 488 1 view .LVU286
 834 0028 38BD     		pop	{r3, r4, r5, pc}
 835              	.LVL45:
 836              	.L59:
 436:external/drivers/stm32wlxx/src/stm32wlxx_hal_dma.c ****     hdma->ErrorCode = HAL_DMA_ERROR_NONE;
 837              		.loc 1 436 5 is_stmt 1 view .LVU287
 436:external/drivers/stm32wlxx/src/stm32wlxx_hal_dma.c ****     hdma->ErrorCode = HAL_DMA_ERROR_NONE;
 838              		.loc 1 436 17 is_stmt 0 view .LVU288
 839 002a 0220     		movs	r0, #2
 840 002c 84F82500 		strb	r0, [r4, #37]
 437:external/drivers/stm32wlxx/src/stm32wlxx_hal_dma.c **** 
 841              		.loc 1 437 5 is_stmt 1 view .LVU289
 437:external/drivers/stm32wlxx/src/stm32wlxx_hal_dma.c **** 
 842              		.loc 1 437 21 is_stmt 0 view .LVU290
 843 0030 0020     		movs	r0, #0
 844 0032 E063     		str	r0, [r4, #60]
 440:external/drivers/stm32wlxx/src/stm32wlxx_hal_dma.c **** 
 845              		.loc 1 440 5 is_stmt 1 view .LVU291
 846 0034 2568     		ldr	r5, [r4]
 847 0036 2868     		ldr	r0, [r5]
 848 0038 20F00100 		bic	r0, r0, #1
 849 003c 2860     		str	r0, [r5]
 443:external/drivers/stm32wlxx/src/stm32wlxx_hal_dma.c **** 
 850              		.loc 1 443 5 view .LVU292
 851 003e 2046     		mov	r0, r4
 852 0040 FFF7FEFF 		bl	DMA_SetConfig
 853              	.LVL46:
 447:external/drivers/stm32wlxx/src/stm32wlxx_hal_dma.c ****     {
 854              		.loc 1 447 5 view .LVU293
 447:external/drivers/stm32wlxx/src/stm32wlxx_hal_dma.c ****     {
 855              		.loc 1 447 21 is_stmt 0 view .LVU294
 856 0044 236B     		ldr	r3, [r4, #48]
 447:external/drivers/stm32wlxx/src/stm32wlxx_hal_dma.c ****     {
 857              		.loc 1 447 8 view .LVU295
 858 0046 D3B1     		cbz	r3, .L53
 450:external/drivers/stm32wlxx/src/stm32wlxx_hal_dma.c ****     }
 859              		.loc 1 450 7 is_stmt 1 view .LVU296
 860 0048 2268     		ldr	r2, [r4]
 861 004a 1368     		ldr	r3, [r2]
 862 004c 43F00E03 		orr	r3, r3, #14
 863 0050 1360     		str	r3, [r2]
 864              	.L54:
 459:external/drivers/stm32wlxx/src/stm32wlxx_hal_dma.c ****     {
 865              		.loc 1 459 5 view .LVU297
 459:external/drivers/stm32wlxx/src/stm32wlxx_hal_dma.c ****     {
 866              		.loc 1 459 14 is_stmt 0 view .LVU298
 867 0052 A36C     		ldr	r3, [r4, #72]
 459:external/drivers/stm32wlxx/src/stm32wlxx_hal_dma.c ****     {
 868              		.loc 1 459 29 view .LVU299
ARM GAS  /tmp/ccmjCdRm.s 			page 43


 869 0054 1A68     		ldr	r2, [r3]
 459:external/drivers/stm32wlxx/src/stm32wlxx_hal_dma.c ****     {
 870              		.loc 1 459 8 view .LVU300
 871 0056 12F4803F 		tst	r2, #65536
 872 005a 03D0     		beq	.L55
 462:external/drivers/stm32wlxx/src/stm32wlxx_hal_dma.c ****     }
 873              		.loc 1 462 7 is_stmt 1 view .LVU301
 462:external/drivers/stm32wlxx/src/stm32wlxx_hal_dma.c ****     }
 874              		.loc 1 462 26 is_stmt 0 view .LVU302
 875 005c 1A68     		ldr	r2, [r3]
 462:external/drivers/stm32wlxx/src/stm32wlxx_hal_dma.c ****     }
 876              		.loc 1 462 32 view .LVU303
 877 005e 42F48072 		orr	r2, r2, #256
 878 0062 1A60     		str	r2, [r3]
 879              	.L55:
 465:external/drivers/stm32wlxx/src/stm32wlxx_hal_dma.c ****     {
 880              		.loc 1 465 5 is_stmt 1 view .LVU304
 465:external/drivers/stm32wlxx/src/stm32wlxx_hal_dma.c ****     {
 881              		.loc 1 465 13 is_stmt 0 view .LVU305
 882 0064 636D     		ldr	r3, [r4, #84]
 465:external/drivers/stm32wlxx/src/stm32wlxx_hal_dma.c ****     {
 883              		.loc 1 465 8 view .LVU306
 884 0066 1BB1     		cbz	r3, .L56
 469:external/drivers/stm32wlxx/src/stm32wlxx_hal_dma.c ****     }
 885              		.loc 1 469 7 is_stmt 1 view .LVU307
 469:external/drivers/stm32wlxx/src/stm32wlxx_hal_dma.c ****     }
 886              		.loc 1 469 29 is_stmt 0 view .LVU308
 887 0068 1A68     		ldr	r2, [r3]
 469:external/drivers/stm32wlxx/src/stm32wlxx_hal_dma.c ****     }
 888              		.loc 1 469 36 view .LVU309
 889 006a 42F48072 		orr	r2, r2, #256
 890 006e 1A60     		str	r2, [r3]
 891              	.L56:
 473:external/drivers/stm32wlxx/src/stm32wlxx_hal_dma.c ****   }
 892              		.loc 1 473 5 is_stmt 1 view .LVU310
 893 0070 2268     		ldr	r2, [r4]
 894 0072 1368     		ldr	r3, [r2]
 895 0074 43F00103 		orr	r3, r3, #1
 896 0078 1360     		str	r3, [r2]
 425:external/drivers/stm32wlxx/src/stm32wlxx_hal_dma.c **** 
 897              		.loc 1 425 21 is_stmt 0 view .LVU311
 898 007a 0020     		movs	r0, #0
 899 007c D4E7     		b	.L51
 900              	.L53:
 454:external/drivers/stm32wlxx/src/stm32wlxx_hal_dma.c ****       __HAL_DMA_ENABLE_IT(hdma, (DMA_IT_TC | DMA_IT_TE));
 901              		.loc 1 454 7 is_stmt 1 view .LVU312
 902 007e 2268     		ldr	r2, [r4]
 903 0080 1368     		ldr	r3, [r2]
 904 0082 23F00403 		bic	r3, r3, #4
 905 0086 1360     		str	r3, [r2]
 455:external/drivers/stm32wlxx/src/stm32wlxx_hal_dma.c ****     }
 906              		.loc 1 455 7 view .LVU313
 907 0088 2268     		ldr	r2, [r4]
 908 008a 1368     		ldr	r3, [r2]
 909 008c 43F00A03 		orr	r3, r3, #10
 910 0090 1360     		str	r3, [r2]
 911 0092 DEE7     		b	.L54
ARM GAS  /tmp/ccmjCdRm.s 			page 44


 912              	.LVL47:
 913              	.L57:
 431:external/drivers/stm32wlxx/src/stm32wlxx_hal_dma.c **** 
 914              		.loc 1 431 3 is_stmt 0 discriminator 1 view .LVU314
 915 0094 0220     		movs	r0, #2
 916 0096 C7E7     		b	.L51
 917              		.cfi_endproc
 918              	.LFE847:
 920              		.section	.text.HAL_DMA_Abort,"ax",%progbits
 921              		.align	1
 922              		.global	HAL_DMA_Abort
 923              		.syntax unified
 924              		.thumb
 925              		.thumb_func
 927              	HAL_DMA_Abort:
 928              	.LVL48:
 929              	.LFB848:
 497:external/drivers/stm32wlxx/src/stm32wlxx_hal_dma.c ****   /* Check the DMA peripheral handle */
 930              		.loc 1 497 1 is_stmt 1 view -0
 931              		.cfi_startproc
 932              		@ args = 0, pretend = 0, frame = 0
 933              		@ frame_needed = 0, uses_anonymous_args = 0
 934              		@ link register save eliminated.
 499:external/drivers/stm32wlxx/src/stm32wlxx_hal_dma.c ****   {
 935              		.loc 1 499 3 view .LVU316
 499:external/drivers/stm32wlxx/src/stm32wlxx_hal_dma.c ****   {
 936              		.loc 1 499 6 is_stmt 0 view .LVU317
 937 0000 0346     		mov	r3, r0
 938 0002 0028     		cmp	r0, #0
 939 0004 34D0     		beq	.L64
 505:external/drivers/stm32wlxx/src/stm32wlxx_hal_dma.c ****   {
 940              		.loc 1 505 3 is_stmt 1 view .LVU318
 505:external/drivers/stm32wlxx/src/stm32wlxx_hal_dma.c ****   {
 941              		.loc 1 505 11 is_stmt 0 view .LVU319
 942 0006 90F82520 		ldrb	r2, [r0, #37]	@ zero_extendqisi2
 943 000a D2B2     		uxtb	r2, r2
 505:external/drivers/stm32wlxx/src/stm32wlxx_hal_dma.c ****   {
 944              		.loc 1 505 6 view .LVU320
 945 000c 022A     		cmp	r2, #2
 946 000e 06D0     		beq	.L62
 507:external/drivers/stm32wlxx/src/stm32wlxx_hal_dma.c **** 
 947              		.loc 1 507 5 is_stmt 1 view .LVU321
 507:external/drivers/stm32wlxx/src/stm32wlxx_hal_dma.c **** 
 948              		.loc 1 507 21 is_stmt 0 view .LVU322
 949 0010 0422     		movs	r2, #4
 950 0012 C263     		str	r2, [r0, #60]
 510:external/drivers/stm32wlxx/src/stm32wlxx_hal_dma.c **** 
 951              		.loc 1 510 5 is_stmt 1 view .LVU323
 510:external/drivers/stm32wlxx/src/stm32wlxx_hal_dma.c **** 
 952              		.loc 1 510 5 view .LVU324
 953 0014 0022     		movs	r2, #0
 954 0016 80F82420 		strb	r2, [r0, #36]
 510:external/drivers/stm32wlxx/src/stm32wlxx_hal_dma.c **** 
 955              		.loc 1 510 5 view .LVU325
 512:external/drivers/stm32wlxx/src/stm32wlxx_hal_dma.c ****   }
 956              		.loc 1 512 5 view .LVU326
 512:external/drivers/stm32wlxx/src/stm32wlxx_hal_dma.c ****   }
ARM GAS  /tmp/ccmjCdRm.s 			page 45


 957              		.loc 1 512 12 is_stmt 0 view .LVU327
 958 001a 0120     		movs	r0, #1
 959              	.LVL49:
 512:external/drivers/stm32wlxx/src/stm32wlxx_hal_dma.c ****   }
 960              		.loc 1 512 12 view .LVU328
 961 001c 7047     		bx	lr
 962              	.LVL50:
 963              	.L62:
 517:external/drivers/stm32wlxx/src/stm32wlxx_hal_dma.c **** 
 964              		.loc 1 517 5 is_stmt 1 view .LVU329
 965 001e 0168     		ldr	r1, [r0]
 966 0020 0A68     		ldr	r2, [r1]
 967 0022 22F00102 		bic	r2, r2, #1
 968 0026 0A60     		str	r2, [r1]
 520:external/drivers/stm32wlxx/src/stm32wlxx_hal_dma.c **** 
 969              		.loc 1 520 5 view .LVU330
 970 0028 0168     		ldr	r1, [r0]
 971 002a 0A68     		ldr	r2, [r1]
 972 002c 22F00E02 		bic	r2, r2, #14
 973 0030 0A60     		str	r2, [r1]
 523:external/drivers/stm32wlxx/src/stm32wlxx_hal_dma.c **** 
 974              		.loc 1 523 5 view .LVU331
 523:external/drivers/stm32wlxx/src/stm32wlxx_hal_dma.c **** 
 975              		.loc 1 523 9 is_stmt 0 view .LVU332
 976 0032 816C     		ldr	r1, [r0, #72]
 523:external/drivers/stm32wlxx/src/stm32wlxx_hal_dma.c **** 
 977              		.loc 1 523 24 view .LVU333
 978 0034 0A68     		ldr	r2, [r1]
 523:external/drivers/stm32wlxx/src/stm32wlxx_hal_dma.c **** 
 979              		.loc 1 523 30 view .LVU334
 980 0036 22F48072 		bic	r2, r2, #256
 981 003a 0A60     		str	r2, [r1]
 526:external/drivers/stm32wlxx/src/stm32wlxx_hal_dma.c **** 
 982              		.loc 1 526 5 is_stmt 1 view .LVU335
 526:external/drivers/stm32wlxx/src/stm32wlxx_hal_dma.c **** 
 983              		.loc 1 526 56 is_stmt 0 view .LVU336
 984 003c 426C     		ldr	r2, [r0, #68]
 526:external/drivers/stm32wlxx/src/stm32wlxx_hal_dma.c **** 
 985              		.loc 1 526 71 view .LVU337
 986 003e 02F01C01 		and	r1, r2, #28
 526:external/drivers/stm32wlxx/src/stm32wlxx_hal_dma.c **** 
 987              		.loc 1 526 9 view .LVU338
 988 0042 006C     		ldr	r0, [r0, #64]
 989              	.LVL51:
 526:external/drivers/stm32wlxx/src/stm32wlxx_hal_dma.c **** 
 990              		.loc 1 526 48 view .LVU339
 991 0044 0122     		movs	r2, #1
 992 0046 8A40     		lsls	r2, r2, r1
 526:external/drivers/stm32wlxx/src/stm32wlxx_hal_dma.c **** 
 993              		.loc 1 526 32 view .LVU340
 994 0048 4260     		str	r2, [r0, #4]
 529:external/drivers/stm32wlxx/src/stm32wlxx_hal_dma.c **** 
 995              		.loc 1 529 5 is_stmt 1 view .LVU341
 529:external/drivers/stm32wlxx/src/stm32wlxx_hal_dma.c **** 
 996              		.loc 1 529 9 is_stmt 0 view .LVU342
 997 004a DA6C     		ldr	r2, [r3, #76]
 529:external/drivers/stm32wlxx/src/stm32wlxx_hal_dma.c **** 
ARM GAS  /tmp/ccmjCdRm.s 			page 46


 998              		.loc 1 529 42 view .LVU343
 999 004c 196D     		ldr	r1, [r3, #80]
 529:external/drivers/stm32wlxx/src/stm32wlxx_hal_dma.c **** 
 1000              		.loc 1 529 36 view .LVU344
 1001 004e 5160     		str	r1, [r2, #4]
 531:external/drivers/stm32wlxx/src/stm32wlxx_hal_dma.c ****     {
 1002              		.loc 1 531 5 is_stmt 1 view .LVU345
 531:external/drivers/stm32wlxx/src/stm32wlxx_hal_dma.c ****     {
 1003              		.loc 1 531 13 is_stmt 0 view .LVU346
 1004 0050 5A6D     		ldr	r2, [r3, #84]
 531:external/drivers/stm32wlxx/src/stm32wlxx_hal_dma.c ****     {
 1005              		.loc 1 531 8 view .LVU347
 1006 0052 32B1     		cbz	r2, .L63
 535:external/drivers/stm32wlxx/src/stm32wlxx_hal_dma.c **** 
 1007              		.loc 1 535 7 is_stmt 1 view .LVU348
 535:external/drivers/stm32wlxx/src/stm32wlxx_hal_dma.c **** 
 1008              		.loc 1 535 29 is_stmt 0 view .LVU349
 1009 0054 1168     		ldr	r1, [r2]
 535:external/drivers/stm32wlxx/src/stm32wlxx_hal_dma.c **** 
 1010              		.loc 1 535 36 view .LVU350
 1011 0056 21F48071 		bic	r1, r1, #256
 1012 005a 1160     		str	r1, [r2]
 538:external/drivers/stm32wlxx/src/stm32wlxx_hal_dma.c ****     }
 1013              		.loc 1 538 7 is_stmt 1 view .LVU351
 538:external/drivers/stm32wlxx/src/stm32wlxx_hal_dma.c ****     }
 1014              		.loc 1 538 11 is_stmt 0 view .LVU352
 1015 005c 9A6D     		ldr	r2, [r3, #88]
 538:external/drivers/stm32wlxx/src/stm32wlxx_hal_dma.c ****     }
 1016              		.loc 1 538 49 view .LVU353
 1017 005e D96D     		ldr	r1, [r3, #92]
 538:external/drivers/stm32wlxx/src/stm32wlxx_hal_dma.c ****     }
 1018              		.loc 1 538 43 view .LVU354
 1019 0060 5160     		str	r1, [r2, #4]
 1020              	.L63:
 542:external/drivers/stm32wlxx/src/stm32wlxx_hal_dma.c **** 
 1021              		.loc 1 542 5 is_stmt 1 view .LVU355
 542:external/drivers/stm32wlxx/src/stm32wlxx_hal_dma.c **** 
 1022              		.loc 1 542 17 is_stmt 0 view .LVU356
 1023 0062 0122     		movs	r2, #1
 1024 0064 83F82520 		strb	r2, [r3, #37]
 545:external/drivers/stm32wlxx/src/stm32wlxx_hal_dma.c ****   }
 1025              		.loc 1 545 5 is_stmt 1 view .LVU357
 545:external/drivers/stm32wlxx/src/stm32wlxx_hal_dma.c ****   }
 1026              		.loc 1 545 5 view .LVU358
 1027 0068 0020     		movs	r0, #0
 1028 006a 83F82400 		strb	r0, [r3, #36]
 545:external/drivers/stm32wlxx/src/stm32wlxx_hal_dma.c ****   }
 1029              		.loc 1 545 5 view .LVU359
 548:external/drivers/stm32wlxx/src/stm32wlxx_hal_dma.c **** }
 1030              		.loc 1 548 3 view .LVU360
 548:external/drivers/stm32wlxx/src/stm32wlxx_hal_dma.c **** }
 1031              		.loc 1 548 10 is_stmt 0 view .LVU361
 1032 006e 7047     		bx	lr
 1033              	.LVL52:
 1034              	.L64:
 501:external/drivers/stm32wlxx/src/stm32wlxx_hal_dma.c ****   }
 1035              		.loc 1 501 12 view .LVU362
ARM GAS  /tmp/ccmjCdRm.s 			page 47


 1036 0070 0120     		movs	r0, #1
 1037              	.LVL53:
 549:external/drivers/stm32wlxx/src/stm32wlxx_hal_dma.c **** 
 1038              		.loc 1 549 1 view .LVU363
 1039 0072 7047     		bx	lr
 1040              		.cfi_endproc
 1041              	.LFE848:
 1043              		.section	.text.HAL_DMA_Abort_IT,"ax",%progbits
 1044              		.align	1
 1045              		.global	HAL_DMA_Abort_IT
 1046              		.syntax unified
 1047              		.thumb
 1048              		.thumb_func
 1050              	HAL_DMA_Abort_IT:
 1051              	.LVL54:
 1052              	.LFB849:
 558:external/drivers/stm32wlxx/src/stm32wlxx_hal_dma.c ****   HAL_StatusTypeDef status = HAL_OK;
 1053              		.loc 1 558 1 is_stmt 1 view -0
 1054              		.cfi_startproc
 1055              		@ args = 0, pretend = 0, frame = 0
 1056              		@ frame_needed = 0, uses_anonymous_args = 0
 558:external/drivers/stm32wlxx/src/stm32wlxx_hal_dma.c ****   HAL_StatusTypeDef status = HAL_OK;
 1057              		.loc 1 558 1 is_stmt 0 view .LVU365
 1058 0000 08B5     		push	{r3, lr}
 1059              	.LCFI9:
 1060              		.cfi_def_cfa_offset 8
 1061              		.cfi_offset 3, -8
 1062              		.cfi_offset 14, -4
 559:external/drivers/stm32wlxx/src/stm32wlxx_hal_dma.c **** 
 1063              		.loc 1 559 3 is_stmt 1 view .LVU366
 1064              	.LVL55:
 561:external/drivers/stm32wlxx/src/stm32wlxx_hal_dma.c ****   {
 1065              		.loc 1 561 3 view .LVU367
 561:external/drivers/stm32wlxx/src/stm32wlxx_hal_dma.c ****   {
 1066              		.loc 1 561 11 is_stmt 0 view .LVU368
 1067 0002 90F82530 		ldrb	r3, [r0, #37]	@ zero_extendqisi2
 1068 0006 DBB2     		uxtb	r3, r3
 561:external/drivers/stm32wlxx/src/stm32wlxx_hal_dma.c ****   {
 1069              		.loc 1 561 6 view .LVU369
 1070 0008 022B     		cmp	r3, #2
 1071 000a 03D0     		beq	.L66
 564:external/drivers/stm32wlxx/src/stm32wlxx_hal_dma.c **** 
 1072              		.loc 1 564 5 is_stmt 1 view .LVU370
 564:external/drivers/stm32wlxx/src/stm32wlxx_hal_dma.c **** 
 1073              		.loc 1 564 21 is_stmt 0 view .LVU371
 1074 000c 0423     		movs	r3, #4
 1075 000e C363     		str	r3, [r0, #60]
 566:external/drivers/stm32wlxx/src/stm32wlxx_hal_dma.c ****   }
 1076              		.loc 1 566 5 is_stmt 1 view .LVU372
 1077              	.LVL56:
 566:external/drivers/stm32wlxx/src/stm32wlxx_hal_dma.c ****   }
 1078              		.loc 1 566 12 is_stmt 0 view .LVU373
 1079 0010 0120     		movs	r0, #1
 1080              	.LVL57:
 1081              	.L67:
 607:external/drivers/stm32wlxx/src/stm32wlxx_hal_dma.c **** }
 1082              		.loc 1 607 3 is_stmt 1 view .LVU374
ARM GAS  /tmp/ccmjCdRm.s 			page 48


 608:external/drivers/stm32wlxx/src/stm32wlxx_hal_dma.c **** 
 1083              		.loc 1 608 1 is_stmt 0 view .LVU375
 1084 0012 08BD     		pop	{r3, pc}
 1085              	.LVL58:
 1086              	.L66:
 571:external/drivers/stm32wlxx/src/stm32wlxx_hal_dma.c **** 
 1087              		.loc 1 571 5 is_stmt 1 view .LVU376
 1088 0014 0268     		ldr	r2, [r0]
 1089 0016 1368     		ldr	r3, [r2]
 1090 0018 23F00103 		bic	r3, r3, #1
 1091 001c 1360     		str	r3, [r2]
 574:external/drivers/stm32wlxx/src/stm32wlxx_hal_dma.c **** 
 1092              		.loc 1 574 5 view .LVU377
 1093 001e 0268     		ldr	r2, [r0]
 1094 0020 1368     		ldr	r3, [r2]
 1095 0022 23F00E03 		bic	r3, r3, #14
 1096 0026 1360     		str	r3, [r2]
 577:external/drivers/stm32wlxx/src/stm32wlxx_hal_dma.c **** 
 1097              		.loc 1 577 5 view .LVU378
 577:external/drivers/stm32wlxx/src/stm32wlxx_hal_dma.c **** 
 1098              		.loc 1 577 9 is_stmt 0 view .LVU379
 1099 0028 826C     		ldr	r2, [r0, #72]
 577:external/drivers/stm32wlxx/src/stm32wlxx_hal_dma.c **** 
 1100              		.loc 1 577 24 view .LVU380
 1101 002a 1368     		ldr	r3, [r2]
 577:external/drivers/stm32wlxx/src/stm32wlxx_hal_dma.c **** 
 1102              		.loc 1 577 30 view .LVU381
 1103 002c 23F48073 		bic	r3, r3, #256
 1104 0030 1360     		str	r3, [r2]
 580:external/drivers/stm32wlxx/src/stm32wlxx_hal_dma.c **** 
 1105              		.loc 1 580 5 is_stmt 1 view .LVU382
 580:external/drivers/stm32wlxx/src/stm32wlxx_hal_dma.c **** 
 1106              		.loc 1 580 56 is_stmt 0 view .LVU383
 1107 0032 436C     		ldr	r3, [r0, #68]
 580:external/drivers/stm32wlxx/src/stm32wlxx_hal_dma.c **** 
 1108              		.loc 1 580 71 view .LVU384
 1109 0034 03F01C02 		and	r2, r3, #28
 580:external/drivers/stm32wlxx/src/stm32wlxx_hal_dma.c **** 
 1110              		.loc 1 580 9 view .LVU385
 1111 0038 016C     		ldr	r1, [r0, #64]
 580:external/drivers/stm32wlxx/src/stm32wlxx_hal_dma.c **** 
 1112              		.loc 1 580 48 view .LVU386
 1113 003a 0123     		movs	r3, #1
 1114 003c 9340     		lsls	r3, r3, r2
 580:external/drivers/stm32wlxx/src/stm32wlxx_hal_dma.c **** 
 1115              		.loc 1 580 32 view .LVU387
 1116 003e 4B60     		str	r3, [r1, #4]
 583:external/drivers/stm32wlxx/src/stm32wlxx_hal_dma.c **** 
 1117              		.loc 1 583 5 is_stmt 1 view .LVU388
 583:external/drivers/stm32wlxx/src/stm32wlxx_hal_dma.c **** 
 1118              		.loc 1 583 9 is_stmt 0 view .LVU389
 1119 0040 C36C     		ldr	r3, [r0, #76]
 583:external/drivers/stm32wlxx/src/stm32wlxx_hal_dma.c **** 
 1120              		.loc 1 583 42 view .LVU390
 1121 0042 026D     		ldr	r2, [r0, #80]
 583:external/drivers/stm32wlxx/src/stm32wlxx_hal_dma.c **** 
 1122              		.loc 1 583 36 view .LVU391
ARM GAS  /tmp/ccmjCdRm.s 			page 49


 1123 0044 5A60     		str	r2, [r3, #4]
 585:external/drivers/stm32wlxx/src/stm32wlxx_hal_dma.c ****     {
 1124              		.loc 1 585 5 is_stmt 1 view .LVU392
 585:external/drivers/stm32wlxx/src/stm32wlxx_hal_dma.c ****     {
 1125              		.loc 1 585 13 is_stmt 0 view .LVU393
 1126 0046 436D     		ldr	r3, [r0, #84]
 585:external/drivers/stm32wlxx/src/stm32wlxx_hal_dma.c ****     {
 1127              		.loc 1 585 8 view .LVU394
 1128 0048 33B1     		cbz	r3, .L68
 589:external/drivers/stm32wlxx/src/stm32wlxx_hal_dma.c **** 
 1129              		.loc 1 589 7 is_stmt 1 view .LVU395
 589:external/drivers/stm32wlxx/src/stm32wlxx_hal_dma.c **** 
 1130              		.loc 1 589 29 is_stmt 0 view .LVU396
 1131 004a 1A68     		ldr	r2, [r3]
 589:external/drivers/stm32wlxx/src/stm32wlxx_hal_dma.c **** 
 1132              		.loc 1 589 36 view .LVU397
 1133 004c 22F48072 		bic	r2, r2, #256
 1134 0050 1A60     		str	r2, [r3]
 592:external/drivers/stm32wlxx/src/stm32wlxx_hal_dma.c ****     }
 1135              		.loc 1 592 7 is_stmt 1 view .LVU398
 592:external/drivers/stm32wlxx/src/stm32wlxx_hal_dma.c ****     }
 1136              		.loc 1 592 11 is_stmt 0 view .LVU399
 1137 0052 836D     		ldr	r3, [r0, #88]
 592:external/drivers/stm32wlxx/src/stm32wlxx_hal_dma.c ****     }
 1138              		.loc 1 592 49 view .LVU400
 1139 0054 C26D     		ldr	r2, [r0, #92]
 592:external/drivers/stm32wlxx/src/stm32wlxx_hal_dma.c ****     }
 1140              		.loc 1 592 43 view .LVU401
 1141 0056 5A60     		str	r2, [r3, #4]
 1142              	.L68:
 596:external/drivers/stm32wlxx/src/stm32wlxx_hal_dma.c **** 
 1143              		.loc 1 596 5 is_stmt 1 view .LVU402
 596:external/drivers/stm32wlxx/src/stm32wlxx_hal_dma.c **** 
 1144              		.loc 1 596 17 is_stmt 0 view .LVU403
 1145 0058 0123     		movs	r3, #1
 1146 005a 80F82530 		strb	r3, [r0, #37]
 599:external/drivers/stm32wlxx/src/stm32wlxx_hal_dma.c **** 
 1147              		.loc 1 599 5 is_stmt 1 view .LVU404
 599:external/drivers/stm32wlxx/src/stm32wlxx_hal_dma.c **** 
 1148              		.loc 1 599 5 view .LVU405
 1149 005e 0023     		movs	r3, #0
 1150 0060 80F82430 		strb	r3, [r0, #36]
 599:external/drivers/stm32wlxx/src/stm32wlxx_hal_dma.c **** 
 1151              		.loc 1 599 5 view .LVU406
 602:external/drivers/stm32wlxx/src/stm32wlxx_hal_dma.c ****     {
 1152              		.loc 1 602 5 view .LVU407
 602:external/drivers/stm32wlxx/src/stm32wlxx_hal_dma.c ****     {
 1153              		.loc 1 602 13 is_stmt 0 view .LVU408
 1154 0064 836B     		ldr	r3, [r0, #56]
 602:external/drivers/stm32wlxx/src/stm32wlxx_hal_dma.c ****     {
 1155              		.loc 1 602 8 view .LVU409
 1156 0066 13B1     		cbz	r3, .L69
 604:external/drivers/stm32wlxx/src/stm32wlxx_hal_dma.c ****     }
 1157              		.loc 1 604 7 is_stmt 1 view .LVU410
 1158 0068 9847     		blx	r3
 1159              	.LVL59:
 559:external/drivers/stm32wlxx/src/stm32wlxx_hal_dma.c **** 
ARM GAS  /tmp/ccmjCdRm.s 			page 50


 1160              		.loc 1 559 21 is_stmt 0 view .LVU411
 1161 006a 0020     		movs	r0, #0
 1162 006c D1E7     		b	.L67
 1163              	.LVL60:
 1164              	.L69:
 559:external/drivers/stm32wlxx/src/stm32wlxx_hal_dma.c **** 
 1165              		.loc 1 559 21 view .LVU412
 1166 006e 0020     		movs	r0, #0
 1167              	.LVL61:
 559:external/drivers/stm32wlxx/src/stm32wlxx_hal_dma.c **** 
 1168              		.loc 1 559 21 view .LVU413
 1169 0070 CFE7     		b	.L67
 1170              		.cfi_endproc
 1171              	.LFE849:
 1173              		.section	.text.HAL_DMA_PollForTransfer,"ax",%progbits
 1174              		.align	1
 1175              		.global	HAL_DMA_PollForTransfer
 1176              		.syntax unified
 1177              		.thumb
 1178              		.thumb_func
 1180              	HAL_DMA_PollForTransfer:
 1181              	.LVL62:
 1182              	.LFB850:
 620:external/drivers/stm32wlxx/src/stm32wlxx_hal_dma.c ****   uint32_t temp;
 1183              		.loc 1 620 1 is_stmt 1 view -0
 1184              		.cfi_startproc
 1185              		@ args = 0, pretend = 0, frame = 0
 1186              		@ frame_needed = 0, uses_anonymous_args = 0
 620:external/drivers/stm32wlxx/src/stm32wlxx_hal_dma.c ****   uint32_t temp;
 1187              		.loc 1 620 1 is_stmt 0 view .LVU415
 1188 0000 2DE9F041 		push	{r4, r5, r6, r7, r8, lr}
 1189              	.LCFI10:
 1190              		.cfi_def_cfa_offset 24
 1191              		.cfi_offset 4, -24
 1192              		.cfi_offset 5, -20
 1193              		.cfi_offset 6, -16
 1194              		.cfi_offset 7, -12
 1195              		.cfi_offset 8, -8
 1196              		.cfi_offset 14, -4
 1197 0004 0446     		mov	r4, r0
 621:external/drivers/stm32wlxx/src/stm32wlxx_hal_dma.c ****   uint32_t tickstart;
 1198              		.loc 1 621 3 is_stmt 1 view .LVU416
 622:external/drivers/stm32wlxx/src/stm32wlxx_hal_dma.c **** 
 1199              		.loc 1 622 3 view .LVU417
 624:external/drivers/stm32wlxx/src/stm32wlxx_hal_dma.c ****   {
 1200              		.loc 1 624 3 view .LVU418
 624:external/drivers/stm32wlxx/src/stm32wlxx_hal_dma.c ****   {
 1201              		.loc 1 624 11 is_stmt 0 view .LVU419
 1202 0006 90F82530 		ldrb	r3, [r0, #37]	@ zero_extendqisi2
 1203 000a DBB2     		uxtb	r3, r3
 624:external/drivers/stm32wlxx/src/stm32wlxx_hal_dma.c ****   {
 1204              		.loc 1 624 6 view .LVU420
 1205 000c 022B     		cmp	r3, #2
 1206 000e 07D0     		beq	.L72
 627:external/drivers/stm32wlxx/src/stm32wlxx_hal_dma.c ****     __HAL_UNLOCK(hdma);
 1207              		.loc 1 627 5 is_stmt 1 view .LVU421
 627:external/drivers/stm32wlxx/src/stm32wlxx_hal_dma.c ****     __HAL_UNLOCK(hdma);
ARM GAS  /tmp/ccmjCdRm.s 			page 51


 1208              		.loc 1 627 21 is_stmt 0 view .LVU422
 1209 0010 0423     		movs	r3, #4
 1210 0012 C363     		str	r3, [r0, #60]
 628:external/drivers/stm32wlxx/src/stm32wlxx_hal_dma.c ****     return HAL_ERROR;
 1211              		.loc 1 628 5 is_stmt 1 view .LVU423
 628:external/drivers/stm32wlxx/src/stm32wlxx_hal_dma.c ****     return HAL_ERROR;
 1212              		.loc 1 628 5 view .LVU424
 1213 0014 0023     		movs	r3, #0
 1214 0016 80F82430 		strb	r3, [r0, #36]
 628:external/drivers/stm32wlxx/src/stm32wlxx_hal_dma.c ****     return HAL_ERROR;
 1215              		.loc 1 628 5 view .LVU425
 629:external/drivers/stm32wlxx/src/stm32wlxx_hal_dma.c ****   }
 1216              		.loc 1 629 5 view .LVU426
 629:external/drivers/stm32wlxx/src/stm32wlxx_hal_dma.c ****   }
 1217              		.loc 1 629 12 is_stmt 0 view .LVU427
 1218 001a 0120     		movs	r0, #1
 1219              	.LVL63:
 1220              	.L73:
 739:external/drivers/stm32wlxx/src/stm32wlxx_hal_dma.c **** 
 1221              		.loc 1 739 1 view .LVU428
 1222 001c BDE8F081 		pop	{r4, r5, r6, r7, r8, pc}
 1223              	.LVL64:
 1224              	.L72:
 739:external/drivers/stm32wlxx/src/stm32wlxx_hal_dma.c **** 
 1225              		.loc 1 739 1 view .LVU429
 1226 0020 0E46     		mov	r6, r1
 1227 0022 1546     		mov	r5, r2
 633:external/drivers/stm32wlxx/src/stm32wlxx_hal_dma.c ****   {
 1228              		.loc 1 633 3 is_stmt 1 view .LVU430
 633:external/drivers/stm32wlxx/src/stm32wlxx_hal_dma.c ****   {
 1229              		.loc 1 633 12 is_stmt 0 view .LVU431
 1230 0024 0368     		ldr	r3, [r0]
 633:external/drivers/stm32wlxx/src/stm32wlxx_hal_dma.c ****   {
 1231              		.loc 1 633 22 view .LVU432
 1232 0026 1B68     		ldr	r3, [r3]
 633:external/drivers/stm32wlxx/src/stm32wlxx_hal_dma.c ****   {
 1233              		.loc 1 633 6 view .LVU433
 1234 0028 13F0200F 		tst	r3, #32
 1235 002c 2BD1     		bne	.L86
 640:external/drivers/stm32wlxx/src/stm32wlxx_hal_dma.c ****   {
 1236              		.loc 1 640 3 is_stmt 1 view .LVU434
 640:external/drivers/stm32wlxx/src/stm32wlxx_hal_dma.c ****   {
 1237              		.loc 1 640 6 is_stmt 0 view .LVU435
 1238 002e 79BB     		cbnz	r1, .L75
 643:external/drivers/stm32wlxx/src/stm32wlxx_hal_dma.c ****   }
 1239              		.loc 1 643 5 is_stmt 1 view .LVU436
 643:external/drivers/stm32wlxx/src/stm32wlxx_hal_dma.c ****   }
 1240              		.loc 1 643 33 is_stmt 0 view .LVU437
 1241 0030 436C     		ldr	r3, [r0, #68]
 643:external/drivers/stm32wlxx/src/stm32wlxx_hal_dma.c ****   }
 1242              		.loc 1 643 48 view .LVU438
 1243 0032 03F01C03 		and	r3, r3, #28
 643:external/drivers/stm32wlxx/src/stm32wlxx_hal_dma.c ****   }
 1244              		.loc 1 643 10 view .LVU439
 1245 0036 0227     		movs	r7, #2
 1246 0038 9F40     		lsls	r7, r7, r3
 1247              	.LVL65:
ARM GAS  /tmp/ccmjCdRm.s 			page 52


 1248              	.L76:
 652:external/drivers/stm32wlxx/src/stm32wlxx_hal_dma.c **** 
 1249              		.loc 1 652 3 is_stmt 1 view .LVU440
 652:external/drivers/stm32wlxx/src/stm32wlxx_hal_dma.c **** 
 1250              		.loc 1 652 15 is_stmt 0 view .LVU441
 1251 003a FFF7FEFF 		bl	HAL_GetTick
 1252              	.LVL66:
 652:external/drivers/stm32wlxx/src/stm32wlxx_hal_dma.c **** 
 1253              		.loc 1 652 15 view .LVU442
 1254 003e 8046     		mov	r8, r0
 1255              	.LVL67:
 654:external/drivers/stm32wlxx/src/stm32wlxx_hal_dma.c ****   {
 1256              		.loc 1 654 3 is_stmt 1 view .LVU443
 1257              	.L79:
 654:external/drivers/stm32wlxx/src/stm32wlxx_hal_dma.c ****   {
 1258              		.loc 1 654 45 view .LVU444
 654:external/drivers/stm32wlxx/src/stm32wlxx_hal_dma.c ****   {
 1259              		.loc 1 654 15 is_stmt 0 view .LVU445
 1260 0040 226C     		ldr	r2, [r4, #64]
 654:external/drivers/stm32wlxx/src/stm32wlxx_hal_dma.c ****   {
 1261              		.loc 1 654 31 view .LVU446
 1262 0042 1368     		ldr	r3, [r2]
 654:external/drivers/stm32wlxx/src/stm32wlxx_hal_dma.c ****   {
 1263              		.loc 1 654 45 view .LVU447
 1264 0044 3B42     		tst	r3, r7
 1265 0046 34D1     		bne	.L87
 656:external/drivers/stm32wlxx/src/stm32wlxx_hal_dma.c ****     {
 1266              		.loc 1 656 5 is_stmt 1 view .LVU448
 656:external/drivers/stm32wlxx/src/stm32wlxx_hal_dma.c ****     {
 1267              		.loc 1 656 30 is_stmt 0 view .LVU449
 1268 0048 1168     		ldr	r1, [r2]
 656:external/drivers/stm32wlxx/src/stm32wlxx_hal_dma.c ****     {
 1269              		.loc 1 656 60 view .LVU450
 1270 004a 636C     		ldr	r3, [r4, #68]
 656:external/drivers/stm32wlxx/src/stm32wlxx_hal_dma.c ****     {
 1271              		.loc 1 656 75 view .LVU451
 1272 004c 03F01C03 		and	r3, r3, #28
 656:external/drivers/stm32wlxx/src/stm32wlxx_hal_dma.c ****     {
 1273              		.loc 1 656 52 view .LVU452
 1274 0050 4FF0080C 		mov	ip, #8
 1275 0054 0CFA03FC 		lsl	ip, ip, r3
 656:external/drivers/stm32wlxx/src/stm32wlxx_hal_dma.c ****     {
 1276              		.loc 1 656 8 view .LVU453
 1277 0058 11EA0C0F 		tst	r1, ip
 1278 005c 1ED1     		bne	.L88
 675:external/drivers/stm32wlxx/src/stm32wlxx_hal_dma.c ****     {
 1279              		.loc 1 675 5 is_stmt 1 view .LVU454
 675:external/drivers/stm32wlxx/src/stm32wlxx_hal_dma.c ****     {
 1280              		.loc 1 675 8 is_stmt 0 view .LVU455
 1281 005e B5F1FF3F 		cmp	r5, #-1
 1282 0062 EDD0     		beq	.L79
 677:external/drivers/stm32wlxx/src/stm32wlxx_hal_dma.c ****       {
 1283              		.loc 1 677 7 is_stmt 1 view .LVU456
 677:external/drivers/stm32wlxx/src/stm32wlxx_hal_dma.c ****       {
 1284              		.loc 1 677 13 is_stmt 0 view .LVU457
 1285 0064 FFF7FEFF 		bl	HAL_GetTick
 1286              	.LVL68:
ARM GAS  /tmp/ccmjCdRm.s 			page 53


 677:external/drivers/stm32wlxx/src/stm32wlxx_hal_dma.c ****       {
 1287              		.loc 1 677 27 discriminator 1 view .LVU458
 1288 0068 A0EB0800 		sub	r0, r0, r8
 677:external/drivers/stm32wlxx/src/stm32wlxx_hal_dma.c ****       {
 1289              		.loc 1 677 10 discriminator 1 view .LVU459
 1290 006c A842     		cmp	r0, r5
 1291 006e 01D8     		bhi	.L80
 677:external/drivers/stm32wlxx/src/stm32wlxx_hal_dma.c ****       {
 1292              		.loc 1 677 51 discriminator 1 view .LVU460
 1293 0070 002D     		cmp	r5, #0
 1294 0072 E5D1     		bne	.L79
 1295              	.L80:
 680:external/drivers/stm32wlxx/src/stm32wlxx_hal_dma.c **** 
 1296              		.loc 1 680 9 is_stmt 1 view .LVU461
 680:external/drivers/stm32wlxx/src/stm32wlxx_hal_dma.c **** 
 1297              		.loc 1 680 25 is_stmt 0 view .LVU462
 1298 0074 2023     		movs	r3, #32
 1299 0076 E363     		str	r3, [r4, #60]
 683:external/drivers/stm32wlxx/src/stm32wlxx_hal_dma.c **** 
 1300              		.loc 1 683 9 is_stmt 1 view .LVU463
 683:external/drivers/stm32wlxx/src/stm32wlxx_hal_dma.c **** 
 1301              		.loc 1 683 21 is_stmt 0 view .LVU464
 1302 0078 0120     		movs	r0, #1
 1303 007a 84F82500 		strb	r0, [r4, #37]
 686:external/drivers/stm32wlxx/src/stm32wlxx_hal_dma.c **** 
 1304              		.loc 1 686 9 is_stmt 1 view .LVU465
 686:external/drivers/stm32wlxx/src/stm32wlxx_hal_dma.c **** 
 1305              		.loc 1 686 9 view .LVU466
 1306 007e 0023     		movs	r3, #0
 1307 0080 84F82430 		strb	r3, [r4, #36]
 686:external/drivers/stm32wlxx/src/stm32wlxx_hal_dma.c **** 
 1308              		.loc 1 686 9 view .LVU467
 688:external/drivers/stm32wlxx/src/stm32wlxx_hal_dma.c ****       }
 1309              		.loc 1 688 9 view .LVU468
 688:external/drivers/stm32wlxx/src/stm32wlxx_hal_dma.c ****       }
 1310              		.loc 1 688 16 is_stmt 0 view .LVU469
 1311 0084 CAE7     		b	.L73
 1312              	.LVL69:
 1313              	.L86:
 635:external/drivers/stm32wlxx/src/stm32wlxx_hal_dma.c ****     return HAL_ERROR;
 1314              		.loc 1 635 5 is_stmt 1 view .LVU470
 635:external/drivers/stm32wlxx/src/stm32wlxx_hal_dma.c ****     return HAL_ERROR;
 1315              		.loc 1 635 21 is_stmt 0 view .LVU471
 1316 0086 4FF48073 		mov	r3, #256
 1317 008a C363     		str	r3, [r0, #60]
 636:external/drivers/stm32wlxx/src/stm32wlxx_hal_dma.c ****   }
 1318              		.loc 1 636 5 is_stmt 1 view .LVU472
 636:external/drivers/stm32wlxx/src/stm32wlxx_hal_dma.c ****   }
 1319              		.loc 1 636 12 is_stmt 0 view .LVU473
 1320 008c 0120     		movs	r0, #1
 1321              	.LVL70:
 636:external/drivers/stm32wlxx/src/stm32wlxx_hal_dma.c ****   }
 1322              		.loc 1 636 12 view .LVU474
 1323 008e C5E7     		b	.L73
 1324              	.LVL71:
 1325              	.L75:
 648:external/drivers/stm32wlxx/src/stm32wlxx_hal_dma.c ****   }
ARM GAS  /tmp/ccmjCdRm.s 			page 54


 1326              		.loc 1 648 5 is_stmt 1 view .LVU475
 648:external/drivers/stm32wlxx/src/stm32wlxx_hal_dma.c ****   }
 1327              		.loc 1 648 33 is_stmt 0 view .LVU476
 1328 0090 436C     		ldr	r3, [r0, #68]
 648:external/drivers/stm32wlxx/src/stm32wlxx_hal_dma.c ****   }
 1329              		.loc 1 648 48 view .LVU477
 1330 0092 03F01C03 		and	r3, r3, #28
 648:external/drivers/stm32wlxx/src/stm32wlxx_hal_dma.c ****   }
 1331              		.loc 1 648 10 view .LVU478
 1332 0096 0427     		movs	r7, #4
 1333 0098 9F40     		lsls	r7, r7, r3
 1334              	.LVL72:
 648:external/drivers/stm32wlxx/src/stm32wlxx_hal_dma.c ****   }
 1335              		.loc 1 648 10 view .LVU479
 1336 009a CEE7     		b	.L76
 1337              	.LVL73:
 1338              	.L88:
 661:external/drivers/stm32wlxx/src/stm32wlxx_hal_dma.c **** 
 1339              		.loc 1 661 7 is_stmt 1 view .LVU480
 661:external/drivers/stm32wlxx/src/stm32wlxx_hal_dma.c **** 
 1340              		.loc 1 661 50 is_stmt 0 view .LVU481
 1341 009c 0120     		movs	r0, #1
 1342 009e 00FA03F3 		lsl	r3, r0, r3
 661:external/drivers/stm32wlxx/src/stm32wlxx_hal_dma.c **** 
 1343              		.loc 1 661 34 view .LVU482
 1344 00a2 5360     		str	r3, [r2, #4]
 664:external/drivers/stm32wlxx/src/stm32wlxx_hal_dma.c **** 
 1345              		.loc 1 664 7 is_stmt 1 view .LVU483
 664:external/drivers/stm32wlxx/src/stm32wlxx_hal_dma.c **** 
 1346              		.loc 1 664 23 is_stmt 0 view .LVU484
 1347 00a4 E063     		str	r0, [r4, #60]
 667:external/drivers/stm32wlxx/src/stm32wlxx_hal_dma.c **** 
 1348              		.loc 1 667 7 is_stmt 1 view .LVU485
 667:external/drivers/stm32wlxx/src/stm32wlxx_hal_dma.c **** 
 1349              		.loc 1 667 19 is_stmt 0 view .LVU486
 1350 00a6 84F82500 		strb	r0, [r4, #37]
 670:external/drivers/stm32wlxx/src/stm32wlxx_hal_dma.c **** 
 1351              		.loc 1 670 7 is_stmt 1 view .LVU487
 670:external/drivers/stm32wlxx/src/stm32wlxx_hal_dma.c **** 
 1352              		.loc 1 670 7 view .LVU488
 1353 00aa 0023     		movs	r3, #0
 1354 00ac 84F82430 		strb	r3, [r4, #36]
 670:external/drivers/stm32wlxx/src/stm32wlxx_hal_dma.c **** 
 1355              		.loc 1 670 7 view .LVU489
 672:external/drivers/stm32wlxx/src/stm32wlxx_hal_dma.c ****     }
 1356              		.loc 1 672 7 view .LVU490
 672:external/drivers/stm32wlxx/src/stm32wlxx_hal_dma.c ****     }
 1357              		.loc 1 672 14 is_stmt 0 view .LVU491
 1358 00b0 B4E7     		b	.L73
 1359              	.L87:
 694:external/drivers/stm32wlxx/src/stm32wlxx_hal_dma.c ****   {
 1360              		.loc 1 694 3 is_stmt 1 view .LVU492
 694:external/drivers/stm32wlxx/src/stm32wlxx_hal_dma.c ****   {
 1361              		.loc 1 694 11 is_stmt 0 view .LVU493
 1362 00b2 636D     		ldr	r3, [r4, #84]
 694:external/drivers/stm32wlxx/src/stm32wlxx_hal_dma.c ****   {
 1363              		.loc 1 694 6 view .LVU494
ARM GAS  /tmp/ccmjCdRm.s 			page 55


 1364 00b4 7BB1     		cbz	r3, .L82
 697:external/drivers/stm32wlxx/src/stm32wlxx_hal_dma.c ****     {
 1365              		.loc 1 697 5 is_stmt 1 view .LVU495
 697:external/drivers/stm32wlxx/src/stm32wlxx_hal_dma.c ****     {
 1366              		.loc 1 697 14 is_stmt 0 view .LVU496
 1367 00b6 A26D     		ldr	r2, [r4, #88]
 697:external/drivers/stm32wlxx/src/stm32wlxx_hal_dma.c ****     {
 1368              		.loc 1 697 38 view .LVU497
 1369 00b8 1168     		ldr	r1, [r2]
 697:external/drivers/stm32wlxx/src/stm32wlxx_hal_dma.c ****     {
 1370              		.loc 1 697 51 view .LVU498
 1371 00ba E26D     		ldr	r2, [r4, #92]
 697:external/drivers/stm32wlxx/src/stm32wlxx_hal_dma.c ****     {
 1372              		.loc 1 697 8 view .LVU499
 1373 00bc 1142     		tst	r1, r2
 1374 00be 0AD0     		beq	.L82
 700:external/drivers/stm32wlxx/src/stm32wlxx_hal_dma.c **** 
 1375              		.loc 1 700 7 is_stmt 1 view .LVU500
 700:external/drivers/stm32wlxx/src/stm32wlxx_hal_dma.c **** 
 1376              		.loc 1 700 29 is_stmt 0 view .LVU501
 1377 00c0 1A68     		ldr	r2, [r3]
 700:external/drivers/stm32wlxx/src/stm32wlxx_hal_dma.c **** 
 1378              		.loc 1 700 36 view .LVU502
 1379 00c2 42F48072 		orr	r2, r2, #256
 1380 00c6 1A60     		str	r2, [r3]
 703:external/drivers/stm32wlxx/src/stm32wlxx_hal_dma.c **** 
 1381              		.loc 1 703 7 is_stmt 1 view .LVU503
 703:external/drivers/stm32wlxx/src/stm32wlxx_hal_dma.c **** 
 1382              		.loc 1 703 11 is_stmt 0 view .LVU504
 1383 00c8 A36D     		ldr	r3, [r4, #88]
 703:external/drivers/stm32wlxx/src/stm32wlxx_hal_dma.c **** 
 1384              		.loc 1 703 49 view .LVU505
 1385 00ca E26D     		ldr	r2, [r4, #92]
 703:external/drivers/stm32wlxx/src/stm32wlxx_hal_dma.c **** 
 1386              		.loc 1 703 43 view .LVU506
 1387 00cc 5A60     		str	r2, [r3, #4]
 706:external/drivers/stm32wlxx/src/stm32wlxx_hal_dma.c ****     }
 1388              		.loc 1 706 7 is_stmt 1 view .LVU507
 706:external/drivers/stm32wlxx/src/stm32wlxx_hal_dma.c ****     }
 1389              		.loc 1 706 11 is_stmt 0 view .LVU508
 1390 00ce E36B     		ldr	r3, [r4, #60]
 706:external/drivers/stm32wlxx/src/stm32wlxx_hal_dma.c ****     }
 1391              		.loc 1 706 23 view .LVU509
 1392 00d0 43F48063 		orr	r3, r3, #1024
 1393 00d4 E363     		str	r3, [r4, #60]
 1394              	.L82:
 711:external/drivers/stm32wlxx/src/stm32wlxx_hal_dma.c ****   {
 1395              		.loc 1 711 3 is_stmt 1 view .LVU510
 711:external/drivers/stm32wlxx/src/stm32wlxx_hal_dma.c ****   {
 1396              		.loc 1 711 12 is_stmt 0 view .LVU511
 1397 00d6 E36C     		ldr	r3, [r4, #76]
 711:external/drivers/stm32wlxx/src/stm32wlxx_hal_dma.c ****   {
 1398              		.loc 1 711 33 view .LVU512
 1399 00d8 1968     		ldr	r1, [r3]
 711:external/drivers/stm32wlxx/src/stm32wlxx_hal_dma.c ****   {
 1400              		.loc 1 711 45 view .LVU513
 1401 00da 226D     		ldr	r2, [r4, #80]
ARM GAS  /tmp/ccmjCdRm.s 			page 56


 711:external/drivers/stm32wlxx/src/stm32wlxx_hal_dma.c ****   {
 1402              		.loc 1 711 6 view .LVU514
 1403 00dc 1142     		tst	r1, r2
 1404 00de 04D0     		beq	.L83
 714:external/drivers/stm32wlxx/src/stm32wlxx_hal_dma.c **** 
 1405              		.loc 1 714 5 is_stmt 1 view .LVU515
 714:external/drivers/stm32wlxx/src/stm32wlxx_hal_dma.c **** 
 1406              		.loc 1 714 36 is_stmt 0 view .LVU516
 1407 00e0 5A60     		str	r2, [r3, #4]
 717:external/drivers/stm32wlxx/src/stm32wlxx_hal_dma.c ****   }
 1408              		.loc 1 717 5 is_stmt 1 view .LVU517
 717:external/drivers/stm32wlxx/src/stm32wlxx_hal_dma.c ****   }
 1409              		.loc 1 717 9 is_stmt 0 view .LVU518
 1410 00e2 E36B     		ldr	r3, [r4, #60]
 717:external/drivers/stm32wlxx/src/stm32wlxx_hal_dma.c ****   }
 1411              		.loc 1 717 21 view .LVU519
 1412 00e4 43F40073 		orr	r3, r3, #512
 1413 00e8 E363     		str	r3, [r4, #60]
 1414              	.L83:
 720:external/drivers/stm32wlxx/src/stm32wlxx_hal_dma.c ****   {
 1415              		.loc 1 720 3 is_stmt 1 view .LVU520
 720:external/drivers/stm32wlxx/src/stm32wlxx_hal_dma.c ****   {
 1416              		.loc 1 720 6 is_stmt 0 view .LVU521
 1417 00ea 76B9     		cbnz	r6, .L84
 723:external/drivers/stm32wlxx/src/stm32wlxx_hal_dma.c **** 
 1418              		.loc 1 723 5 is_stmt 1 view .LVU522
 723:external/drivers/stm32wlxx/src/stm32wlxx_hal_dma.c **** 
 1419              		.loc 1 723 56 is_stmt 0 view .LVU523
 1420 00ec 636C     		ldr	r3, [r4, #68]
 723:external/drivers/stm32wlxx/src/stm32wlxx_hal_dma.c **** 
 1421              		.loc 1 723 71 view .LVU524
 1422 00ee 03F01C02 		and	r2, r3, #28
 723:external/drivers/stm32wlxx/src/stm32wlxx_hal_dma.c **** 
 1423              		.loc 1 723 9 view .LVU525
 1424 00f2 216C     		ldr	r1, [r4, #64]
 723:external/drivers/stm32wlxx/src/stm32wlxx_hal_dma.c **** 
 1425              		.loc 1 723 48 view .LVU526
 1426 00f4 0223     		movs	r3, #2
 1427 00f6 9340     		lsls	r3, r3, r2
 723:external/drivers/stm32wlxx/src/stm32wlxx_hal_dma.c **** 
 1428              		.loc 1 723 32 view .LVU527
 1429 00f8 4B60     		str	r3, [r1, #4]
 726:external/drivers/stm32wlxx/src/stm32wlxx_hal_dma.c **** 
 1430              		.loc 1 726 5 is_stmt 1 view .LVU528
 726:external/drivers/stm32wlxx/src/stm32wlxx_hal_dma.c **** 
 1431              		.loc 1 726 5 view .LVU529
 1432 00fa 0023     		movs	r3, #0
 1433 00fc 84F82430 		strb	r3, [r4, #36]
 726:external/drivers/stm32wlxx/src/stm32wlxx_hal_dma.c **** 
 1434              		.loc 1 726 5 view .LVU530
 730:external/drivers/stm32wlxx/src/stm32wlxx_hal_dma.c ****   }
 1435              		.loc 1 730 5 view .LVU531
 730:external/drivers/stm32wlxx/src/stm32wlxx_hal_dma.c ****   }
 1436              		.loc 1 730 17 is_stmt 0 view .LVU532
 1437 0100 0123     		movs	r3, #1
 1438 0102 84F82530 		strb	r3, [r4, #37]
 738:external/drivers/stm32wlxx/src/stm32wlxx_hal_dma.c **** }
ARM GAS  /tmp/ccmjCdRm.s 			page 57


 1439              		.loc 1 738 10 view .LVU533
 1440 0106 3046     		mov	r0, r6
 1441 0108 88E7     		b	.L73
 1442              	.L84:
 735:external/drivers/stm32wlxx/src/stm32wlxx_hal_dma.c ****   }
 1443              		.loc 1 735 5 is_stmt 1 view .LVU534
 735:external/drivers/stm32wlxx/src/stm32wlxx_hal_dma.c ****   }
 1444              		.loc 1 735 56 is_stmt 0 view .LVU535
 1445 010a 636C     		ldr	r3, [r4, #68]
 735:external/drivers/stm32wlxx/src/stm32wlxx_hal_dma.c ****   }
 1446              		.loc 1 735 71 view .LVU536
 1447 010c 03F01C02 		and	r2, r3, #28
 735:external/drivers/stm32wlxx/src/stm32wlxx_hal_dma.c ****   }
 1448              		.loc 1 735 9 view .LVU537
 1449 0110 216C     		ldr	r1, [r4, #64]
 735:external/drivers/stm32wlxx/src/stm32wlxx_hal_dma.c ****   }
 1450              		.loc 1 735 48 view .LVU538
 1451 0112 0423     		movs	r3, #4
 1452 0114 9340     		lsls	r3, r3, r2
 735:external/drivers/stm32wlxx/src/stm32wlxx_hal_dma.c ****   }
 1453              		.loc 1 735 32 view .LVU539
 1454 0116 4B60     		str	r3, [r1, #4]
 738:external/drivers/stm32wlxx/src/stm32wlxx_hal_dma.c **** }
 1455              		.loc 1 738 10 view .LVU540
 1456 0118 0020     		movs	r0, #0
 1457 011a 7FE7     		b	.L73
 1458              		.cfi_endproc
 1459              	.LFE850:
 1461              		.section	.text.HAL_DMA_IRQHandler,"ax",%progbits
 1462              		.align	1
 1463              		.global	HAL_DMA_IRQHandler
 1464              		.syntax unified
 1465              		.thumb
 1466              		.thumb_func
 1468              	HAL_DMA_IRQHandler:
 1469              	.LVL74:
 1470              	.LFB851:
 748:external/drivers/stm32wlxx/src/stm32wlxx_hal_dma.c ****   uint32_t flag_it = hdma->DmaBaseAddress->ISR;
 1471              		.loc 1 748 1 is_stmt 1 view -0
 1472              		.cfi_startproc
 1473              		@ args = 0, pretend = 0, frame = 0
 1474              		@ frame_needed = 0, uses_anonymous_args = 0
 748:external/drivers/stm32wlxx/src/stm32wlxx_hal_dma.c ****   uint32_t flag_it = hdma->DmaBaseAddress->ISR;
 1475              		.loc 1 748 1 is_stmt 0 view .LVU542
 1476 0000 38B5     		push	{r3, r4, r5, lr}
 1477              	.LCFI11:
 1478              		.cfi_def_cfa_offset 16
 1479              		.cfi_offset 3, -16
 1480              		.cfi_offset 4, -12
 1481              		.cfi_offset 5, -8
 1482              		.cfi_offset 14, -4
 749:external/drivers/stm32wlxx/src/stm32wlxx_hal_dma.c ****   uint32_t source_it = hdma->Instance->CCR;
 1483              		.loc 1 749 3 is_stmt 1 view .LVU543
 749:external/drivers/stm32wlxx/src/stm32wlxx_hal_dma.c ****   uint32_t source_it = hdma->Instance->CCR;
 1484              		.loc 1 749 26 is_stmt 0 view .LVU544
 1485 0002 036C     		ldr	r3, [r0, #64]
 749:external/drivers/stm32wlxx/src/stm32wlxx_hal_dma.c ****   uint32_t source_it = hdma->Instance->CCR;
ARM GAS  /tmp/ccmjCdRm.s 			page 58


 1486              		.loc 1 749 12 view .LVU545
 1487 0004 1968     		ldr	r1, [r3]
 1488              	.LVL75:
 750:external/drivers/stm32wlxx/src/stm32wlxx_hal_dma.c **** 
 1489              		.loc 1 750 3 is_stmt 1 view .LVU546
 750:external/drivers/stm32wlxx/src/stm32wlxx_hal_dma.c **** 
 1490              		.loc 1 750 28 is_stmt 0 view .LVU547
 1491 0006 0468     		ldr	r4, [r0]
 750:external/drivers/stm32wlxx/src/stm32wlxx_hal_dma.c **** 
 1492              		.loc 1 750 12 view .LVU548
 1493 0008 2568     		ldr	r5, [r4]
 1494              	.LVL76:
 753:external/drivers/stm32wlxx/src/stm32wlxx_hal_dma.c ****   {
 1495              		.loc 1 753 3 is_stmt 1 view .LVU549
 753:external/drivers/stm32wlxx/src/stm32wlxx_hal_dma.c ****   {
 1496              		.loc 1 753 41 is_stmt 0 view .LVU550
 1497 000a 436C     		ldr	r3, [r0, #68]
 753:external/drivers/stm32wlxx/src/stm32wlxx_hal_dma.c ****   {
 1498              		.loc 1 753 56 view .LVU551
 1499 000c 03F01C03 		and	r3, r3, #28
 753:external/drivers/stm32wlxx/src/stm32wlxx_hal_dma.c ****   {
 1500              		.loc 1 753 33 view .LVU552
 1501 0010 0422     		movs	r2, #4
 1502 0012 9A40     		lsls	r2, r2, r3
 753:external/drivers/stm32wlxx/src/stm32wlxx_hal_dma.c ****   {
 1503              		.loc 1 753 6 view .LVU553
 1504 0014 0A42     		tst	r2, r1
 1505 0016 15D0     		beq	.L90
 753:external/drivers/stm32wlxx/src/stm32wlxx_hal_dma.c ****   {
 1506              		.loc 1 753 74 discriminator 1 view .LVU554
 1507 0018 15F0040F 		tst	r5, #4
 1508 001c 12D0     		beq	.L90
 756:external/drivers/stm32wlxx/src/stm32wlxx_hal_dma.c ****     {
 1509              		.loc 1 756 5 is_stmt 1 view .LVU555
 756:external/drivers/stm32wlxx/src/stm32wlxx_hal_dma.c ****     {
 1510              		.loc 1 756 24 is_stmt 0 view .LVU556
 1511 001e 2368     		ldr	r3, [r4]
 756:external/drivers/stm32wlxx/src/stm32wlxx_hal_dma.c ****     {
 1512              		.loc 1 756 8 view .LVU557
 1513 0020 13F0200F 		tst	r3, #32
 1514 0024 03D1     		bne	.L91
 759:external/drivers/stm32wlxx/src/stm32wlxx_hal_dma.c ****     }
 1515              		.loc 1 759 7 is_stmt 1 view .LVU558
 1516 0026 2368     		ldr	r3, [r4]
 1517 0028 23F00403 		bic	r3, r3, #4
 1518 002c 2360     		str	r3, [r4]
 1519              	.L91:
 762:external/drivers/stm32wlxx/src/stm32wlxx_hal_dma.c **** 
 1520              		.loc 1 762 5 view .LVU559
 762:external/drivers/stm32wlxx/src/stm32wlxx_hal_dma.c **** 
 1521              		.loc 1 762 56 is_stmt 0 view .LVU560
 1522 002e 436C     		ldr	r3, [r0, #68]
 762:external/drivers/stm32wlxx/src/stm32wlxx_hal_dma.c **** 
 1523              		.loc 1 762 71 view .LVU561
 1524 0030 03F01C02 		and	r2, r3, #28
 762:external/drivers/stm32wlxx/src/stm32wlxx_hal_dma.c **** 
 1525              		.loc 1 762 9 view .LVU562
ARM GAS  /tmp/ccmjCdRm.s 			page 59


 1526 0034 016C     		ldr	r1, [r0, #64]
 1527              	.LVL77:
 762:external/drivers/stm32wlxx/src/stm32wlxx_hal_dma.c **** 
 1528              		.loc 1 762 48 view .LVU563
 1529 0036 0423     		movs	r3, #4
 1530 0038 9340     		lsls	r3, r3, r2
 762:external/drivers/stm32wlxx/src/stm32wlxx_hal_dma.c **** 
 1531              		.loc 1 762 32 view .LVU564
 1532 003a 4B60     		str	r3, [r1, #4]
 767:external/drivers/stm32wlxx/src/stm32wlxx_hal_dma.c ****     {
 1533              		.loc 1 767 5 is_stmt 1 view .LVU565
 767:external/drivers/stm32wlxx/src/stm32wlxx_hal_dma.c ****     {
 1534              		.loc 1 767 13 is_stmt 0 view .LVU566
 1535 003c 036B     		ldr	r3, [r0, #48]
 767:external/drivers/stm32wlxx/src/stm32wlxx_hal_dma.c ****     {
 1536              		.loc 1 767 8 view .LVU567
 1537 003e 03B1     		cbz	r3, .L89
 770:external/drivers/stm32wlxx/src/stm32wlxx_hal_dma.c ****     }
 1538              		.loc 1 770 7 is_stmt 1 view .LVU568
 1539 0040 9847     		blx	r3
 1540              	.LVL78:
 1541              	.L89:
 829:external/drivers/stm32wlxx/src/stm32wlxx_hal_dma.c **** 
 1542              		.loc 1 829 1 is_stmt 0 view .LVU569
 1543 0042 38BD     		pop	{r3, r4, r5, pc}
 1544              	.LVL79:
 1545              	.L90:
 775:external/drivers/stm32wlxx/src/stm32wlxx_hal_dma.c ****   {
 1546              		.loc 1 775 8 is_stmt 1 view .LVU570
 775:external/drivers/stm32wlxx/src/stm32wlxx_hal_dma.c ****   {
 1547              		.loc 1 775 44 is_stmt 0 view .LVU571
 1548 0044 0222     		movs	r2, #2
 1549 0046 9A40     		lsls	r2, r2, r3
 775:external/drivers/stm32wlxx/src/stm32wlxx_hal_dma.c ****   {
 1550              		.loc 1 775 11 view .LVU572
 1551 0048 0A42     		tst	r2, r1
 1552 004a 28D0     		beq	.L93
 775:external/drivers/stm32wlxx/src/stm32wlxx_hal_dma.c ****   {
 1553              		.loc 1 775 79 discriminator 1 view .LVU573
 1554 004c 15F0020F 		tst	r5, #2
 1555 0050 25D0     		beq	.L93
 777:external/drivers/stm32wlxx/src/stm32wlxx_hal_dma.c ****     {
 1556              		.loc 1 777 5 is_stmt 1 view .LVU574
 777:external/drivers/stm32wlxx/src/stm32wlxx_hal_dma.c ****     {
 1557              		.loc 1 777 24 is_stmt 0 view .LVU575
 1558 0052 2368     		ldr	r3, [r4]
 777:external/drivers/stm32wlxx/src/stm32wlxx_hal_dma.c ****     {
 1559              		.loc 1 777 8 view .LVU576
 1560 0054 13F0200F 		tst	r3, #32
 1561 0058 06D1     		bne	.L94
 780:external/drivers/stm32wlxx/src/stm32wlxx_hal_dma.c **** 
 1562              		.loc 1 780 7 is_stmt 1 view .LVU577
 1563 005a 2368     		ldr	r3, [r4]
 1564 005c 23F00A03 		bic	r3, r3, #10
 1565 0060 2360     		str	r3, [r4]
 783:external/drivers/stm32wlxx/src/stm32wlxx_hal_dma.c ****     }
 1566              		.loc 1 783 7 view .LVU578
ARM GAS  /tmp/ccmjCdRm.s 			page 60


 783:external/drivers/stm32wlxx/src/stm32wlxx_hal_dma.c ****     }
 1567              		.loc 1 783 19 is_stmt 0 view .LVU579
 1568 0062 0123     		movs	r3, #1
 1569 0064 80F82530 		strb	r3, [r0, #37]
 1570              	.L94:
 786:external/drivers/stm32wlxx/src/stm32wlxx_hal_dma.c **** 
 1571              		.loc 1 786 5 is_stmt 1 view .LVU580
 1572 0068 0268     		ldr	r2, [r0]
 1573 006a 1C4B     		ldr	r3, .L98
 1574 006c 9A42     		cmp	r2, r3
 1575 006e 0ED9     		bls	.L95
 786:external/drivers/stm32wlxx/src/stm32wlxx_hal_dma.c **** 
 1576              		.loc 1 786 5 is_stmt 0 discriminator 1 view .LVU581
 1577 0070 436C     		ldr	r3, [r0, #68]
 1578 0072 03F01C02 		and	r2, r3, #28
 1579 0076 0223     		movs	r3, #2
 1580 0078 9340     		lsls	r3, r3, r2
 1581 007a 194A     		ldr	r2, .L98+4
 1582 007c 5360     		str	r3, [r2, #4]
 1583              	.L96:
 789:external/drivers/stm32wlxx/src/stm32wlxx_hal_dma.c **** 
 1584              		.loc 1 789 5 is_stmt 1 view .LVU582
 789:external/drivers/stm32wlxx/src/stm32wlxx_hal_dma.c **** 
 1585              		.loc 1 789 5 view .LVU583
 1586 007e 0023     		movs	r3, #0
 1587 0080 80F82430 		strb	r3, [r0, #36]
 789:external/drivers/stm32wlxx/src/stm32wlxx_hal_dma.c **** 
 1588              		.loc 1 789 5 view .LVU584
 791:external/drivers/stm32wlxx/src/stm32wlxx_hal_dma.c ****     {
 1589              		.loc 1 791 5 view .LVU585
 791:external/drivers/stm32wlxx/src/stm32wlxx_hal_dma.c ****     {
 1590              		.loc 1 791 13 is_stmt 0 view .LVU586
 1591 0084 C36A     		ldr	r3, [r0, #44]
 791:external/drivers/stm32wlxx/src/stm32wlxx_hal_dma.c ****     {
 1592              		.loc 1 791 8 view .LVU587
 1593 0086 002B     		cmp	r3, #0
 1594 0088 DBD0     		beq	.L89
 794:external/drivers/stm32wlxx/src/stm32wlxx_hal_dma.c ****     }
 1595              		.loc 1 794 7 is_stmt 1 view .LVU588
 1596 008a 9847     		blx	r3
 1597              	.LVL80:
 794:external/drivers/stm32wlxx/src/stm32wlxx_hal_dma.c ****     }
 1598              		.loc 1 794 7 is_stmt 0 view .LVU589
 1599 008c D9E7     		b	.L89
 1600              	.LVL81:
 1601              	.L95:
 786:external/drivers/stm32wlxx/src/stm32wlxx_hal_dma.c **** 
 1602              		.loc 1 786 5 discriminator 2 view .LVU590
 1603 008e 436C     		ldr	r3, [r0, #68]
 1604 0090 03F01C02 		and	r2, r3, #28
 1605 0094 0223     		movs	r3, #2
 1606 0096 9340     		lsls	r3, r3, r2
 1607 0098 124A     		ldr	r2, .L98+8
 1608 009a 5360     		str	r3, [r2, #4]
 1609 009c EFE7     		b	.L96
 1610              	.L93:
 799:external/drivers/stm32wlxx/src/stm32wlxx_hal_dma.c ****   {
ARM GAS  /tmp/ccmjCdRm.s 			page 61


 1611              		.loc 1 799 8 is_stmt 1 view .LVU591
 799:external/drivers/stm32wlxx/src/stm32wlxx_hal_dma.c ****   {
 1612              		.loc 1 799 38 is_stmt 0 view .LVU592
 1613 009e 0822     		movs	r2, #8
 1614 00a0 02FA03F3 		lsl	r3, r2, r3
 799:external/drivers/stm32wlxx/src/stm32wlxx_hal_dma.c ****   {
 1615              		.loc 1 799 11 view .LVU593
 1616 00a4 0B42     		tst	r3, r1
 1617 00a6 CCD0     		beq	.L89
 799:external/drivers/stm32wlxx/src/stm32wlxx_hal_dma.c ****   {
 1618              		.loc 1 799 79 discriminator 1 view .LVU594
 1619 00a8 15F0080F 		tst	r5, #8
 1620 00ac C9D0     		beq	.L89
 804:external/drivers/stm32wlxx/src/stm32wlxx_hal_dma.c **** 
 1621              		.loc 1 804 5 is_stmt 1 view .LVU595
 1622 00ae 2368     		ldr	r3, [r4]
 1623 00b0 23F00E03 		bic	r3, r3, #14
 1624 00b4 2360     		str	r3, [r4]
 807:external/drivers/stm32wlxx/src/stm32wlxx_hal_dma.c **** 
 1625              		.loc 1 807 5 view .LVU596
 807:external/drivers/stm32wlxx/src/stm32wlxx_hal_dma.c **** 
 1626              		.loc 1 807 56 is_stmt 0 view .LVU597
 1627 00b6 436C     		ldr	r3, [r0, #68]
 807:external/drivers/stm32wlxx/src/stm32wlxx_hal_dma.c **** 
 1628              		.loc 1 807 71 view .LVU598
 1629 00b8 03F01C03 		and	r3, r3, #28
 807:external/drivers/stm32wlxx/src/stm32wlxx_hal_dma.c **** 
 1630              		.loc 1 807 9 view .LVU599
 1631 00bc 016C     		ldr	r1, [r0, #64]
 1632              	.LVL82:
 807:external/drivers/stm32wlxx/src/stm32wlxx_hal_dma.c **** 
 1633              		.loc 1 807 48 view .LVU600
 1634 00be 0122     		movs	r2, #1
 1635 00c0 02FA03F3 		lsl	r3, r2, r3
 807:external/drivers/stm32wlxx/src/stm32wlxx_hal_dma.c **** 
 1636              		.loc 1 807 32 view .LVU601
 1637 00c4 4B60     		str	r3, [r1, #4]
 810:external/drivers/stm32wlxx/src/stm32wlxx_hal_dma.c **** 
 1638              		.loc 1 810 5 is_stmt 1 view .LVU602
 810:external/drivers/stm32wlxx/src/stm32wlxx_hal_dma.c **** 
 1639              		.loc 1 810 21 is_stmt 0 view .LVU603
 1640 00c6 C263     		str	r2, [r0, #60]
 813:external/drivers/stm32wlxx/src/stm32wlxx_hal_dma.c **** 
 1641              		.loc 1 813 5 is_stmt 1 view .LVU604
 813:external/drivers/stm32wlxx/src/stm32wlxx_hal_dma.c **** 
 1642              		.loc 1 813 17 is_stmt 0 view .LVU605
 1643 00c8 80F82520 		strb	r2, [r0, #37]
 816:external/drivers/stm32wlxx/src/stm32wlxx_hal_dma.c **** 
 1644              		.loc 1 816 5 is_stmt 1 view .LVU606
 816:external/drivers/stm32wlxx/src/stm32wlxx_hal_dma.c **** 
 1645              		.loc 1 816 5 view .LVU607
 1646 00cc 0023     		movs	r3, #0
 1647 00ce 80F82430 		strb	r3, [r0, #36]
 816:external/drivers/stm32wlxx/src/stm32wlxx_hal_dma.c **** 
 1648              		.loc 1 816 5 view .LVU608
 818:external/drivers/stm32wlxx/src/stm32wlxx_hal_dma.c ****     {
 1649              		.loc 1 818 5 view .LVU609
ARM GAS  /tmp/ccmjCdRm.s 			page 62


 818:external/drivers/stm32wlxx/src/stm32wlxx_hal_dma.c ****     {
 1650              		.loc 1 818 13 is_stmt 0 view .LVU610
 1651 00d2 436B     		ldr	r3, [r0, #52]
 818:external/drivers/stm32wlxx/src/stm32wlxx_hal_dma.c ****     {
 1652              		.loc 1 818 8 view .LVU611
 1653 00d4 002B     		cmp	r3, #0
 1654 00d6 B4D0     		beq	.L89
 821:external/drivers/stm32wlxx/src/stm32wlxx_hal_dma.c ****     }
 1655              		.loc 1 821 7 is_stmt 1 view .LVU612
 1656 00d8 9847     		blx	r3
 1657              	.LVL83:
 827:external/drivers/stm32wlxx/src/stm32wlxx_hal_dma.c ****   return;
 1658              		.loc 1 827 3 view .LVU613
 828:external/drivers/stm32wlxx/src/stm32wlxx_hal_dma.c **** }
 1659              		.loc 1 828 3 view .LVU614
 1660 00da B2E7     		b	.L89
 1661              	.L99:
 1662              		.align	2
 1663              	.L98:
 1664 00dc 80000240 		.word	1073873024
 1665 00e0 00040240 		.word	1073873920
 1666 00e4 00000240 		.word	1073872896
 1667              		.cfi_endproc
 1668              	.LFE851:
 1670              		.section	.text.HAL_DMA_RegisterCallback,"ax",%progbits
 1671              		.align	1
 1672              		.global	HAL_DMA_RegisterCallback
 1673              		.syntax unified
 1674              		.thumb
 1675              		.thumb_func
 1677              	HAL_DMA_RegisterCallback:
 1678              	.LVL84:
 1679              	.LFB852:
 842:external/drivers/stm32wlxx/src/stm32wlxx_hal_dma.c ****   HAL_StatusTypeDef status = HAL_OK;
 1680              		.loc 1 842 1 view -0
 1681              		.cfi_startproc
 1682              		@ args = 0, pretend = 0, frame = 0
 1683              		@ frame_needed = 0, uses_anonymous_args = 0
 1684              		@ link register save eliminated.
 842:external/drivers/stm32wlxx/src/stm32wlxx_hal_dma.c ****   HAL_StatusTypeDef status = HAL_OK;
 1685              		.loc 1 842 1 is_stmt 0 view .LVU616
 1686 0000 0346     		mov	r3, r0
 843:external/drivers/stm32wlxx/src/stm32wlxx_hal_dma.c **** 
 1687              		.loc 1 843 3 is_stmt 1 view .LVU617
 1688              	.LVL85:
 846:external/drivers/stm32wlxx/src/stm32wlxx_hal_dma.c **** 
 1689              		.loc 1 846 3 view .LVU618
 846:external/drivers/stm32wlxx/src/stm32wlxx_hal_dma.c **** 
 1690              		.loc 1 846 3 view .LVU619
 1691 0002 90F82400 		ldrb	r0, [r0, #36]	@ zero_extendqisi2
 1692              	.LVL86:
 846:external/drivers/stm32wlxx/src/stm32wlxx_hal_dma.c **** 
 1693              		.loc 1 846 3 is_stmt 0 view .LVU620
 1694 0006 0128     		cmp	r0, #1
 1695 0008 1ED0     		beq	.L108
 846:external/drivers/stm32wlxx/src/stm32wlxx_hal_dma.c **** 
 1696              		.loc 1 846 3 is_stmt 1 discriminator 2 view .LVU621
ARM GAS  /tmp/ccmjCdRm.s 			page 63


 1697 000a 0120     		movs	r0, #1
 1698 000c 83F82400 		strb	r0, [r3, #36]
 846:external/drivers/stm32wlxx/src/stm32wlxx_hal_dma.c **** 
 1699              		.loc 1 846 3 discriminator 2 view .LVU622
 848:external/drivers/stm32wlxx/src/stm32wlxx_hal_dma.c ****   {
 1700              		.loc 1 848 3 view .LVU623
 848:external/drivers/stm32wlxx/src/stm32wlxx_hal_dma.c ****   {
 1701              		.loc 1 848 11 is_stmt 0 view .LVU624
 1702 0010 93F82500 		ldrb	r0, [r3, #37]	@ zero_extendqisi2
 1703 0014 C0B2     		uxtb	r0, r0
 848:external/drivers/stm32wlxx/src/stm32wlxx_hal_dma.c ****   {
 1704              		.loc 1 848 6 view .LVU625
 1705 0016 0128     		cmp	r0, #1
 1706 0018 04D0     		beq	.L111
 875:external/drivers/stm32wlxx/src/stm32wlxx_hal_dma.c ****   }
 1707              		.loc 1 875 12 view .LVU626
 1708 001a 0120     		movs	r0, #1
 1709              	.L102:
 1710              	.LVL87:
 879:external/drivers/stm32wlxx/src/stm32wlxx_hal_dma.c **** 
 1711              		.loc 1 879 3 is_stmt 1 view .LVU627
 879:external/drivers/stm32wlxx/src/stm32wlxx_hal_dma.c **** 
 1712              		.loc 1 879 3 view .LVU628
 1713 001c 0022     		movs	r2, #0
 1714              	.LVL88:
 879:external/drivers/stm32wlxx/src/stm32wlxx_hal_dma.c **** 
 1715              		.loc 1 879 3 is_stmt 0 view .LVU629
 1716 001e 83F82420 		strb	r2, [r3, #36]
 879:external/drivers/stm32wlxx/src/stm32wlxx_hal_dma.c **** 
 1717              		.loc 1 879 3 is_stmt 1 view .LVU630
 881:external/drivers/stm32wlxx/src/stm32wlxx_hal_dma.c **** }
 1718              		.loc 1 881 3 view .LVU631
 881:external/drivers/stm32wlxx/src/stm32wlxx_hal_dma.c **** }
 1719              		.loc 1 881 10 is_stmt 0 view .LVU632
 1720 0022 7047     		bx	lr
 1721              	.LVL89:
 1722              	.L111:
 850:external/drivers/stm32wlxx/src/stm32wlxx_hal_dma.c ****     {
 1723              		.loc 1 850 5 is_stmt 1 view .LVU633
 1724 0024 0329     		cmp	r1, #3
 1725 0026 F9D8     		bhi	.L102
 1726 0028 DFE801F0 		tbb	[pc, r1]
 1727              	.L104:
 1728 002c 02       		.byte	(.L107-.L104)/2
 1729 002d 05       		.byte	(.L106-.L104)/2
 1730 002e 08       		.byte	(.L105-.L104)/2
 1731 002f 0B       		.byte	(.L103-.L104)/2
 1732              		.p2align 1
 1733              	.L107:
 853:external/drivers/stm32wlxx/src/stm32wlxx_hal_dma.c ****         break;
 1734              		.loc 1 853 9 view .LVU634
 853:external/drivers/stm32wlxx/src/stm32wlxx_hal_dma.c ****         break;
 1735              		.loc 1 853 32 is_stmt 0 view .LVU635
 1736 0030 DA62     		str	r2, [r3, #44]
 854:external/drivers/stm32wlxx/src/stm32wlxx_hal_dma.c **** 
 1737              		.loc 1 854 9 is_stmt 1 view .LVU636
 843:external/drivers/stm32wlxx/src/stm32wlxx_hal_dma.c **** 
ARM GAS  /tmp/ccmjCdRm.s 			page 64


 1738              		.loc 1 843 21 is_stmt 0 view .LVU637
 1739 0032 0846     		mov	r0, r1
 854:external/drivers/stm32wlxx/src/stm32wlxx_hal_dma.c **** 
 1740              		.loc 1 854 9 view .LVU638
 1741 0034 F2E7     		b	.L102
 1742              	.L106:
 857:external/drivers/stm32wlxx/src/stm32wlxx_hal_dma.c ****         break;
 1743              		.loc 1 857 9 is_stmt 1 view .LVU639
 857:external/drivers/stm32wlxx/src/stm32wlxx_hal_dma.c ****         break;
 1744              		.loc 1 857 36 is_stmt 0 view .LVU640
 1745 0036 1A63     		str	r2, [r3, #48]
 858:external/drivers/stm32wlxx/src/stm32wlxx_hal_dma.c **** 
 1746              		.loc 1 858 9 is_stmt 1 view .LVU641
 843:external/drivers/stm32wlxx/src/stm32wlxx_hal_dma.c **** 
 1747              		.loc 1 843 21 is_stmt 0 view .LVU642
 1748 0038 0020     		movs	r0, #0
 858:external/drivers/stm32wlxx/src/stm32wlxx_hal_dma.c **** 
 1749              		.loc 1 858 9 view .LVU643
 1750 003a EFE7     		b	.L102
 1751              	.L105:
 861:external/drivers/stm32wlxx/src/stm32wlxx_hal_dma.c ****         break;
 1752              		.loc 1 861 9 is_stmt 1 view .LVU644
 861:external/drivers/stm32wlxx/src/stm32wlxx_hal_dma.c ****         break;
 1753              		.loc 1 861 33 is_stmt 0 view .LVU645
 1754 003c 5A63     		str	r2, [r3, #52]
 862:external/drivers/stm32wlxx/src/stm32wlxx_hal_dma.c **** 
 1755              		.loc 1 862 9 is_stmt 1 view .LVU646
 843:external/drivers/stm32wlxx/src/stm32wlxx_hal_dma.c **** 
 1756              		.loc 1 843 21 is_stmt 0 view .LVU647
 1757 003e 0020     		movs	r0, #0
 862:external/drivers/stm32wlxx/src/stm32wlxx_hal_dma.c **** 
 1758              		.loc 1 862 9 view .LVU648
 1759 0040 ECE7     		b	.L102
 1760              	.L103:
 865:external/drivers/stm32wlxx/src/stm32wlxx_hal_dma.c ****         break;
 1761              		.loc 1 865 9 is_stmt 1 view .LVU649
 865:external/drivers/stm32wlxx/src/stm32wlxx_hal_dma.c ****         break;
 1762              		.loc 1 865 33 is_stmt 0 view .LVU650
 1763 0042 9A63     		str	r2, [r3, #56]
 866:external/drivers/stm32wlxx/src/stm32wlxx_hal_dma.c **** 
 1764              		.loc 1 866 9 is_stmt 1 view .LVU651
 843:external/drivers/stm32wlxx/src/stm32wlxx_hal_dma.c **** 
 1765              		.loc 1 843 21 is_stmt 0 view .LVU652
 1766 0044 0020     		movs	r0, #0
 866:external/drivers/stm32wlxx/src/stm32wlxx_hal_dma.c **** 
 1767              		.loc 1 866 9 view .LVU653
 1768 0046 E9E7     		b	.L102
 1769              	.L108:
 846:external/drivers/stm32wlxx/src/stm32wlxx_hal_dma.c **** 
 1770              		.loc 1 846 3 discriminator 1 view .LVU654
 1771 0048 0220     		movs	r0, #2
 882:external/drivers/stm32wlxx/src/stm32wlxx_hal_dma.c **** 
 1772              		.loc 1 882 1 view .LVU655
 1773 004a 7047     		bx	lr
 1774              		.cfi_endproc
 1775              	.LFE852:
 1777              		.section	.text.HAL_DMA_UnRegisterCallback,"ax",%progbits
ARM GAS  /tmp/ccmjCdRm.s 			page 65


 1778              		.align	1
 1779              		.global	HAL_DMA_UnRegisterCallback
 1780              		.syntax unified
 1781              		.thumb
 1782              		.thumb_func
 1784              	HAL_DMA_UnRegisterCallback:
 1785              	.LVL90:
 1786              	.LFB853:
 893:external/drivers/stm32wlxx/src/stm32wlxx_hal_dma.c ****   HAL_StatusTypeDef status = HAL_OK;
 1787              		.loc 1 893 1 is_stmt 1 view -0
 1788              		.cfi_startproc
 1789              		@ args = 0, pretend = 0, frame = 0
 1790              		@ frame_needed = 0, uses_anonymous_args = 0
 1791              		@ link register save eliminated.
 893:external/drivers/stm32wlxx/src/stm32wlxx_hal_dma.c ****   HAL_StatusTypeDef status = HAL_OK;
 1792              		.loc 1 893 1 is_stmt 0 view .LVU657
 1793 0000 0346     		mov	r3, r0
 894:external/drivers/stm32wlxx/src/stm32wlxx_hal_dma.c **** 
 1794              		.loc 1 894 3 is_stmt 1 view .LVU658
 1795              	.LVL91:
 897:external/drivers/stm32wlxx/src/stm32wlxx_hal_dma.c **** 
 1796              		.loc 1 897 3 view .LVU659
 897:external/drivers/stm32wlxx/src/stm32wlxx_hal_dma.c **** 
 1797              		.loc 1 897 3 view .LVU660
 1798 0002 90F82420 		ldrb	r2, [r0, #36]	@ zero_extendqisi2
 1799 0006 012A     		cmp	r2, #1
 1800 0008 26D0     		beq	.L121
 897:external/drivers/stm32wlxx/src/stm32wlxx_hal_dma.c **** 
 1801              		.loc 1 897 3 discriminator 2 view .LVU661
 1802 000a 0122     		movs	r2, #1
 1803 000c 80F82420 		strb	r2, [r0, #36]
 897:external/drivers/stm32wlxx/src/stm32wlxx_hal_dma.c **** 
 1804              		.loc 1 897 3 discriminator 2 view .LVU662
 899:external/drivers/stm32wlxx/src/stm32wlxx_hal_dma.c ****   {
 1805              		.loc 1 899 3 view .LVU663
 899:external/drivers/stm32wlxx/src/stm32wlxx_hal_dma.c ****   {
 1806              		.loc 1 899 11 is_stmt 0 view .LVU664
 1807 0010 90F82500 		ldrb	r0, [r0, #37]	@ zero_extendqisi2
 1808              	.LVL92:
 899:external/drivers/stm32wlxx/src/stm32wlxx_hal_dma.c ****   {
 1809              		.loc 1 899 11 view .LVU665
 1810 0014 C0B2     		uxtb	r0, r0
 899:external/drivers/stm32wlxx/src/stm32wlxx_hal_dma.c ****   {
 1811              		.loc 1 899 6 view .LVU666
 1812 0016 9042     		cmp	r0, r2
 1813 0018 04D0     		beq	.L124
 933:external/drivers/stm32wlxx/src/stm32wlxx_hal_dma.c ****   }
 1814              		.loc 1 933 12 view .LVU667
 1815 001a 0120     		movs	r0, #1
 1816              	.L114:
 1817              	.LVL93:
 937:external/drivers/stm32wlxx/src/stm32wlxx_hal_dma.c **** 
 1818              		.loc 1 937 3 is_stmt 1 view .LVU668
 937:external/drivers/stm32wlxx/src/stm32wlxx_hal_dma.c **** 
 1819              		.loc 1 937 3 view .LVU669
 1820 001c 0022     		movs	r2, #0
 1821 001e 83F82420 		strb	r2, [r3, #36]
ARM GAS  /tmp/ccmjCdRm.s 			page 66


 937:external/drivers/stm32wlxx/src/stm32wlxx_hal_dma.c **** 
 1822              		.loc 1 937 3 view .LVU670
 939:external/drivers/stm32wlxx/src/stm32wlxx_hal_dma.c **** }
 1823              		.loc 1 939 3 view .LVU671
 939:external/drivers/stm32wlxx/src/stm32wlxx_hal_dma.c **** }
 1824              		.loc 1 939 10 is_stmt 0 view .LVU672
 1825 0022 7047     		bx	lr
 1826              	.LVL94:
 1827              	.L124:
 901:external/drivers/stm32wlxx/src/stm32wlxx_hal_dma.c ****     {
 1828              		.loc 1 901 5 is_stmt 1 view .LVU673
 1829 0024 0429     		cmp	r1, #4
 1830 0026 F9D8     		bhi	.L114
 1831 0028 DFE801F0 		tbb	[pc, r1]
 1832              	.L116:
 1833 002c 03       		.byte	(.L120-.L116)/2
 1834 002d 07       		.byte	(.L119-.L116)/2
 1835 002e 0A       		.byte	(.L118-.L116)/2
 1836 002f 0D       		.byte	(.L117-.L116)/2
 1837 0030 10       		.byte	(.L115-.L116)/2
 1838 0031 00       		.p2align 1
 1839              	.L120:
 904:external/drivers/stm32wlxx/src/stm32wlxx_hal_dma.c ****         break;
 1840              		.loc 1 904 9 view .LVU674
 904:external/drivers/stm32wlxx/src/stm32wlxx_hal_dma.c ****         break;
 1841              		.loc 1 904 32 is_stmt 0 view .LVU675
 1842 0032 0022     		movs	r2, #0
 1843 0034 DA62     		str	r2, [r3, #44]
 905:external/drivers/stm32wlxx/src/stm32wlxx_hal_dma.c **** 
 1844              		.loc 1 905 9 is_stmt 1 view .LVU676
 894:external/drivers/stm32wlxx/src/stm32wlxx_hal_dma.c **** 
 1845              		.loc 1 894 21 is_stmt 0 view .LVU677
 1846 0036 0846     		mov	r0, r1
 905:external/drivers/stm32wlxx/src/stm32wlxx_hal_dma.c **** 
 1847              		.loc 1 905 9 view .LVU678
 1848 0038 F0E7     		b	.L114
 1849              	.L119:
 908:external/drivers/stm32wlxx/src/stm32wlxx_hal_dma.c ****         break;
 1850              		.loc 1 908 9 is_stmt 1 view .LVU679
 908:external/drivers/stm32wlxx/src/stm32wlxx_hal_dma.c ****         break;
 1851              		.loc 1 908 36 is_stmt 0 view .LVU680
 1852 003a 0020     		movs	r0, #0
 1853 003c 1863     		str	r0, [r3, #48]
 909:external/drivers/stm32wlxx/src/stm32wlxx_hal_dma.c **** 
 1854              		.loc 1 909 9 is_stmt 1 view .LVU681
 1855 003e EDE7     		b	.L114
 1856              	.L118:
 912:external/drivers/stm32wlxx/src/stm32wlxx_hal_dma.c ****         break;
 1857              		.loc 1 912 9 view .LVU682
 912:external/drivers/stm32wlxx/src/stm32wlxx_hal_dma.c ****         break;
 1858              		.loc 1 912 33 is_stmt 0 view .LVU683
 1859 0040 0020     		movs	r0, #0
 1860 0042 5863     		str	r0, [r3, #52]
 913:external/drivers/stm32wlxx/src/stm32wlxx_hal_dma.c **** 
 1861              		.loc 1 913 9 is_stmt 1 view .LVU684
 1862 0044 EAE7     		b	.L114
 1863              	.L117:
ARM GAS  /tmp/ccmjCdRm.s 			page 67


 916:external/drivers/stm32wlxx/src/stm32wlxx_hal_dma.c ****         break;
 1864              		.loc 1 916 9 view .LVU685
 916:external/drivers/stm32wlxx/src/stm32wlxx_hal_dma.c ****         break;
 1865              		.loc 1 916 33 is_stmt 0 view .LVU686
 1866 0046 0020     		movs	r0, #0
 1867 0048 9863     		str	r0, [r3, #56]
 917:external/drivers/stm32wlxx/src/stm32wlxx_hal_dma.c **** 
 1868              		.loc 1 917 9 is_stmt 1 view .LVU687
 1869 004a E7E7     		b	.L114
 1870              	.L115:
 920:external/drivers/stm32wlxx/src/stm32wlxx_hal_dma.c ****         hdma->XferHalfCpltCallback = NULL;
 1871              		.loc 1 920 9 view .LVU688
 920:external/drivers/stm32wlxx/src/stm32wlxx_hal_dma.c ****         hdma->XferHalfCpltCallback = NULL;
 1872              		.loc 1 920 32 is_stmt 0 view .LVU689
 1873 004c 0020     		movs	r0, #0
 1874 004e D862     		str	r0, [r3, #44]
 921:external/drivers/stm32wlxx/src/stm32wlxx_hal_dma.c ****         hdma->XferErrorCallback = NULL;
 1875              		.loc 1 921 9 is_stmt 1 view .LVU690
 921:external/drivers/stm32wlxx/src/stm32wlxx_hal_dma.c ****         hdma->XferErrorCallback = NULL;
 1876              		.loc 1 921 36 is_stmt 0 view .LVU691
 1877 0050 1863     		str	r0, [r3, #48]
 922:external/drivers/stm32wlxx/src/stm32wlxx_hal_dma.c ****         hdma->XferAbortCallback = NULL;
 1878              		.loc 1 922 9 is_stmt 1 view .LVU692
 922:external/drivers/stm32wlxx/src/stm32wlxx_hal_dma.c ****         hdma->XferAbortCallback = NULL;
 1879              		.loc 1 922 33 is_stmt 0 view .LVU693
 1880 0052 5863     		str	r0, [r3, #52]
 923:external/drivers/stm32wlxx/src/stm32wlxx_hal_dma.c ****         break;
 1881              		.loc 1 923 9 is_stmt 1 view .LVU694
 923:external/drivers/stm32wlxx/src/stm32wlxx_hal_dma.c ****         break;
 1882              		.loc 1 923 33 is_stmt 0 view .LVU695
 1883 0054 9863     		str	r0, [r3, #56]
 924:external/drivers/stm32wlxx/src/stm32wlxx_hal_dma.c **** 
 1884              		.loc 1 924 9 is_stmt 1 view .LVU696
 1885 0056 E1E7     		b	.L114
 1886              	.LVL95:
 1887              	.L121:
 897:external/drivers/stm32wlxx/src/stm32wlxx_hal_dma.c **** 
 1888              		.loc 1 897 3 is_stmt 0 discriminator 1 view .LVU697
 1889 0058 0220     		movs	r0, #2
 1890              	.LVL96:
 940:external/drivers/stm32wlxx/src/stm32wlxx_hal_dma.c **** 
 1891              		.loc 1 940 1 view .LVU698
 1892 005a 7047     		bx	lr
 1893              		.cfi_endproc
 1894              	.LFE853:
 1896              		.section	.text.HAL_DMA_GetState,"ax",%progbits
 1897              		.align	1
 1898              		.global	HAL_DMA_GetState
 1899              		.syntax unified
 1900              		.thumb
 1901              		.thumb_func
 1903              	HAL_DMA_GetState:
 1904              	.LVL97:
 1905              	.LFB854:
 970:external/drivers/stm32wlxx/src/stm32wlxx_hal_dma.c ****   /* Return DMA handle state */
 1906              		.loc 1 970 1 is_stmt 1 view -0
 1907              		.cfi_startproc
ARM GAS  /tmp/ccmjCdRm.s 			page 68


 1908              		@ args = 0, pretend = 0, frame = 0
 1909              		@ frame_needed = 0, uses_anonymous_args = 0
 1910              		@ link register save eliminated.
 972:external/drivers/stm32wlxx/src/stm32wlxx_hal_dma.c **** }
 1911              		.loc 1 972 3 view .LVU700
 972:external/drivers/stm32wlxx/src/stm32wlxx_hal_dma.c **** }
 1912              		.loc 1 972 14 is_stmt 0 view .LVU701
 1913 0000 90F82500 		ldrb	r0, [r0, #37]	@ zero_extendqisi2
 1914              	.LVL98:
 973:external/drivers/stm32wlxx/src/stm32wlxx_hal_dma.c **** 
 1915              		.loc 1 973 1 view .LVU702
 1916 0004 7047     		bx	lr
 1917              		.cfi_endproc
 1918              	.LFE854:
 1920              		.section	.text.HAL_DMA_GetError,"ax",%progbits
 1921              		.align	1
 1922              		.global	HAL_DMA_GetError
 1923              		.syntax unified
 1924              		.thumb
 1925              		.thumb_func
 1927              	HAL_DMA_GetError:
 1928              	.LVL99:
 1929              	.LFB855:
 982:external/drivers/stm32wlxx/src/stm32wlxx_hal_dma.c ****   /* Return the DMA error code */
 1930              		.loc 1 982 1 is_stmt 1 view -0
 1931              		.cfi_startproc
 1932              		@ args = 0, pretend = 0, frame = 0
 1933              		@ frame_needed = 0, uses_anonymous_args = 0
 1934              		@ link register save eliminated.
 984:external/drivers/stm32wlxx/src/stm32wlxx_hal_dma.c **** }
 1935              		.loc 1 984 3 view .LVU704
 984:external/drivers/stm32wlxx/src/stm32wlxx_hal_dma.c **** }
 1936              		.loc 1 984 14 is_stmt 0 view .LVU705
 1937 0000 C06B     		ldr	r0, [r0, #60]
 1938              	.LVL100:
 985:external/drivers/stm32wlxx/src/stm32wlxx_hal_dma.c **** 
 1939              		.loc 1 985 1 view .LVU706
 1940 0002 7047     		bx	lr
 1941              		.cfi_endproc
 1942              	.LFE855:
 1944              		.text
 1945              	.Letext0:
 1946              		.file 2 "/usr/share/arm-gnu-toolchain-13.3.rel1-x86_64-arm-none-eabi/arm-none-eabi/include/machine
 1947              		.file 3 "/usr/share/arm-gnu-toolchain-13.3.rel1-x86_64-arm-none-eabi/arm-none-eabi/include/sys/_st
 1948              		.file 4 "external/drivers/cmsis/include/stm32wle5xx.h"
 1949              		.file 5 "external/drivers/stm32wlxx/include/stm32wlxx_hal_def.h"
 1950              		.file 6 "external/drivers/stm32wlxx/include/stm32wlxx_hal_dma.h"
 1951              		.file 7 "external/drivers/stm32wlxx/include/stm32wlxx_ll_dma.h"
 1952              		.file 8 "external/drivers/stm32wlxx/include/stm32wlxx_hal.h"
ARM GAS  /tmp/ccmjCdRm.s 			page 69


DEFINED SYMBOLS
                            *ABS*:00000000 stm32wlxx_hal_dma.c
     /tmp/ccmjCdRm.s:19     .text.DMA_SetConfig:00000000 $t
     /tmp/ccmjCdRm.s:24     .text.DMA_SetConfig:00000000 DMA_SetConfig
     /tmp/ccmjCdRm.s:117    .text.DMA_CalcDMAMUXChannelBaseAndMask:00000000 $t
     /tmp/ccmjCdRm.s:122    .text.DMA_CalcDMAMUXChannelBaseAndMask:00000000 DMA_CalcDMAMUXChannelBaseAndMask
     /tmp/ccmjCdRm.s:201    .text.DMA_CalcDMAMUXChannelBaseAndMask:00000054 $d
     /tmp/ccmjCdRm.s:209    .text.DMA_CalcDMAMUXRequestGenBaseAndMask:00000000 $t
     /tmp/ccmjCdRm.s:214    .text.DMA_CalcDMAMUXRequestGenBaseAndMask:00000000 DMA_CalcDMAMUXRequestGenBaseAndMask
     /tmp/ccmjCdRm.s:256    .text.DMA_CalcDMAMUXRequestGenBaseAndMask:00000024 $d
     /tmp/ccmjCdRm.s:262    .text.HAL_DMA_Init:00000000 $t
     /tmp/ccmjCdRm.s:268    .text.HAL_DMA_Init:00000000 HAL_DMA_Init
     /tmp/ccmjCdRm.s:467    .text.HAL_DMA_Init:000000c8 $d
     /tmp/ccmjCdRm.s:477    .text.HAL_DMA_DeInit:00000000 $t
     /tmp/ccmjCdRm.s:483    .text.HAL_DMA_DeInit:00000000 HAL_DMA_DeInit
     /tmp/ccmjCdRm.s:665    .text.HAL_DMA_DeInit:000000a0 $d
     /tmp/ccmjCdRm.s:675    .text.HAL_DMA_Start:00000000 $t
     /tmp/ccmjCdRm.s:681    .text.HAL_DMA_Start:00000000 HAL_DMA_Start
     /tmp/ccmjCdRm.s:773    .text.HAL_DMA_Start_IT:00000000 $t
     /tmp/ccmjCdRm.s:779    .text.HAL_DMA_Start_IT:00000000 HAL_DMA_Start_IT
     /tmp/ccmjCdRm.s:921    .text.HAL_DMA_Abort:00000000 $t
     /tmp/ccmjCdRm.s:927    .text.HAL_DMA_Abort:00000000 HAL_DMA_Abort
     /tmp/ccmjCdRm.s:1044   .text.HAL_DMA_Abort_IT:00000000 $t
     /tmp/ccmjCdRm.s:1050   .text.HAL_DMA_Abort_IT:00000000 HAL_DMA_Abort_IT
     /tmp/ccmjCdRm.s:1174   .text.HAL_DMA_PollForTransfer:00000000 $t
     /tmp/ccmjCdRm.s:1180   .text.HAL_DMA_PollForTransfer:00000000 HAL_DMA_PollForTransfer
     /tmp/ccmjCdRm.s:1462   .text.HAL_DMA_IRQHandler:00000000 $t
     /tmp/ccmjCdRm.s:1468   .text.HAL_DMA_IRQHandler:00000000 HAL_DMA_IRQHandler
     /tmp/ccmjCdRm.s:1664   .text.HAL_DMA_IRQHandler:000000dc $d
     /tmp/ccmjCdRm.s:1671   .text.HAL_DMA_RegisterCallback:00000000 $t
     /tmp/ccmjCdRm.s:1677   .text.HAL_DMA_RegisterCallback:00000000 HAL_DMA_RegisterCallback
     /tmp/ccmjCdRm.s:1728   .text.HAL_DMA_RegisterCallback:0000002c $d
     /tmp/ccmjCdRm.s:1732   .text.HAL_DMA_RegisterCallback:00000030 $t
     /tmp/ccmjCdRm.s:1778   .text.HAL_DMA_UnRegisterCallback:00000000 $t
     /tmp/ccmjCdRm.s:1784   .text.HAL_DMA_UnRegisterCallback:00000000 HAL_DMA_UnRegisterCallback
     /tmp/ccmjCdRm.s:1833   .text.HAL_DMA_UnRegisterCallback:0000002c $d
     /tmp/ccmjCdRm.s:1897   .text.HAL_DMA_GetState:00000000 $t
     /tmp/ccmjCdRm.s:1903   .text.HAL_DMA_GetState:00000000 HAL_DMA_GetState
     /tmp/ccmjCdRm.s:1921   .text.HAL_DMA_GetError:00000000 $t
     /tmp/ccmjCdRm.s:1927   .text.HAL_DMA_GetError:00000000 HAL_DMA_GetError
     /tmp/ccmjCdRm.s:1838   .text.HAL_DMA_UnRegisterCallback:00000031 $d
     /tmp/ccmjCdRm.s:1838   .text.HAL_DMA_UnRegisterCallback:00000032 $t

UNDEFINED SYMBOLS
HAL_GetTick
