ARM GAS  /tmp/ccEyuVux.s 			page 1


   1              		.cpu cortex-m4
   2              		.arch armv7e-m
   3              		.fpu softvfp
   4              		.eabi_attribute 20, 1
   5              		.eabi_attribute 21, 1
   6              		.eabi_attribute 23, 3
   7              		.eabi_attribute 24, 1
   8              		.eabi_attribute 25, 1
   9              		.eabi_attribute 26, 1
  10              		.eabi_attribute 30, 1
  11              		.eabi_attribute 34, 1
  12              		.eabi_attribute 18, 4
  13              		.file	"stm32wlxx_hal_pwr_ex.c"
  14              		.text
  15              	.Ltext0:
  16              		.cfi_sections	.debug_frame
  17              		.file 1 "external/drivers/stm32wlxx/src/stm32wlxx_hal_pwr_ex.c"
  18              		.section	.text.HAL_PWREx_GetVoltageRange,"ax",%progbits
  19              		.align	1
  20              		.global	HAL_PWREx_GetVoltageRange
  21              		.syntax unified
  22              		.thumb
  23              		.thumb_func
  25              	HAL_PWREx_GetVoltageRange:
  26              	.LFB844:
   1:external/drivers/stm32wlxx/src/stm32wlxx_hal_pwr_ex.c **** /**
   2:external/drivers/stm32wlxx/src/stm32wlxx_hal_pwr_ex.c ****   ******************************************************************************
   3:external/drivers/stm32wlxx/src/stm32wlxx_hal_pwr_ex.c ****   * @file    stm32wlxx_hal_pwr_ex.c
   4:external/drivers/stm32wlxx/src/stm32wlxx_hal_pwr_ex.c ****   * @author  MCD Application Team
   5:external/drivers/stm32wlxx/src/stm32wlxx_hal_pwr_ex.c ****   * @brief   Extended PWR HAL module driver.
   6:external/drivers/stm32wlxx/src/stm32wlxx_hal_pwr_ex.c ****   *          This file provides firmware functions to manage the following
   7:external/drivers/stm32wlxx/src/stm32wlxx_hal_pwr_ex.c ****   *          functionalities of the Power Controller (PWR) peripheral:
   8:external/drivers/stm32wlxx/src/stm32wlxx_hal_pwr_ex.c ****   *           + Extended Initialization and de-initialization functions
   9:external/drivers/stm32wlxx/src/stm32wlxx_hal_pwr_ex.c ****   *           + Extended Peripheral Control functions
  10:external/drivers/stm32wlxx/src/stm32wlxx_hal_pwr_ex.c ****   *
  11:external/drivers/stm32wlxx/src/stm32wlxx_hal_pwr_ex.c ****   ******************************************************************************
  12:external/drivers/stm32wlxx/src/stm32wlxx_hal_pwr_ex.c ****   * @attention
  13:external/drivers/stm32wlxx/src/stm32wlxx_hal_pwr_ex.c ****   *
  14:external/drivers/stm32wlxx/src/stm32wlxx_hal_pwr_ex.c ****   * Copyright (c) 2020 STMicroelectronics.
  15:external/drivers/stm32wlxx/src/stm32wlxx_hal_pwr_ex.c ****   * All rights reserved.
  16:external/drivers/stm32wlxx/src/stm32wlxx_hal_pwr_ex.c ****   *
  17:external/drivers/stm32wlxx/src/stm32wlxx_hal_pwr_ex.c ****   * This software is licensed under terms that can be found in the LICENSE file
  18:external/drivers/stm32wlxx/src/stm32wlxx_hal_pwr_ex.c ****   * in the root directory of this software component.
  19:external/drivers/stm32wlxx/src/stm32wlxx_hal_pwr_ex.c ****   * If no LICENSE file comes with this software, it is provided AS-IS.
  20:external/drivers/stm32wlxx/src/stm32wlxx_hal_pwr_ex.c ****   *
  21:external/drivers/stm32wlxx/src/stm32wlxx_hal_pwr_ex.c ****   ******************************************************************************
  22:external/drivers/stm32wlxx/src/stm32wlxx_hal_pwr_ex.c ****   */
  23:external/drivers/stm32wlxx/src/stm32wlxx_hal_pwr_ex.c **** 
  24:external/drivers/stm32wlxx/src/stm32wlxx_hal_pwr_ex.c **** /* Includes ------------------------------------------------------------------*/
  25:external/drivers/stm32wlxx/src/stm32wlxx_hal_pwr_ex.c **** #include "stm32wlxx_hal.h"
  26:external/drivers/stm32wlxx/src/stm32wlxx_hal_pwr_ex.c **** 
  27:external/drivers/stm32wlxx/src/stm32wlxx_hal_pwr_ex.c **** /** @addtogroup STM32WLxx_HAL_Driver
  28:external/drivers/stm32wlxx/src/stm32wlxx_hal_pwr_ex.c ****   * @{
  29:external/drivers/stm32wlxx/src/stm32wlxx_hal_pwr_ex.c ****   */
  30:external/drivers/stm32wlxx/src/stm32wlxx_hal_pwr_ex.c **** 
  31:external/drivers/stm32wlxx/src/stm32wlxx_hal_pwr_ex.c **** /** @addtogroup PWREx
  32:external/drivers/stm32wlxx/src/stm32wlxx_hal_pwr_ex.c ****   * @{
ARM GAS  /tmp/ccEyuVux.s 			page 2


  33:external/drivers/stm32wlxx/src/stm32wlxx_hal_pwr_ex.c ****   */
  34:external/drivers/stm32wlxx/src/stm32wlxx_hal_pwr_ex.c **** 
  35:external/drivers/stm32wlxx/src/stm32wlxx_hal_pwr_ex.c **** #ifdef HAL_PWR_MODULE_ENABLED
  36:external/drivers/stm32wlxx/src/stm32wlxx_hal_pwr_ex.c **** 
  37:external/drivers/stm32wlxx/src/stm32wlxx_hal_pwr_ex.c **** /* Private typedef -----------------------------------------------------------*/
  38:external/drivers/stm32wlxx/src/stm32wlxx_hal_pwr_ex.c **** /* Private constants ---------------------------------------------------------*/
  39:external/drivers/stm32wlxx/src/stm32wlxx_hal_pwr_ex.c **** /** @addtogroup PWREx_Private_Constants PWR Extended Private Constants
  40:external/drivers/stm32wlxx/src/stm32wlxx_hal_pwr_ex.c ****   * @{
  41:external/drivers/stm32wlxx/src/stm32wlxx_hal_pwr_ex.c ****   */
  42:external/drivers/stm32wlxx/src/stm32wlxx_hal_pwr_ex.c **** #define PWR_PORTC_AVAILABLE_PINS   (PWR_GPIO_BIT_15 |\
  43:external/drivers/stm32wlxx/src/stm32wlxx_hal_pwr_ex.c ****                                     PWR_GPIO_BIT_14 |\
  44:external/drivers/stm32wlxx/src/stm32wlxx_hal_pwr_ex.c ****                                     PWR_GPIO_BIT_13 |\
  45:external/drivers/stm32wlxx/src/stm32wlxx_hal_pwr_ex.c ****                                     PWR_GPIO_BIT_6 | PWR_GPIO_BIT_5 | PWR_GPIO_BIT_4 | PWR_GPIO_BIT
  46:external/drivers/stm32wlxx/src/stm32wlxx_hal_pwr_ex.c **** #define PWR_PORTH_AVAILABLE_PINS   (PWR_GPIO_BIT_3)
  47:external/drivers/stm32wlxx/src/stm32wlxx_hal_pwr_ex.c **** 
  48:external/drivers/stm32wlxx/src/stm32wlxx_hal_pwr_ex.c **** /** @defgroup PWREx_TimeOut_Value PWR Extended Flag Setting Time Out Value
  49:external/drivers/stm32wlxx/src/stm32wlxx_hal_pwr_ex.c ****   * @{
  50:external/drivers/stm32wlxx/src/stm32wlxx_hal_pwr_ex.c ****   */
  51:external/drivers/stm32wlxx/src/stm32wlxx_hal_pwr_ex.c **** #define PWR_FLAG_SETTING_DELAY_US                      50UL   /*!< Time out value for REGLPF and VO
  52:external/drivers/stm32wlxx/src/stm32wlxx_hal_pwr_ex.c **** /**
  53:external/drivers/stm32wlxx/src/stm32wlxx_hal_pwr_ex.c ****   * @}
  54:external/drivers/stm32wlxx/src/stm32wlxx_hal_pwr_ex.c ****   */
  55:external/drivers/stm32wlxx/src/stm32wlxx_hal_pwr_ex.c **** 
  56:external/drivers/stm32wlxx/src/stm32wlxx_hal_pwr_ex.c **** /**
  57:external/drivers/stm32wlxx/src/stm32wlxx_hal_pwr_ex.c ****   * @}
  58:external/drivers/stm32wlxx/src/stm32wlxx_hal_pwr_ex.c ****   */
  59:external/drivers/stm32wlxx/src/stm32wlxx_hal_pwr_ex.c **** 
  60:external/drivers/stm32wlxx/src/stm32wlxx_hal_pwr_ex.c **** /* Private macro -------------------------------------------------------------*/
  61:external/drivers/stm32wlxx/src/stm32wlxx_hal_pwr_ex.c **** /* Private variables ---------------------------------------------------------*/
  62:external/drivers/stm32wlxx/src/stm32wlxx_hal_pwr_ex.c **** /* Private function prototypes -----------------------------------------------*/
  63:external/drivers/stm32wlxx/src/stm32wlxx_hal_pwr_ex.c **** /* Exported functions --------------------------------------------------------*/
  64:external/drivers/stm32wlxx/src/stm32wlxx_hal_pwr_ex.c **** /** @addtogroup PWREx_Exported_Functions PWR Extended Exported Functions
  65:external/drivers/stm32wlxx/src/stm32wlxx_hal_pwr_ex.c ****   * @{
  66:external/drivers/stm32wlxx/src/stm32wlxx_hal_pwr_ex.c ****   */
  67:external/drivers/stm32wlxx/src/stm32wlxx_hal_pwr_ex.c **** 
  68:external/drivers/stm32wlxx/src/stm32wlxx_hal_pwr_ex.c **** /** @addtogroup PWREx_Exported_Functions_Group1 Extended Peripheral Control functions
  69:external/drivers/stm32wlxx/src/stm32wlxx_hal_pwr_ex.c ****   *  @brief   Extended Peripheral Control functions
  70:external/drivers/stm32wlxx/src/stm32wlxx_hal_pwr_ex.c ****   *
  71:external/drivers/stm32wlxx/src/stm32wlxx_hal_pwr_ex.c **** @verbatim
  72:external/drivers/stm32wlxx/src/stm32wlxx_hal_pwr_ex.c ****  ===============================================================================
  73:external/drivers/stm32wlxx/src/stm32wlxx_hal_pwr_ex.c ****               ##### Extended Peripheral Initialization and de-initialization functions #####
  74:external/drivers/stm32wlxx/src/stm32wlxx_hal_pwr_ex.c ****  ===============================================================================
  75:external/drivers/stm32wlxx/src/stm32wlxx_hal_pwr_ex.c ****     [..]
  76:external/drivers/stm32wlxx/src/stm32wlxx_hal_pwr_ex.c **** 
  77:external/drivers/stm32wlxx/src/stm32wlxx_hal_pwr_ex.c **** @endverbatim
  78:external/drivers/stm32wlxx/src/stm32wlxx_hal_pwr_ex.c ****   * @{
  79:external/drivers/stm32wlxx/src/stm32wlxx_hal_pwr_ex.c ****   */
  80:external/drivers/stm32wlxx/src/stm32wlxx_hal_pwr_ex.c **** 
  81:external/drivers/stm32wlxx/src/stm32wlxx_hal_pwr_ex.c **** 
  82:external/drivers/stm32wlxx/src/stm32wlxx_hal_pwr_ex.c **** /**
  83:external/drivers/stm32wlxx/src/stm32wlxx_hal_pwr_ex.c ****   * @brief Return Voltage Scaling Range.
  84:external/drivers/stm32wlxx/src/stm32wlxx_hal_pwr_ex.c ****   * @retval VOS bit field (PWR_REGULATOR_VOLTAGE_SCALE1 or PWPWR_REGULATOR_VOLTAGE_SCALE2)
  85:external/drivers/stm32wlxx/src/stm32wlxx_hal_pwr_ex.c ****   */
  86:external/drivers/stm32wlxx/src/stm32wlxx_hal_pwr_ex.c **** uint32_t HAL_PWREx_GetVoltageRange(void)
  87:external/drivers/stm32wlxx/src/stm32wlxx_hal_pwr_ex.c **** {
  27              		.loc 1 87 1 view -0
  28              		.cfi_startproc
ARM GAS  /tmp/ccEyuVux.s 			page 3


  29              		@ args = 0, pretend = 0, frame = 0
  30              		@ frame_needed = 0, uses_anonymous_args = 0
  31              		@ link register save eliminated.
  88:external/drivers/stm32wlxx/src/stm32wlxx_hal_pwr_ex.c ****   return (PWR->CR1 & PWR_CR1_VOS);
  32              		.loc 1 88 3 view .LVU1
  33              		.loc 1 88 14 is_stmt 0 view .LVU2
  34 0000 024B     		ldr	r3, .L2
  35 0002 1868     		ldr	r0, [r3]
  89:external/drivers/stm32wlxx/src/stm32wlxx_hal_pwr_ex.c **** }
  36              		.loc 1 89 1 view .LVU3
  37 0004 00F4C060 		and	r0, r0, #1536
  38 0008 7047     		bx	lr
  39              	.L3:
  40 000a 00BF     		.align	2
  41              	.L2:
  42 000c 00040058 		.word	1476396032
  43              		.cfi_endproc
  44              	.LFE844:
  46              		.section	.text.HAL_PWREx_ControlVoltageScaling,"ax",%progbits
  47              		.align	1
  48              		.global	HAL_PWREx_ControlVoltageScaling
  49              		.syntax unified
  50              		.thumb
  51              		.thumb_func
  53              	HAL_PWREx_ControlVoltageScaling:
  54              	.LVL0:
  55              	.LFB845:
  90:external/drivers/stm32wlxx/src/stm32wlxx_hal_pwr_ex.c **** 
  91:external/drivers/stm32wlxx/src/stm32wlxx_hal_pwr_ex.c **** /**
  92:external/drivers/stm32wlxx/src/stm32wlxx_hal_pwr_ex.c ****   * @brief Configure the main internal regulator output voltage.
  93:external/drivers/stm32wlxx/src/stm32wlxx_hal_pwr_ex.c ****   * @param VoltageScaling specifies the regulator output voltage to achieve
  94:external/drivers/stm32wlxx/src/stm32wlxx_hal_pwr_ex.c ****   *         a trade-off between performance and power consumption.
  95:external/drivers/stm32wlxx/src/stm32wlxx_hal_pwr_ex.c ****   *          This parameter can be one of the following values:
  96:external/drivers/stm32wlxx/src/stm32wlxx_hal_pwr_ex.c ****   *            @arg @ref PWR_REGULATOR_VOLTAGE_SCALE1 Regulator voltage output range 1 mode,
  97:external/drivers/stm32wlxx/src/stm32wlxx_hal_pwr_ex.c ****   *                                                typical output voltage at 1.2 V,
  98:external/drivers/stm32wlxx/src/stm32wlxx_hal_pwr_ex.c ****   *                                                system frequency up to 48 MHz.
  99:external/drivers/stm32wlxx/src/stm32wlxx_hal_pwr_ex.c ****   *            @arg @ref PWR_REGULATOR_VOLTAGE_SCALE2 Regulator voltage output range 2 mode,
 100:external/drivers/stm32wlxx/src/stm32wlxx_hal_pwr_ex.c ****   *                                                typical output voltage at 1.0 V,
 101:external/drivers/stm32wlxx/src/stm32wlxx_hal_pwr_ex.c ****   *                                                system frequency up to 16 MHz.
 102:external/drivers/stm32wlxx/src/stm32wlxx_hal_pwr_ex.c ****   * @note  When moving from Range 1 to Range 2, the system frequency must be decreased to
 103:external/drivers/stm32wlxx/src/stm32wlxx_hal_pwr_ex.c ****   *        a value below 16 MHz before calling HAL_PWREx_ControlVoltageScaling() API.
 104:external/drivers/stm32wlxx/src/stm32wlxx_hal_pwr_ex.c ****   *        When moving from Range 2 to Range 1, the system frequency can be increased to
 105:external/drivers/stm32wlxx/src/stm32wlxx_hal_pwr_ex.c ****   *        a value up to 48 MHz after calling HAL_PWREx_ControlVoltageScaling() API.
 106:external/drivers/stm32wlxx/src/stm32wlxx_hal_pwr_ex.c ****   * @note  When moving from Range 2 to Range 1, the API waits for VOSF flag to be
 107:external/drivers/stm32wlxx/src/stm32wlxx_hal_pwr_ex.c ****   *        cleared before returning the status. If the flag is not cleared within
 108:external/drivers/stm32wlxx/src/stm32wlxx_hal_pwr_ex.c ****   *        50 microseconds, HAL_TIMEOUT status is reported.
 109:external/drivers/stm32wlxx/src/stm32wlxx_hal_pwr_ex.c ****   * @retval HAL Status
 110:external/drivers/stm32wlxx/src/stm32wlxx_hal_pwr_ex.c ****   */
 111:external/drivers/stm32wlxx/src/stm32wlxx_hal_pwr_ex.c **** HAL_StatusTypeDef HAL_PWREx_ControlVoltageScaling(uint32_t VoltageScaling)
 112:external/drivers/stm32wlxx/src/stm32wlxx_hal_pwr_ex.c **** {
  56              		.loc 1 112 1 is_stmt 1 view -0
  57              		.cfi_startproc
  58              		@ args = 0, pretend = 0, frame = 0
  59              		@ frame_needed = 0, uses_anonymous_args = 0
  60              		@ link register save eliminated.
 113:external/drivers/stm32wlxx/src/stm32wlxx_hal_pwr_ex.c ****   uint32_t wait_loop_index;
  61              		.loc 1 113 3 view .LVU5
ARM GAS  /tmp/ccEyuVux.s 			page 4


 114:external/drivers/stm32wlxx/src/stm32wlxx_hal_pwr_ex.c **** 
 115:external/drivers/stm32wlxx/src/stm32wlxx_hal_pwr_ex.c ****   assert_param(IS_PWR_VOLTAGE_SCALING_RANGE(VoltageScaling));
  62              		.loc 1 115 3 view .LVU6
 116:external/drivers/stm32wlxx/src/stm32wlxx_hal_pwr_ex.c **** 
 117:external/drivers/stm32wlxx/src/stm32wlxx_hal_pwr_ex.c ****   /* If Set Range 1 */
 118:external/drivers/stm32wlxx/src/stm32wlxx_hal_pwr_ex.c ****   if (VoltageScaling == PWR_REGULATOR_VOLTAGE_SCALE1)
  63              		.loc 1 118 3 view .LVU7
  64              		.loc 1 118 6 is_stmt 0 view .LVU8
  65 0000 B0F5007F 		cmp	r0, #512
  66 0004 0FD0     		beq	.L13
 119:external/drivers/stm32wlxx/src/stm32wlxx_hal_pwr_ex.c ****   {
 120:external/drivers/stm32wlxx/src/stm32wlxx_hal_pwr_ex.c ****     if (READ_BIT(PWR->CR1, PWR_CR1_VOS) != PWR_REGULATOR_VOLTAGE_SCALE1)
 121:external/drivers/stm32wlxx/src/stm32wlxx_hal_pwr_ex.c ****     {
 122:external/drivers/stm32wlxx/src/stm32wlxx_hal_pwr_ex.c ****       /* Set Range 1 */
 123:external/drivers/stm32wlxx/src/stm32wlxx_hal_pwr_ex.c ****       MODIFY_REG(PWR->CR1, PWR_CR1_VOS, PWR_REGULATOR_VOLTAGE_SCALE1);
 124:external/drivers/stm32wlxx/src/stm32wlxx_hal_pwr_ex.c **** 
 125:external/drivers/stm32wlxx/src/stm32wlxx_hal_pwr_ex.c ****       /* Wait until VOSF is cleared */
 126:external/drivers/stm32wlxx/src/stm32wlxx_hal_pwr_ex.c ****       wait_loop_index = ((PWR_FLAG_SETTING_DELAY_US * SystemCoreClock) / 1000000UL);
 127:external/drivers/stm32wlxx/src/stm32wlxx_hal_pwr_ex.c ****       while ((HAL_IS_BIT_SET(PWR->SR2, PWR_SR2_VOSF)) && (wait_loop_index != 0U))
 128:external/drivers/stm32wlxx/src/stm32wlxx_hal_pwr_ex.c ****       {
 129:external/drivers/stm32wlxx/src/stm32wlxx_hal_pwr_ex.c ****         wait_loop_index--;
 130:external/drivers/stm32wlxx/src/stm32wlxx_hal_pwr_ex.c ****       }
 131:external/drivers/stm32wlxx/src/stm32wlxx_hal_pwr_ex.c ****       if (HAL_IS_BIT_SET(PWR->SR2, PWR_SR2_VOSF))
 132:external/drivers/stm32wlxx/src/stm32wlxx_hal_pwr_ex.c ****       {
 133:external/drivers/stm32wlxx/src/stm32wlxx_hal_pwr_ex.c ****         return HAL_TIMEOUT;
 134:external/drivers/stm32wlxx/src/stm32wlxx_hal_pwr_ex.c ****       }
 135:external/drivers/stm32wlxx/src/stm32wlxx_hal_pwr_ex.c ****     }
 136:external/drivers/stm32wlxx/src/stm32wlxx_hal_pwr_ex.c ****   }
 137:external/drivers/stm32wlxx/src/stm32wlxx_hal_pwr_ex.c ****   else
 138:external/drivers/stm32wlxx/src/stm32wlxx_hal_pwr_ex.c ****   {
 139:external/drivers/stm32wlxx/src/stm32wlxx_hal_pwr_ex.c ****     if (READ_BIT(PWR->CR1, PWR_CR1_VOS) != PWR_REGULATOR_VOLTAGE_SCALE2)
  67              		.loc 1 139 5 is_stmt 1 view .LVU9
  68              		.loc 1 139 9 is_stmt 0 view .LVU10
  69 0006 1E4B     		ldr	r3, .L14
  70 0008 1B68     		ldr	r3, [r3]
  71 000a 03F4C063 		and	r3, r3, #1536
  72              		.loc 1 139 8 view .LVU11
  73 000e B3F5806F 		cmp	r3, #1024
  74 0012 33D0     		beq	.L12
 140:external/drivers/stm32wlxx/src/stm32wlxx_hal_pwr_ex.c ****     {
 141:external/drivers/stm32wlxx/src/stm32wlxx_hal_pwr_ex.c ****       /* Set Range 2 */
 142:external/drivers/stm32wlxx/src/stm32wlxx_hal_pwr_ex.c ****       MODIFY_REG(PWR->CR1, PWR_CR1_VOS, PWR_REGULATOR_VOLTAGE_SCALE2);
  75              		.loc 1 142 7 is_stmt 1 view .LVU12
  76 0014 1A4A     		ldr	r2, .L14
  77 0016 1368     		ldr	r3, [r2]
  78 0018 23F4C063 		bic	r3, r3, #1536
  79 001c 43F48063 		orr	r3, r3, #1024
  80 0020 1360     		str	r3, [r2]
 143:external/drivers/stm32wlxx/src/stm32wlxx_hal_pwr_ex.c ****       /* No need to wait for VOSF to be cleared for this transition */
 144:external/drivers/stm32wlxx/src/stm32wlxx_hal_pwr_ex.c ****     }
 145:external/drivers/stm32wlxx/src/stm32wlxx_hal_pwr_ex.c ****   }
 146:external/drivers/stm32wlxx/src/stm32wlxx_hal_pwr_ex.c **** 
 147:external/drivers/stm32wlxx/src/stm32wlxx_hal_pwr_ex.c ****   return HAL_OK;
  81              		.loc 1 147 10 is_stmt 0 view .LVU13
  82 0022 0020     		movs	r0, #0
  83              	.LVL1:
  84              		.loc 1 147 10 view .LVU14
ARM GAS  /tmp/ccEyuVux.s 			page 5


  85 0024 7047     		bx	lr
  86              	.LVL2:
  87              	.L13:
 120:external/drivers/stm32wlxx/src/stm32wlxx_hal_pwr_ex.c ****     {
  88              		.loc 1 120 5 is_stmt 1 view .LVU15
 120:external/drivers/stm32wlxx/src/stm32wlxx_hal_pwr_ex.c ****     {
  89              		.loc 1 120 9 is_stmt 0 view .LVU16
  90 0026 164B     		ldr	r3, .L14
  91 0028 1B68     		ldr	r3, [r3]
  92 002a 03F4C063 		and	r3, r3, #1536
 120:external/drivers/stm32wlxx/src/stm32wlxx_hal_pwr_ex.c ****     {
  93              		.loc 1 120 8 view .LVU17
  94 002e B3F5007F 		cmp	r3, #512
  95 0032 1FD0     		beq	.L10
 123:external/drivers/stm32wlxx/src/stm32wlxx_hal_pwr_ex.c **** 
  96              		.loc 1 123 7 is_stmt 1 view .LVU18
  97 0034 124A     		ldr	r2, .L14
  98 0036 1368     		ldr	r3, [r2]
  99 0038 23F4C063 		bic	r3, r3, #1536
 100 003c 43F40073 		orr	r3, r3, #512
 101 0040 1360     		str	r3, [r2]
 126:external/drivers/stm32wlxx/src/stm32wlxx_hal_pwr_ex.c ****       while ((HAL_IS_BIT_SET(PWR->SR2, PWR_SR2_VOSF)) && (wait_loop_index != 0U))
 102              		.loc 1 126 7 view .LVU19
 126:external/drivers/stm32wlxx/src/stm32wlxx_hal_pwr_ex.c ****       while ((HAL_IS_BIT_SET(PWR->SR2, PWR_SR2_VOSF)) && (wait_loop_index != 0U))
 103              		.loc 1 126 53 is_stmt 0 view .LVU20
 104 0042 104B     		ldr	r3, .L14+4
 105 0044 1B68     		ldr	r3, [r3]
 106 0046 3222     		movs	r2, #50
 107 0048 02FB03F3 		mul	r3, r2, r3
 126:external/drivers/stm32wlxx/src/stm32wlxx_hal_pwr_ex.c ****       while ((HAL_IS_BIT_SET(PWR->SR2, PWR_SR2_VOSF)) && (wait_loop_index != 0U))
 108              		.loc 1 126 23 view .LVU21
 109 004c 0E4A     		ldr	r2, .L14+8
 110 004e A2FB0323 		umull	r2, r3, r2, r3
 111 0052 9B0C     		lsrs	r3, r3, #18
 112              	.LVL3:
 127:external/drivers/stm32wlxx/src/stm32wlxx_hal_pwr_ex.c ****       {
 113              		.loc 1 127 7 is_stmt 1 view .LVU22
 127:external/drivers/stm32wlxx/src/stm32wlxx_hal_pwr_ex.c ****       {
 114              		.loc 1 127 13 is_stmt 0 view .LVU23
 115 0054 00E0     		b	.L7
 116              	.L9:
 129:external/drivers/stm32wlxx/src/stm32wlxx_hal_pwr_ex.c ****       }
 117              		.loc 1 129 9 is_stmt 1 view .LVU24
 129:external/drivers/stm32wlxx/src/stm32wlxx_hal_pwr_ex.c ****       }
 118              		.loc 1 129 24 is_stmt 0 view .LVU25
 119 0056 013B     		subs	r3, r3, #1
 120              	.LVL4:
 121              	.L7:
 127:external/drivers/stm32wlxx/src/stm32wlxx_hal_pwr_ex.c ****       {
 122              		.loc 1 127 55 is_stmt 1 view .LVU26
 127:external/drivers/stm32wlxx/src/stm32wlxx_hal_pwr_ex.c ****       {
 123              		.loc 1 127 15 is_stmt 0 view .LVU27
 124 0058 094A     		ldr	r2, .L14
 125 005a 5269     		ldr	r2, [r2, #20]
 127:external/drivers/stm32wlxx/src/stm32wlxx_hal_pwr_ex.c ****       {
 126              		.loc 1 127 55 view .LVU28
 127 005c 12F4806F 		tst	r2, #1024
ARM GAS  /tmp/ccEyuVux.s 			page 6


 128 0060 01D0     		beq	.L8
 127:external/drivers/stm32wlxx/src/stm32wlxx_hal_pwr_ex.c ****       {
 129              		.loc 1 127 55 discriminator 1 view .LVU29
 130 0062 002B     		cmp	r3, #0
 131 0064 F7D1     		bne	.L9
 132              	.L8:
 131:external/drivers/stm32wlxx/src/stm32wlxx_hal_pwr_ex.c ****       {
 133              		.loc 1 131 7 is_stmt 1 view .LVU30
 131:external/drivers/stm32wlxx/src/stm32wlxx_hal_pwr_ex.c ****       {
 134              		.loc 1 131 11 is_stmt 0 view .LVU31
 135 0066 064B     		ldr	r3, .L14
 136              	.LVL5:
 131:external/drivers/stm32wlxx/src/stm32wlxx_hal_pwr_ex.c ****       {
 137              		.loc 1 131 11 view .LVU32
 138 0068 5B69     		ldr	r3, [r3, #20]
 131:external/drivers/stm32wlxx/src/stm32wlxx_hal_pwr_ex.c ****       {
 139              		.loc 1 131 10 view .LVU33
 140 006a 13F4806F 		tst	r3, #1024
 141 006e 03D1     		bne	.L11
 142              		.loc 1 147 10 view .LVU34
 143 0070 0020     		movs	r0, #0
 144              	.LVL6:
 145              		.loc 1 147 10 view .LVU35
 146 0072 7047     		bx	lr
 147              	.LVL7:
 148              	.L10:
 149              		.loc 1 147 10 view .LVU36
 150 0074 0020     		movs	r0, #0
 151              	.LVL8:
 152              		.loc 1 147 10 view .LVU37
 153 0076 7047     		bx	lr
 154              	.LVL9:
 155              	.L11:
 133:external/drivers/stm32wlxx/src/stm32wlxx_hal_pwr_ex.c ****       }
 156              		.loc 1 133 16 view .LVU38
 157 0078 0320     		movs	r0, #3
 158              	.LVL10:
 133:external/drivers/stm32wlxx/src/stm32wlxx_hal_pwr_ex.c ****       }
 159              		.loc 1 133 16 view .LVU39
 160 007a 7047     		bx	lr
 161              	.LVL11:
 162              	.L12:
 163              		.loc 1 147 10 view .LVU40
 164 007c 0020     		movs	r0, #0
 165              	.LVL12:
 148:external/drivers/stm32wlxx/src/stm32wlxx_hal_pwr_ex.c **** }
 166              		.loc 1 148 1 view .LVU41
 167 007e 7047     		bx	lr
 168              	.L15:
 169              		.align	2
 170              	.L14:
 171 0080 00040058 		.word	1476396032
 172 0084 00000000 		.word	SystemCoreClock
 173 0088 83DE1B43 		.word	1125899907
 174              		.cfi_endproc
 175              	.LFE845:
 177              		.section	.text.HAL_PWREx_EnableBatteryCharging,"ax",%progbits
ARM GAS  /tmp/ccEyuVux.s 			page 7


 178              		.align	1
 179              		.global	HAL_PWREx_EnableBatteryCharging
 180              		.syntax unified
 181              		.thumb
 182              		.thumb_func
 184              	HAL_PWREx_EnableBatteryCharging:
 185              	.LVL13:
 186              	.LFB846:
 149:external/drivers/stm32wlxx/src/stm32wlxx_hal_pwr_ex.c **** 
 150:external/drivers/stm32wlxx/src/stm32wlxx_hal_pwr_ex.c **** /****************************************************************************/
 151:external/drivers/stm32wlxx/src/stm32wlxx_hal_pwr_ex.c **** 
 152:external/drivers/stm32wlxx/src/stm32wlxx_hal_pwr_ex.c **** /**
 153:external/drivers/stm32wlxx/src/stm32wlxx_hal_pwr_ex.c ****   * @brief Enable battery charging.
 154:external/drivers/stm32wlxx/src/stm32wlxx_hal_pwr_ex.c ****   *        When VDD is present, charge the external battery on VBAT through an internal resistor.
 155:external/drivers/stm32wlxx/src/stm32wlxx_hal_pwr_ex.c ****   * @param ResistorSelection specifies the resistor impedance.
 156:external/drivers/stm32wlxx/src/stm32wlxx_hal_pwr_ex.c ****   *          This parameter can be one of the following values:
 157:external/drivers/stm32wlxx/src/stm32wlxx_hal_pwr_ex.c ****   *            @arg @ref PWR_BATTERY_CHARGING_RESISTOR_5     5 kOhms resistor
 158:external/drivers/stm32wlxx/src/stm32wlxx_hal_pwr_ex.c ****   *            @arg @ref PWR_BATTERY_CHARGING_RESISTOR_1_5 1.5 kOhms resistor
 159:external/drivers/stm32wlxx/src/stm32wlxx_hal_pwr_ex.c ****   * @retval None
 160:external/drivers/stm32wlxx/src/stm32wlxx_hal_pwr_ex.c ****   */
 161:external/drivers/stm32wlxx/src/stm32wlxx_hal_pwr_ex.c **** void HAL_PWREx_EnableBatteryCharging(uint32_t ResistorSelection)
 162:external/drivers/stm32wlxx/src/stm32wlxx_hal_pwr_ex.c **** {
 187              		.loc 1 162 1 is_stmt 1 view -0
 188              		.cfi_startproc
 189              		@ args = 0, pretend = 0, frame = 0
 190              		@ frame_needed = 0, uses_anonymous_args = 0
 191              		@ link register save eliminated.
 163:external/drivers/stm32wlxx/src/stm32wlxx_hal_pwr_ex.c ****   assert_param(IS_PWR_BATTERY_RESISTOR_SELECT(ResistorSelection));
 192              		.loc 1 163 3 view .LVU43
 164:external/drivers/stm32wlxx/src/stm32wlxx_hal_pwr_ex.c **** 
 165:external/drivers/stm32wlxx/src/stm32wlxx_hal_pwr_ex.c ****   /* Specify resistor selection */
 166:external/drivers/stm32wlxx/src/stm32wlxx_hal_pwr_ex.c ****   MODIFY_REG(PWR->CR4, PWR_CR4_VBRS, ResistorSelection);
 193              		.loc 1 166 3 view .LVU44
 194 0000 054A     		ldr	r2, .L17
 195 0002 D368     		ldr	r3, [r2, #12]
 196 0004 23F40073 		bic	r3, r3, #512
 197 0008 0343     		orrs	r3, r3, r0
 198 000a D360     		str	r3, [r2, #12]
 167:external/drivers/stm32wlxx/src/stm32wlxx_hal_pwr_ex.c **** 
 168:external/drivers/stm32wlxx/src/stm32wlxx_hal_pwr_ex.c ****   /* Enable battery charging */
 169:external/drivers/stm32wlxx/src/stm32wlxx_hal_pwr_ex.c ****   SET_BIT(PWR->CR4, PWR_CR4_VBE);
 199              		.loc 1 169 3 view .LVU45
 200 000c D368     		ldr	r3, [r2, #12]
 201 000e 43F48073 		orr	r3, r3, #256
 202 0012 D360     		str	r3, [r2, #12]
 170:external/drivers/stm32wlxx/src/stm32wlxx_hal_pwr_ex.c **** }
 203              		.loc 1 170 1 is_stmt 0 view .LVU46
 204 0014 7047     		bx	lr
 205              	.L18:
 206 0016 00BF     		.align	2
 207              	.L17:
 208 0018 00040058 		.word	1476396032
 209              		.cfi_endproc
 210              	.LFE846:
 212              		.section	.text.HAL_PWREx_DisableBatteryCharging,"ax",%progbits
 213              		.align	1
 214              		.global	HAL_PWREx_DisableBatteryCharging
ARM GAS  /tmp/ccEyuVux.s 			page 8


 215              		.syntax unified
 216              		.thumb
 217              		.thumb_func
 219              	HAL_PWREx_DisableBatteryCharging:
 220              	.LFB847:
 171:external/drivers/stm32wlxx/src/stm32wlxx_hal_pwr_ex.c **** 
 172:external/drivers/stm32wlxx/src/stm32wlxx_hal_pwr_ex.c **** /**
 173:external/drivers/stm32wlxx/src/stm32wlxx_hal_pwr_ex.c ****   * @brief Disable battery charging.
 174:external/drivers/stm32wlxx/src/stm32wlxx_hal_pwr_ex.c ****   * @retval None
 175:external/drivers/stm32wlxx/src/stm32wlxx_hal_pwr_ex.c ****   */
 176:external/drivers/stm32wlxx/src/stm32wlxx_hal_pwr_ex.c **** void HAL_PWREx_DisableBatteryCharging(void)
 177:external/drivers/stm32wlxx/src/stm32wlxx_hal_pwr_ex.c **** {
 221              		.loc 1 177 1 is_stmt 1 view -0
 222              		.cfi_startproc
 223              		@ args = 0, pretend = 0, frame = 0
 224              		@ frame_needed = 0, uses_anonymous_args = 0
 225              		@ link register save eliminated.
 178:external/drivers/stm32wlxx/src/stm32wlxx_hal_pwr_ex.c ****   CLEAR_BIT(PWR->CR4, PWR_CR4_VBE);
 226              		.loc 1 178 3 view .LVU48
 227 0000 024A     		ldr	r2, .L20
 228 0002 D368     		ldr	r3, [r2, #12]
 229 0004 23F48073 		bic	r3, r3, #256
 230 0008 D360     		str	r3, [r2, #12]
 179:external/drivers/stm32wlxx/src/stm32wlxx_hal_pwr_ex.c **** }
 231              		.loc 1 179 1 is_stmt 0 view .LVU49
 232 000a 7047     		bx	lr
 233              	.L21:
 234              		.align	2
 235              	.L20:
 236 000c 00040058 		.word	1476396032
 237              		.cfi_endproc
 238              	.LFE847:
 240              		.section	.text.HAL_PWREx_EnableInternalWakeUpLine,"ax",%progbits
 241              		.align	1
 242              		.global	HAL_PWREx_EnableInternalWakeUpLine
 243              		.syntax unified
 244              		.thumb
 245              		.thumb_func
 247              	HAL_PWREx_EnableInternalWakeUpLine:
 248              	.LFB848:
 180:external/drivers/stm32wlxx/src/stm32wlxx_hal_pwr_ex.c **** 
 181:external/drivers/stm32wlxx/src/stm32wlxx_hal_pwr_ex.c **** /****************************************************************************/
 182:external/drivers/stm32wlxx/src/stm32wlxx_hal_pwr_ex.c **** 
 183:external/drivers/stm32wlxx/src/stm32wlxx_hal_pwr_ex.c **** /**
 184:external/drivers/stm32wlxx/src/stm32wlxx_hal_pwr_ex.c ****   * @brief Enable Internal Wake-up Line.
 185:external/drivers/stm32wlxx/src/stm32wlxx_hal_pwr_ex.c ****   * @retval None
 186:external/drivers/stm32wlxx/src/stm32wlxx_hal_pwr_ex.c ****   */
 187:external/drivers/stm32wlxx/src/stm32wlxx_hal_pwr_ex.c **** void HAL_PWREx_EnableInternalWakeUpLine(void)
 188:external/drivers/stm32wlxx/src/stm32wlxx_hal_pwr_ex.c **** {
 249              		.loc 1 188 1 is_stmt 1 view -0
 250              		.cfi_startproc
 251              		@ args = 0, pretend = 0, frame = 0
 252              		@ frame_needed = 0, uses_anonymous_args = 0
 253              		@ link register save eliminated.
 189:external/drivers/stm32wlxx/src/stm32wlxx_hal_pwr_ex.c **** #ifdef CORE_CM0PLUS
 190:external/drivers/stm32wlxx/src/stm32wlxx_hal_pwr_ex.c ****   SET_BIT(PWR->C2CR3, PWR_C2CR3_EIWUL);
 191:external/drivers/stm32wlxx/src/stm32wlxx_hal_pwr_ex.c **** #else
ARM GAS  /tmp/ccEyuVux.s 			page 9


 192:external/drivers/stm32wlxx/src/stm32wlxx_hal_pwr_ex.c ****   SET_BIT(PWR->CR3, PWR_CR3_EIWUL);
 254              		.loc 1 192 3 view .LVU51
 255 0000 024A     		ldr	r2, .L23
 256 0002 9368     		ldr	r3, [r2, #8]
 257 0004 43F40043 		orr	r3, r3, #32768
 258 0008 9360     		str	r3, [r2, #8]
 193:external/drivers/stm32wlxx/src/stm32wlxx_hal_pwr_ex.c **** #endif /* CORE_CM0PLUS */
 194:external/drivers/stm32wlxx/src/stm32wlxx_hal_pwr_ex.c **** }
 259              		.loc 1 194 1 is_stmt 0 view .LVU52
 260 000a 7047     		bx	lr
 261              	.L24:
 262              		.align	2
 263              	.L23:
 264 000c 00040058 		.word	1476396032
 265              		.cfi_endproc
 266              	.LFE848:
 268              		.section	.text.HAL_PWREx_DisableInternalWakeUpLine,"ax",%progbits
 269              		.align	1
 270              		.global	HAL_PWREx_DisableInternalWakeUpLine
 271              		.syntax unified
 272              		.thumb
 273              		.thumb_func
 275              	HAL_PWREx_DisableInternalWakeUpLine:
 276              	.LFB849:
 195:external/drivers/stm32wlxx/src/stm32wlxx_hal_pwr_ex.c **** 
 196:external/drivers/stm32wlxx/src/stm32wlxx_hal_pwr_ex.c **** /**
 197:external/drivers/stm32wlxx/src/stm32wlxx_hal_pwr_ex.c ****   * @brief Disable Internal Wake-up Line.
 198:external/drivers/stm32wlxx/src/stm32wlxx_hal_pwr_ex.c ****   * @retval None
 199:external/drivers/stm32wlxx/src/stm32wlxx_hal_pwr_ex.c ****   */
 200:external/drivers/stm32wlxx/src/stm32wlxx_hal_pwr_ex.c **** void HAL_PWREx_DisableInternalWakeUpLine(void)
 201:external/drivers/stm32wlxx/src/stm32wlxx_hal_pwr_ex.c **** {
 277              		.loc 1 201 1 is_stmt 1 view -0
 278              		.cfi_startproc
 279              		@ args = 0, pretend = 0, frame = 0
 280              		@ frame_needed = 0, uses_anonymous_args = 0
 281              		@ link register save eliminated.
 202:external/drivers/stm32wlxx/src/stm32wlxx_hal_pwr_ex.c **** #ifdef CORE_CM0PLUS
 203:external/drivers/stm32wlxx/src/stm32wlxx_hal_pwr_ex.c ****   CLEAR_BIT(PWR->C2CR3, PWR_C2CR3_EIWUL);
 204:external/drivers/stm32wlxx/src/stm32wlxx_hal_pwr_ex.c **** #else
 205:external/drivers/stm32wlxx/src/stm32wlxx_hal_pwr_ex.c ****   CLEAR_BIT(PWR->CR3, PWR_CR3_EIWUL);
 282              		.loc 1 205 3 view .LVU54
 283 0000 024A     		ldr	r2, .L26
 284 0002 9368     		ldr	r3, [r2, #8]
 285 0004 23F40043 		bic	r3, r3, #32768
 286 0008 9360     		str	r3, [r2, #8]
 206:external/drivers/stm32wlxx/src/stm32wlxx_hal_pwr_ex.c **** #endif /* CORE_CM0PLUS */
 207:external/drivers/stm32wlxx/src/stm32wlxx_hal_pwr_ex.c **** }
 287              		.loc 1 207 1 is_stmt 0 view .LVU55
 288 000a 7047     		bx	lr
 289              	.L27:
 290              		.align	2
 291              	.L26:
 292 000c 00040058 		.word	1476396032
 293              		.cfi_endproc
 294              	.LFE849:
 296              		.section	.text.HAL_PWREx_SetRadioBusyPolarity,"ax",%progbits
 297              		.align	1
ARM GAS  /tmp/ccEyuVux.s 			page 10


 298              		.global	HAL_PWREx_SetRadioBusyPolarity
 299              		.syntax unified
 300              		.thumb
 301              		.thumb_func
 303              	HAL_PWREx_SetRadioBusyPolarity:
 304              	.LVL14:
 305              	.LFB850:
 208:external/drivers/stm32wlxx/src/stm32wlxx_hal_pwr_ex.c **** 
 209:external/drivers/stm32wlxx/src/stm32wlxx_hal_pwr_ex.c **** /**
 210:external/drivers/stm32wlxx/src/stm32wlxx_hal_pwr_ex.c ****   * @brief  Set radio busy trigger polarity.
 211:external/drivers/stm32wlxx/src/stm32wlxx_hal_pwr_ex.c ****   * @param  RadioBusyPolarity This parameter can be one of the following values:
 212:external/drivers/stm32wlxx/src/stm32wlxx_hal_pwr_ex.c ****   *         @arg @ref PWR_RADIO_BUSY_POLARITY_RISING
 213:external/drivers/stm32wlxx/src/stm32wlxx_hal_pwr_ex.c ****   *         @arg @ref PWR_RADIO_BUSY_POLARITY_FALLING
 214:external/drivers/stm32wlxx/src/stm32wlxx_hal_pwr_ex.c ****   * @retval HAL Status
 215:external/drivers/stm32wlxx/src/stm32wlxx_hal_pwr_ex.c ****   */
 216:external/drivers/stm32wlxx/src/stm32wlxx_hal_pwr_ex.c **** void HAL_PWREx_SetRadioBusyPolarity(uint32_t RadioBusyPolarity)
 217:external/drivers/stm32wlxx/src/stm32wlxx_hal_pwr_ex.c **** {
 306              		.loc 1 217 1 is_stmt 1 view -0
 307              		.cfi_startproc
 308              		@ args = 0, pretend = 0, frame = 0
 309              		@ frame_needed = 0, uses_anonymous_args = 0
 310              		@ link register save eliminated.
 218:external/drivers/stm32wlxx/src/stm32wlxx_hal_pwr_ex.c ****   /* Check the parameters */
 219:external/drivers/stm32wlxx/src/stm32wlxx_hal_pwr_ex.c ****   assert_param(IS_RADIO_BUSY_POLARITY(RadioBusyPolarity));
 311              		.loc 1 219 3 view .LVU57
 220:external/drivers/stm32wlxx/src/stm32wlxx_hal_pwr_ex.c **** 
 221:external/drivers/stm32wlxx/src/stm32wlxx_hal_pwr_ex.c ****   LL_PWR_SetRadioBusyPolarity(RadioBusyPolarity);
 312              		.loc 1 221 3 view .LVU58
 313              	.LBB38:
 314              	.LBI38:
 315              		.file 2 "external/drivers/stm32wlxx/include/stm32wlxx_ll_pwr.h"
   1:external/drivers/stm32wlxx/include/stm32wlxx_ll_pwr.h **** /**
   2:external/drivers/stm32wlxx/include/stm32wlxx_ll_pwr.h ****   ******************************************************************************
   3:external/drivers/stm32wlxx/include/stm32wlxx_ll_pwr.h ****   * @file    stm32wlxx_ll_pwr.h
   4:external/drivers/stm32wlxx/include/stm32wlxx_ll_pwr.h ****   * @author  MCD Application Team
   5:external/drivers/stm32wlxx/include/stm32wlxx_ll_pwr.h ****   * @brief   Header file of PWR LL module.
   6:external/drivers/stm32wlxx/include/stm32wlxx_ll_pwr.h ****   ******************************************************************************
   7:external/drivers/stm32wlxx/include/stm32wlxx_ll_pwr.h ****   * @attention
   8:external/drivers/stm32wlxx/include/stm32wlxx_ll_pwr.h ****   *
   9:external/drivers/stm32wlxx/include/stm32wlxx_ll_pwr.h ****   * Copyright (c) 2020 STMicroelectronics.
  10:external/drivers/stm32wlxx/include/stm32wlxx_ll_pwr.h ****   * All rights reserved.
  11:external/drivers/stm32wlxx/include/stm32wlxx_ll_pwr.h ****   *
  12:external/drivers/stm32wlxx/include/stm32wlxx_ll_pwr.h ****   * This software is licensed under terms that can be found in the LICENSE file
  13:external/drivers/stm32wlxx/include/stm32wlxx_ll_pwr.h ****   * in the root directory of this software component.
  14:external/drivers/stm32wlxx/include/stm32wlxx_ll_pwr.h ****   * If no LICENSE file comes with this software, it is provided AS-IS.
  15:external/drivers/stm32wlxx/include/stm32wlxx_ll_pwr.h ****   *
  16:external/drivers/stm32wlxx/include/stm32wlxx_ll_pwr.h ****   ******************************************************************************
  17:external/drivers/stm32wlxx/include/stm32wlxx_ll_pwr.h ****   */
  18:external/drivers/stm32wlxx/include/stm32wlxx_ll_pwr.h **** 
  19:external/drivers/stm32wlxx/include/stm32wlxx_ll_pwr.h **** /* Define to prevent recursive inclusion -------------------------------------*/
  20:external/drivers/stm32wlxx/include/stm32wlxx_ll_pwr.h **** #ifndef __STM32WLxx_LL_PWR_H
  21:external/drivers/stm32wlxx/include/stm32wlxx_ll_pwr.h **** #define __STM32WLxx_LL_PWR_H
  22:external/drivers/stm32wlxx/include/stm32wlxx_ll_pwr.h **** 
  23:external/drivers/stm32wlxx/include/stm32wlxx_ll_pwr.h **** #ifdef __cplusplus
  24:external/drivers/stm32wlxx/include/stm32wlxx_ll_pwr.h **** extern "C" {
  25:external/drivers/stm32wlxx/include/stm32wlxx_ll_pwr.h **** #endif
  26:external/drivers/stm32wlxx/include/stm32wlxx_ll_pwr.h **** 
ARM GAS  /tmp/ccEyuVux.s 			page 11


  27:external/drivers/stm32wlxx/include/stm32wlxx_ll_pwr.h **** /* Includes ------------------------------------------------------------------*/
  28:external/drivers/stm32wlxx/include/stm32wlxx_ll_pwr.h **** #include "stm32wlxx.h"
  29:external/drivers/stm32wlxx/include/stm32wlxx_ll_pwr.h **** 
  30:external/drivers/stm32wlxx/include/stm32wlxx_ll_pwr.h **** /** @addtogroup STM32WLxx_LL_Driver
  31:external/drivers/stm32wlxx/include/stm32wlxx_ll_pwr.h ****   * @{
  32:external/drivers/stm32wlxx/include/stm32wlxx_ll_pwr.h ****   */
  33:external/drivers/stm32wlxx/include/stm32wlxx_ll_pwr.h **** 
  34:external/drivers/stm32wlxx/include/stm32wlxx_ll_pwr.h **** #if defined(PWR)
  35:external/drivers/stm32wlxx/include/stm32wlxx_ll_pwr.h **** 
  36:external/drivers/stm32wlxx/include/stm32wlxx_ll_pwr.h **** /** @defgroup PWR_LL PWR
  37:external/drivers/stm32wlxx/include/stm32wlxx_ll_pwr.h ****   * @{
  38:external/drivers/stm32wlxx/include/stm32wlxx_ll_pwr.h ****   */
  39:external/drivers/stm32wlxx/include/stm32wlxx_ll_pwr.h **** 
  40:external/drivers/stm32wlxx/include/stm32wlxx_ll_pwr.h **** /* Private types -------------------------------------------------------------*/
  41:external/drivers/stm32wlxx/include/stm32wlxx_ll_pwr.h **** /* Private variables ---------------------------------------------------------*/
  42:external/drivers/stm32wlxx/include/stm32wlxx_ll_pwr.h **** 
  43:external/drivers/stm32wlxx/include/stm32wlxx_ll_pwr.h **** /* Private constants ---------------------------------------------------------*/
  44:external/drivers/stm32wlxx/include/stm32wlxx_ll_pwr.h **** /** @defgroup PWR_LL_Private_Constants PWR Private Constants
  45:external/drivers/stm32wlxx/include/stm32wlxx_ll_pwr.h ****   * @{
  46:external/drivers/stm32wlxx/include/stm32wlxx_ll_pwr.h ****   */
  47:external/drivers/stm32wlxx/include/stm32wlxx_ll_pwr.h **** #define PWR_FLASH_POWER_MODE_UNLOCK_CODE  (0x0000C1B0UL)
  48:external/drivers/stm32wlxx/include/stm32wlxx_ll_pwr.h **** /**
  49:external/drivers/stm32wlxx/include/stm32wlxx_ll_pwr.h ****   * @}
  50:external/drivers/stm32wlxx/include/stm32wlxx_ll_pwr.h ****   */
  51:external/drivers/stm32wlxx/include/stm32wlxx_ll_pwr.h **** 
  52:external/drivers/stm32wlxx/include/stm32wlxx_ll_pwr.h **** /* Private macros ------------------------------------------------------------*/
  53:external/drivers/stm32wlxx/include/stm32wlxx_ll_pwr.h **** 
  54:external/drivers/stm32wlxx/include/stm32wlxx_ll_pwr.h **** /* Exported types ------------------------------------------------------------*/
  55:external/drivers/stm32wlxx/include/stm32wlxx_ll_pwr.h **** /* Exported constants --------------------------------------------------------*/
  56:external/drivers/stm32wlxx/include/stm32wlxx_ll_pwr.h **** /** @defgroup PWR_LL_Exported_Constants PWR Exported Constants
  57:external/drivers/stm32wlxx/include/stm32wlxx_ll_pwr.h ****   * @{
  58:external/drivers/stm32wlxx/include/stm32wlxx_ll_pwr.h ****   */
  59:external/drivers/stm32wlxx/include/stm32wlxx_ll_pwr.h **** 
  60:external/drivers/stm32wlxx/include/stm32wlxx_ll_pwr.h **** /** @defgroup PWR_LL_EC_CLEAR_FLAG Clear Flags Defines
  61:external/drivers/stm32wlxx/include/stm32wlxx_ll_pwr.h ****   * @brief    Flags defines which can be used with LL_PWR_WriteReg function
  62:external/drivers/stm32wlxx/include/stm32wlxx_ll_pwr.h ****   * @{
  63:external/drivers/stm32wlxx/include/stm32wlxx_ll_pwr.h ****   */
  64:external/drivers/stm32wlxx/include/stm32wlxx_ll_pwr.h **** #define LL_PWR_SCR_CWUF                    PWR_SCR_CWUF
  65:external/drivers/stm32wlxx/include/stm32wlxx_ll_pwr.h **** #define LL_PWR_SCR_CWUF3                   PWR_SCR_CWUF3
  66:external/drivers/stm32wlxx/include/stm32wlxx_ll_pwr.h **** #define LL_PWR_SCR_CWUF2                   PWR_SCR_CWUF2
  67:external/drivers/stm32wlxx/include/stm32wlxx_ll_pwr.h **** #define LL_PWR_SCR_CWUF1                   PWR_SCR_CWUF1
  68:external/drivers/stm32wlxx/include/stm32wlxx_ll_pwr.h **** #define LL_PWR_SCR_CWPVDF                  PWR_SCR_CWPVDF
  69:external/drivers/stm32wlxx/include/stm32wlxx_ll_pwr.h **** #define LL_PWR_SCR_CWRFBUSYF               PWR_SCR_CWRFBUSYF
  70:external/drivers/stm32wlxx/include/stm32wlxx_ll_pwr.h **** #define LL_PWR_SCR_CC2HF                   PWR_SCR_CC2HF
  71:external/drivers/stm32wlxx/include/stm32wlxx_ll_pwr.h **** #define LL_PWR_EXTSCR_C2CSSF               PWR_EXTSCR_C2CSSF
  72:external/drivers/stm32wlxx/include/stm32wlxx_ll_pwr.h **** #define LL_PWR_EXTSCR_C1CSSF               PWR_EXTSCR_C1CSSF
  73:external/drivers/stm32wlxx/include/stm32wlxx_ll_pwr.h **** /**
  74:external/drivers/stm32wlxx/include/stm32wlxx_ll_pwr.h ****   * @}
  75:external/drivers/stm32wlxx/include/stm32wlxx_ll_pwr.h ****   */
  76:external/drivers/stm32wlxx/include/stm32wlxx_ll_pwr.h **** 
  77:external/drivers/stm32wlxx/include/stm32wlxx_ll_pwr.h **** /** @defgroup PWR_LL_EC_GET_FLAG Get Flags Defines
  78:external/drivers/stm32wlxx/include/stm32wlxx_ll_pwr.h ****   * @brief    Flags defines which can be used with LL_PWR_ReadReg function
  79:external/drivers/stm32wlxx/include/stm32wlxx_ll_pwr.h ****   * @{
  80:external/drivers/stm32wlxx/include/stm32wlxx_ll_pwr.h ****   */
  81:external/drivers/stm32wlxx/include/stm32wlxx_ll_pwr.h **** #define LL_PWR_SR1_WUFI                    PWR_SR1_WUFI
  82:external/drivers/stm32wlxx/include/stm32wlxx_ll_pwr.h **** #define LL_PWR_SR1_WUF3                    PWR_SR1_WUF3
  83:external/drivers/stm32wlxx/include/stm32wlxx_ll_pwr.h **** #define LL_PWR_SR1_WUF2                    PWR_SR1_WUF2
ARM GAS  /tmp/ccEyuVux.s 			page 12


  84:external/drivers/stm32wlxx/include/stm32wlxx_ll_pwr.h **** #define LL_PWR_SR1_WUF1                    PWR_SR1_WUF1
  85:external/drivers/stm32wlxx/include/stm32wlxx_ll_pwr.h **** #define LL_PWR_SR1_WPVDF                   PWR_SR1_WPVDF
  86:external/drivers/stm32wlxx/include/stm32wlxx_ll_pwr.h **** 
  87:external/drivers/stm32wlxx/include/stm32wlxx_ll_pwr.h **** #define LL_PWR_SR2_LDORDY                  PWR_SR2_LDORDY
  88:external/drivers/stm32wlxx/include/stm32wlxx_ll_pwr.h **** #define LL_PWR_SR2_PVMO3                   PWR_SR2_PVMO3
  89:external/drivers/stm32wlxx/include/stm32wlxx_ll_pwr.h **** #define LL_PWR_SR2_PVDO                    PWR_SR2_PVDO
  90:external/drivers/stm32wlxx/include/stm32wlxx_ll_pwr.h **** #define LL_PWR_SR2_RFEOL                   PWR_SR2_RFEOLF
  91:external/drivers/stm32wlxx/include/stm32wlxx_ll_pwr.h **** #define LL_PWR_SR2_VOSF                    PWR_SR2_VOSF
  92:external/drivers/stm32wlxx/include/stm32wlxx_ll_pwr.h **** #define LL_PWR_SR2_REGLPF                  PWR_SR2_REGLPF
  93:external/drivers/stm32wlxx/include/stm32wlxx_ll_pwr.h **** #define LL_PWR_SR2_REGLPS                  PWR_SR2_REGLPS
  94:external/drivers/stm32wlxx/include/stm32wlxx_ll_pwr.h **** #define LL_PWR_SR2_REGMRS                  PWR_SR2_REGMRS
  95:external/drivers/stm32wlxx/include/stm32wlxx_ll_pwr.h **** 
  96:external/drivers/stm32wlxx/include/stm32wlxx_ll_pwr.h **** /* SMPS flags */
  97:external/drivers/stm32wlxx/include/stm32wlxx_ll_pwr.h **** #define LL_PWR_SR2_SMPSRDY                 PWR_SR2_SMPSRDY
  98:external/drivers/stm32wlxx/include/stm32wlxx_ll_pwr.h **** 
  99:external/drivers/stm32wlxx/include/stm32wlxx_ll_pwr.h **** /* Radio flags */
 100:external/drivers/stm32wlxx/include/stm32wlxx_ll_pwr.h **** #define LL_PWR_SR1_WRFBUSY                 PWR_SR1_WRFBUSYF   /* Radio busy flag for wake-up and in
 101:external/drivers/stm32wlxx/include/stm32wlxx_ll_pwr.h **** #define LL_PWR_SR2_RFBUSYS                 PWR_SR2_RFBUSYS    /* Radio busy signal flag (current st
 102:external/drivers/stm32wlxx/include/stm32wlxx_ll_pwr.h **** #define LL_PWR_SR2_RFBUSYMS                PWR_SR2_RFBUSYMS   /* Radio busy masked signal flag (cur
 103:external/drivers/stm32wlxx/include/stm32wlxx_ll_pwr.h **** 
 104:external/drivers/stm32wlxx/include/stm32wlxx_ll_pwr.h **** /* Multicore flags */
 105:external/drivers/stm32wlxx/include/stm32wlxx_ll_pwr.h **** #define LL_PWR_EXTSCR_C1SBF                PWR_EXTSCR_C1SBF    /* System Standby flag for CPU1 */
 106:external/drivers/stm32wlxx/include/stm32wlxx_ll_pwr.h **** #define LL_PWR_EXTSCR_C1STOP2F             PWR_EXTSCR_C1STOP2F /* System Stop 2 flag for CPU1 */
 107:external/drivers/stm32wlxx/include/stm32wlxx_ll_pwr.h **** #define LL_PWR_EXTSCR_C1STOPF              PWR_EXTSCR_C1STOPF  /* System Stop 0 or stop 1 flag for 
 108:external/drivers/stm32wlxx/include/stm32wlxx_ll_pwr.h **** #define LL_PWR_EXTSCR_C1DS                 PWR_EXTSCR_C1DS     /* CPU1 deepsleep mode */
 109:external/drivers/stm32wlxx/include/stm32wlxx_ll_pwr.h **** #if defined(DUAL_CORE)
 110:external/drivers/stm32wlxx/include/stm32wlxx_ll_pwr.h **** #define LL_PWR_EXTSCR_C2SBF                PWR_EXTSCR_C2SBF    /* System Standby flag for CPU2 */
 111:external/drivers/stm32wlxx/include/stm32wlxx_ll_pwr.h **** #define LL_PWR_EXTSCR_C2STOP2F             PWR_EXTSCR_C2STOP2F /* System Stop 2 flag for CPU2 */
 112:external/drivers/stm32wlxx/include/stm32wlxx_ll_pwr.h **** #define LL_PWR_EXTSCR_C2STOPF              PWR_EXTSCR_C2STOPF  /* System Stop 0 or stop 1 flag for 
 113:external/drivers/stm32wlxx/include/stm32wlxx_ll_pwr.h **** #define LL_PWR_EXTSCR_C2DS                 PWR_EXTSCR_C2DS     /* CPU2 deepsleep mode */
 114:external/drivers/stm32wlxx/include/stm32wlxx_ll_pwr.h **** #define LL_PWR_SR2_C2BOOTS                 PWR_SR2_C2BOOTS     /* CPU2 boot request source informat
 115:external/drivers/stm32wlxx/include/stm32wlxx_ll_pwr.h **** #define LL_PWR_SR1_C2HF                    PWR_SR1_C2HF        /* CPU2 hold interrupt flag */
 116:external/drivers/stm32wlxx/include/stm32wlxx_ll_pwr.h **** #endif /* DUAL_CORE */
 117:external/drivers/stm32wlxx/include/stm32wlxx_ll_pwr.h **** /**
 118:external/drivers/stm32wlxx/include/stm32wlxx_ll_pwr.h ****   * @}
 119:external/drivers/stm32wlxx/include/stm32wlxx_ll_pwr.h ****   */
 120:external/drivers/stm32wlxx/include/stm32wlxx_ll_pwr.h **** 
 121:external/drivers/stm32wlxx/include/stm32wlxx_ll_pwr.h **** /** @defgroup PWR_LL_EC_REGU_VOLTAGE REGU VOLTAGE
 122:external/drivers/stm32wlxx/include/stm32wlxx_ll_pwr.h ****   * @{
 123:external/drivers/stm32wlxx/include/stm32wlxx_ll_pwr.h ****   */
 124:external/drivers/stm32wlxx/include/stm32wlxx_ll_pwr.h **** #define LL_PWR_REGU_VOLTAGE_SCALE1         (PWR_CR1_VOS_0) /* Regulator voltage output range 1 mode
 125:external/drivers/stm32wlxx/include/stm32wlxx_ll_pwr.h **** #define LL_PWR_REGU_VOLTAGE_SCALE2         (PWR_CR1_VOS_1) /* Regulator voltage output range 2 mode
 126:external/drivers/stm32wlxx/include/stm32wlxx_ll_pwr.h **** /**
 127:external/drivers/stm32wlxx/include/stm32wlxx_ll_pwr.h ****   * @}
 128:external/drivers/stm32wlxx/include/stm32wlxx_ll_pwr.h ****   */
 129:external/drivers/stm32wlxx/include/stm32wlxx_ll_pwr.h **** 
 130:external/drivers/stm32wlxx/include/stm32wlxx_ll_pwr.h **** /** @defgroup PWR_LL_EC_MODE_PWR MODE PWR
 131:external/drivers/stm32wlxx/include/stm32wlxx_ll_pwr.h ****   * @{
 132:external/drivers/stm32wlxx/include/stm32wlxx_ll_pwr.h ****   */
 133:external/drivers/stm32wlxx/include/stm32wlxx_ll_pwr.h **** #define LL_PWR_MODE_STOP0                  (0x000000000UL)
 134:external/drivers/stm32wlxx/include/stm32wlxx_ll_pwr.h **** #define LL_PWR_MODE_STOP1                  (PWR_CR1_LPMS_0)
 135:external/drivers/stm32wlxx/include/stm32wlxx_ll_pwr.h **** #define LL_PWR_MODE_STOP2                  (PWR_CR1_LPMS_1)
 136:external/drivers/stm32wlxx/include/stm32wlxx_ll_pwr.h **** #define LL_PWR_MODE_STANDBY                (PWR_CR1_LPMS_1 | PWR_CR1_LPMS_0)
 137:external/drivers/stm32wlxx/include/stm32wlxx_ll_pwr.h **** #define LL_PWR_MODE_SHUTDOWN               (PWR_CR1_LPMS_2 | PWR_CR1_LPMS_1 | PWR_CR1_LPMS_0)
 138:external/drivers/stm32wlxx/include/stm32wlxx_ll_pwr.h **** /**
 139:external/drivers/stm32wlxx/include/stm32wlxx_ll_pwr.h ****   * @}
 140:external/drivers/stm32wlxx/include/stm32wlxx_ll_pwr.h ****   */
ARM GAS  /tmp/ccEyuVux.s 			page 13


 141:external/drivers/stm32wlxx/include/stm32wlxx_ll_pwr.h **** 
 142:external/drivers/stm32wlxx/include/stm32wlxx_ll_pwr.h **** /** @defgroup PWR_LL_EC_FLASH_LPRUN_POWER_DOWN_MODE Flash power-down mode during low-power run mode
 143:external/drivers/stm32wlxx/include/stm32wlxx_ll_pwr.h ****   * @{
 144:external/drivers/stm32wlxx/include/stm32wlxx_ll_pwr.h ****   */
 145:external/drivers/stm32wlxx/include/stm32wlxx_ll_pwr.h **** #define LL_PWR_FLASH_LPRUN_MODE_IDLE       (0x000000000UL)
 146:external/drivers/stm32wlxx/include/stm32wlxx_ll_pwr.h **** #define LL_PWR_FLASH_LPRUN_MODE_POWER_DOWN (PWR_CR1_FPDR)
 147:external/drivers/stm32wlxx/include/stm32wlxx_ll_pwr.h **** /**
 148:external/drivers/stm32wlxx/include/stm32wlxx_ll_pwr.h ****   * @}
 149:external/drivers/stm32wlxx/include/stm32wlxx_ll_pwr.h ****   */
 150:external/drivers/stm32wlxx/include/stm32wlxx_ll_pwr.h **** 
 151:external/drivers/stm32wlxx/include/stm32wlxx_ll_pwr.h **** /** @defgroup PWR_LL_EC_FLASH_SLEEP_POWER_DOWN_MODE Flash power-down mode during sleep mode
 152:external/drivers/stm32wlxx/include/stm32wlxx_ll_pwr.h ****   * @{
 153:external/drivers/stm32wlxx/include/stm32wlxx_ll_pwr.h ****   */
 154:external/drivers/stm32wlxx/include/stm32wlxx_ll_pwr.h **** #define LL_PWR_FLASH_SLEEP_MODE_IDLE       (0x000000000UL)
 155:external/drivers/stm32wlxx/include/stm32wlxx_ll_pwr.h **** #define LL_PWR_FLASH_SLEEP_MODE_POWER_DOWN (PWR_CR1_FPDS)
 156:external/drivers/stm32wlxx/include/stm32wlxx_ll_pwr.h **** /**
 157:external/drivers/stm32wlxx/include/stm32wlxx_ll_pwr.h ****   * @}
 158:external/drivers/stm32wlxx/include/stm32wlxx_ll_pwr.h ****   */
 159:external/drivers/stm32wlxx/include/stm32wlxx_ll_pwr.h **** 
 160:external/drivers/stm32wlxx/include/stm32wlxx_ll_pwr.h **** /** @defgroup PWR_LL_EC_PVM Peripheral voltage monitoring
 161:external/drivers/stm32wlxx/include/stm32wlxx_ll_pwr.h ****   * @{
 162:external/drivers/stm32wlxx/include/stm32wlxx_ll_pwr.h ****   */
 163:external/drivers/stm32wlxx/include/stm32wlxx_ll_pwr.h **** #define LL_PWR_PVM_VDDA_1_62V              (PWR_CR2_PVME3)     /* Monitoring VDDA vs. 1.62V  */
 164:external/drivers/stm32wlxx/include/stm32wlxx_ll_pwr.h **** /**
 165:external/drivers/stm32wlxx/include/stm32wlxx_ll_pwr.h ****   * @}
 166:external/drivers/stm32wlxx/include/stm32wlxx_ll_pwr.h ****   */
 167:external/drivers/stm32wlxx/include/stm32wlxx_ll_pwr.h **** 
 168:external/drivers/stm32wlxx/include/stm32wlxx_ll_pwr.h **** /** @defgroup PWR_LL_EC_PVDLEVEL PVDLEVEL
 169:external/drivers/stm32wlxx/include/stm32wlxx_ll_pwr.h ****   * @{
 170:external/drivers/stm32wlxx/include/stm32wlxx_ll_pwr.h ****   */
 171:external/drivers/stm32wlxx/include/stm32wlxx_ll_pwr.h **** #define LL_PWR_PVDLEVEL_0                  (0x00000000UL)                                  /* VPVD0
 172:external/drivers/stm32wlxx/include/stm32wlxx_ll_pwr.h **** #define LL_PWR_PVDLEVEL_1                  (PWR_CR2_PLS_0)                                 /* VPVD1
 173:external/drivers/stm32wlxx/include/stm32wlxx_ll_pwr.h **** #define LL_PWR_PVDLEVEL_2                  (PWR_CR2_PLS_1)                                 /* VPVD2
 174:external/drivers/stm32wlxx/include/stm32wlxx_ll_pwr.h **** #define LL_PWR_PVDLEVEL_3                  (PWR_CR2_PLS_1 | PWR_CR2_PLS_0)                 /* VPVD3
 175:external/drivers/stm32wlxx/include/stm32wlxx_ll_pwr.h **** #define LL_PWR_PVDLEVEL_4                  (PWR_CR2_PLS_2)                                 /* VPVD4
 176:external/drivers/stm32wlxx/include/stm32wlxx_ll_pwr.h **** #define LL_PWR_PVDLEVEL_5                  (PWR_CR2_PLS_2 | PWR_CR2_PLS_0)                 /* VPVD5
 177:external/drivers/stm32wlxx/include/stm32wlxx_ll_pwr.h **** #define LL_PWR_PVDLEVEL_6                  (PWR_CR2_PLS_2 | PWR_CR2_PLS_1)                 /* VPVD6
 178:external/drivers/stm32wlxx/include/stm32wlxx_ll_pwr.h **** #define LL_PWR_PVDLEVEL_7                  (PWR_CR2_PLS_2 | PWR_CR2_PLS_1 | PWR_CR2_PLS_0) /* Exter
 179:external/drivers/stm32wlxx/include/stm32wlxx_ll_pwr.h **** /**
 180:external/drivers/stm32wlxx/include/stm32wlxx_ll_pwr.h ****   * @}
 181:external/drivers/stm32wlxx/include/stm32wlxx_ll_pwr.h ****   */
 182:external/drivers/stm32wlxx/include/stm32wlxx_ll_pwr.h **** 
 183:external/drivers/stm32wlxx/include/stm32wlxx_ll_pwr.h **** /** @defgroup PWR_LL_EC_EOL_OPERATING_MODES Monitoring of supply voltage for radio operating level 
 184:external/drivers/stm32wlxx/include/stm32wlxx_ll_pwr.h ****   * @{
 185:external/drivers/stm32wlxx/include/stm32wlxx_ll_pwr.h ****   */
 186:external/drivers/stm32wlxx/include/stm32wlxx_ll_pwr.h **** #define LL_PWR_RADIO_EOL_DISABLE                  (0x00000000UL)    /*!< Monitoring of supply volta
 187:external/drivers/stm32wlxx/include/stm32wlxx_ll_pwr.h **** #define LL_PWR_RADIO_EOL_ENABLE                   (PWR_CR5_RFEOLEN) /*!< Monitoring of supply volta
 188:external/drivers/stm32wlxx/include/stm32wlxx_ll_pwr.h **** /**
 189:external/drivers/stm32wlxx/include/stm32wlxx_ll_pwr.h ****   * @}
 190:external/drivers/stm32wlxx/include/stm32wlxx_ll_pwr.h ****   */
 191:external/drivers/stm32wlxx/include/stm32wlxx_ll_pwr.h **** 
 192:external/drivers/stm32wlxx/include/stm32wlxx_ll_pwr.h **** /** @defgroup PWR_LL_EC_WAKEUP WAKEUP
 193:external/drivers/stm32wlxx/include/stm32wlxx_ll_pwr.h ****   * @{
 194:external/drivers/stm32wlxx/include/stm32wlxx_ll_pwr.h ****   */
 195:external/drivers/stm32wlxx/include/stm32wlxx_ll_pwr.h **** #define LL_PWR_WAKEUP_PIN1                 (PWR_CR3_EWUP1)
 196:external/drivers/stm32wlxx/include/stm32wlxx_ll_pwr.h **** #define LL_PWR_WAKEUP_PIN2                 (PWR_CR3_EWUP2)
 197:external/drivers/stm32wlxx/include/stm32wlxx_ll_pwr.h **** #define LL_PWR_WAKEUP_PIN3                 (PWR_CR3_EWUP3)
ARM GAS  /tmp/ccEyuVux.s 			page 14


 198:external/drivers/stm32wlxx/include/stm32wlxx_ll_pwr.h **** /**
 199:external/drivers/stm32wlxx/include/stm32wlxx_ll_pwr.h ****   * @}
 200:external/drivers/stm32wlxx/include/stm32wlxx_ll_pwr.h ****   */
 201:external/drivers/stm32wlxx/include/stm32wlxx_ll_pwr.h **** 
 202:external/drivers/stm32wlxx/include/stm32wlxx_ll_pwr.h **** /** @defgroup PWR_LL_EC_BATT_CHARG_RESISTOR BATT CHARG RESISTOR
 203:external/drivers/stm32wlxx/include/stm32wlxx_ll_pwr.h ****   * @{
 204:external/drivers/stm32wlxx/include/stm32wlxx_ll_pwr.h ****   */
 205:external/drivers/stm32wlxx/include/stm32wlxx_ll_pwr.h **** #define LL_PWR_BATT_CHARG_RESISTOR_5K      (0x00000000UL)
 206:external/drivers/stm32wlxx/include/stm32wlxx_ll_pwr.h **** #define LL_PWR_BATT_CHARGRESISTOR_1_5K     (PWR_CR4_VBRS)
 207:external/drivers/stm32wlxx/include/stm32wlxx_ll_pwr.h **** /**
 208:external/drivers/stm32wlxx/include/stm32wlxx_ll_pwr.h ****   * @}
 209:external/drivers/stm32wlxx/include/stm32wlxx_ll_pwr.h ****   */
 210:external/drivers/stm32wlxx/include/stm32wlxx_ll_pwr.h **** 
 211:external/drivers/stm32wlxx/include/stm32wlxx_ll_pwr.h **** /** @defgroup PWR_LL_EC_GPIO GPIO
 212:external/drivers/stm32wlxx/include/stm32wlxx_ll_pwr.h ****   * @{
 213:external/drivers/stm32wlxx/include/stm32wlxx_ll_pwr.h ****   */
 214:external/drivers/stm32wlxx/include/stm32wlxx_ll_pwr.h **** #define LL_PWR_GPIO_A                      ((uint32_t)(&(PWR->PUCRA)))
 215:external/drivers/stm32wlxx/include/stm32wlxx_ll_pwr.h **** #define LL_PWR_GPIO_B                      ((uint32_t)(&(PWR->PUCRB)))
 216:external/drivers/stm32wlxx/include/stm32wlxx_ll_pwr.h **** #define LL_PWR_GPIO_C                      ((uint32_t)(&(PWR->PUCRC)))
 217:external/drivers/stm32wlxx/include/stm32wlxx_ll_pwr.h **** #define LL_PWR_GPIO_H                      ((uint32_t)(&(PWR->PUCRH)))
 218:external/drivers/stm32wlxx/include/stm32wlxx_ll_pwr.h **** /**
 219:external/drivers/stm32wlxx/include/stm32wlxx_ll_pwr.h ****   * @}
 220:external/drivers/stm32wlxx/include/stm32wlxx_ll_pwr.h ****   */
 221:external/drivers/stm32wlxx/include/stm32wlxx_ll_pwr.h **** 
 222:external/drivers/stm32wlxx/include/stm32wlxx_ll_pwr.h **** /** @defgroup PWR_LL_EC_GPIO_BIT GPIO BIT
 223:external/drivers/stm32wlxx/include/stm32wlxx_ll_pwr.h ****   * @{
 224:external/drivers/stm32wlxx/include/stm32wlxx_ll_pwr.h ****   */
 225:external/drivers/stm32wlxx/include/stm32wlxx_ll_pwr.h **** /* Note: LL_PWR_GPIO_BIT_x defined from port B because all pins are available */
 226:external/drivers/stm32wlxx/include/stm32wlxx_ll_pwr.h **** /*       for PWR pull-up and pull-down.                                       */
 227:external/drivers/stm32wlxx/include/stm32wlxx_ll_pwr.h **** #define LL_PWR_GPIO_BIT_0                  (PWR_PUCRB_PB0)
 228:external/drivers/stm32wlxx/include/stm32wlxx_ll_pwr.h **** #define LL_PWR_GPIO_BIT_1                  (PWR_PUCRB_PB1)
 229:external/drivers/stm32wlxx/include/stm32wlxx_ll_pwr.h **** #define LL_PWR_GPIO_BIT_2                  (PWR_PUCRB_PB2)
 230:external/drivers/stm32wlxx/include/stm32wlxx_ll_pwr.h **** #define LL_PWR_GPIO_BIT_3                  (PWR_PUCRB_PB3)
 231:external/drivers/stm32wlxx/include/stm32wlxx_ll_pwr.h **** #define LL_PWR_GPIO_BIT_4                  (PWR_PUCRB_PB4)
 232:external/drivers/stm32wlxx/include/stm32wlxx_ll_pwr.h **** #define LL_PWR_GPIO_BIT_5                  (PWR_PUCRB_PB5)
 233:external/drivers/stm32wlxx/include/stm32wlxx_ll_pwr.h **** #define LL_PWR_GPIO_BIT_6                  (PWR_PUCRB_PB6)
 234:external/drivers/stm32wlxx/include/stm32wlxx_ll_pwr.h **** #define LL_PWR_GPIO_BIT_7                  (PWR_PUCRB_PB7)
 235:external/drivers/stm32wlxx/include/stm32wlxx_ll_pwr.h **** #define LL_PWR_GPIO_BIT_8                  (PWR_PUCRB_PB8)
 236:external/drivers/stm32wlxx/include/stm32wlxx_ll_pwr.h **** #define LL_PWR_GPIO_BIT_9                  (PWR_PUCRB_PB9)
 237:external/drivers/stm32wlxx/include/stm32wlxx_ll_pwr.h **** #define LL_PWR_GPIO_BIT_10                 (PWR_PUCRB_PB10)
 238:external/drivers/stm32wlxx/include/stm32wlxx_ll_pwr.h **** #define LL_PWR_GPIO_BIT_11                 (PWR_PUCRB_PB11)
 239:external/drivers/stm32wlxx/include/stm32wlxx_ll_pwr.h **** #define LL_PWR_GPIO_BIT_12                 (PWR_PUCRB_PB12)
 240:external/drivers/stm32wlxx/include/stm32wlxx_ll_pwr.h **** #define LL_PWR_GPIO_BIT_13                 (PWR_PUCRB_PB13)
 241:external/drivers/stm32wlxx/include/stm32wlxx_ll_pwr.h **** #define LL_PWR_GPIO_BIT_14                 (PWR_PUCRB_PB14)
 242:external/drivers/stm32wlxx/include/stm32wlxx_ll_pwr.h **** #define LL_PWR_GPIO_BIT_15                 (PWR_PUCRB_PB15)
 243:external/drivers/stm32wlxx/include/stm32wlxx_ll_pwr.h **** /**
 244:external/drivers/stm32wlxx/include/stm32wlxx_ll_pwr.h ****   * @}
 245:external/drivers/stm32wlxx/include/stm32wlxx_ll_pwr.h ****   */
 246:external/drivers/stm32wlxx/include/stm32wlxx_ll_pwr.h **** 
 247:external/drivers/stm32wlxx/include/stm32wlxx_ll_pwr.h **** /** @defgroup PWR_LL_EC_SMPS_OPERATING_MODES SMPS step down converter operating modes
 248:external/drivers/stm32wlxx/include/stm32wlxx_ll_pwr.h ****   * @{
 249:external/drivers/stm32wlxx/include/stm32wlxx_ll_pwr.h ****   */
 250:external/drivers/stm32wlxx/include/stm32wlxx_ll_pwr.h **** #define LL_PWR_SMPS_BYPASS                 (0x00000000UL)    /*!< SMPS step down in bypass mode (di
 251:external/drivers/stm32wlxx/include/stm32wlxx_ll_pwr.h **** #define LL_PWR_SMPS_STEP_DOWN              (PWR_CR5_SMPSEN)  /*!< SMPS step down in step down mode 
 252:external/drivers/stm32wlxx/include/stm32wlxx_ll_pwr.h **** /**
 253:external/drivers/stm32wlxx/include/stm32wlxx_ll_pwr.h ****   * @}
 254:external/drivers/stm32wlxx/include/stm32wlxx_ll_pwr.h ****   */
ARM GAS  /tmp/ccEyuVux.s 			page 15


 255:external/drivers/stm32wlxx/include/stm32wlxx_ll_pwr.h **** 
 256:external/drivers/stm32wlxx/include/stm32wlxx_ll_pwr.h **** /** @defgroup PWR_LL_EC_RADIO_BUSY_POLARITY Radio busy signal polarity
 257:external/drivers/stm32wlxx/include/stm32wlxx_ll_pwr.h ****   * @{
 258:external/drivers/stm32wlxx/include/stm32wlxx_ll_pwr.h ****   */
 259:external/drivers/stm32wlxx/include/stm32wlxx_ll_pwr.h **** #define LL_PWR_RADIO_BUSY_POLARITY_RISING  (0x00000000UL)     /*!< Radio busy signal polarity to ri
 260:external/drivers/stm32wlxx/include/stm32wlxx_ll_pwr.h **** #define LL_PWR_RADIO_BUSY_POLARITY_FALLING (PWR_CR4_WRFBUSYP) /*!< Radio busy signal polarity to fa
 261:external/drivers/stm32wlxx/include/stm32wlxx_ll_pwr.h **** /**
 262:external/drivers/stm32wlxx/include/stm32wlxx_ll_pwr.h ****   * @}
 263:external/drivers/stm32wlxx/include/stm32wlxx_ll_pwr.h ****   */
 264:external/drivers/stm32wlxx/include/stm32wlxx_ll_pwr.h **** 
 265:external/drivers/stm32wlxx/include/stm32wlxx_ll_pwr.h **** /** @defgroup PWR_LL_EC_RADIO_BUSY_TRIGGER Radio busy trigger
 266:external/drivers/stm32wlxx/include/stm32wlxx_ll_pwr.h ****   * @{
 267:external/drivers/stm32wlxx/include/stm32wlxx_ll_pwr.h ****   */
 268:external/drivers/stm32wlxx/include/stm32wlxx_ll_pwr.h **** #define LL_PWR_RADIO_BUSY_TRIGGER_NONE     (0x00000000UL)     /*!< Radio busy trigger action: no wa
 269:external/drivers/stm32wlxx/include/stm32wlxx_ll_pwr.h **** #define LL_PWR_RADIO_BUSY_TRIGGER_WU_IT    (PWR_CR3_EWRFBUSY) /*!< Radio busy trigger action: wake-
 270:external/drivers/stm32wlxx/include/stm32wlxx_ll_pwr.h **** /**
 271:external/drivers/stm32wlxx/include/stm32wlxx_ll_pwr.h ****   * @}
 272:external/drivers/stm32wlxx/include/stm32wlxx_ll_pwr.h ****   */
 273:external/drivers/stm32wlxx/include/stm32wlxx_ll_pwr.h **** 
 274:external/drivers/stm32wlxx/include/stm32wlxx_ll_pwr.h **** /** @defgroup PWR_LL_EC_RADIO_IRQ_TRIGGER Radio IRQ trigger
 275:external/drivers/stm32wlxx/include/stm32wlxx_ll_pwr.h ****   * @{
 276:external/drivers/stm32wlxx/include/stm32wlxx_ll_pwr.h ****   */
 277:external/drivers/stm32wlxx/include/stm32wlxx_ll_pwr.h **** #define LL_PWR_RADIO_IRQ_TRIGGER_NONE      (0x00000000UL)     /*!< Radio IRQ trigger action: no wak
 278:external/drivers/stm32wlxx/include/stm32wlxx_ll_pwr.h **** #define LL_PWR_RADIO_IRQ_TRIGGER_WU_IT     (PWR_CR3_EWRFIRQ)  /*!< Radio IRQ trigger action: wake-u
 279:external/drivers/stm32wlxx/include/stm32wlxx_ll_pwr.h **** /**
 280:external/drivers/stm32wlxx/include/stm32wlxx_ll_pwr.h ****   * @}
 281:external/drivers/stm32wlxx/include/stm32wlxx_ll_pwr.h ****   */
 282:external/drivers/stm32wlxx/include/stm32wlxx_ll_pwr.h **** 
 283:external/drivers/stm32wlxx/include/stm32wlxx_ll_pwr.h **** /** @defgroup PWR_LL_EC_RADIO_SPI_NSS_SRC Radio Sub-GHz radio SPI NSS source
 284:external/drivers/stm32wlxx/include/stm32wlxx_ll_pwr.h ****   * @{
 285:external/drivers/stm32wlxx/include/stm32wlxx_ll_pwr.h ****   */
 286:external/drivers/stm32wlxx/include/stm32wlxx_ll_pwr.h **** #define LL_PWR_SUBGHZSPI_NSS_SRC_SW        (0x00000000UL)            /*!< Sub-GHz radio SPI NSS con
 287:external/drivers/stm32wlxx/include/stm32wlxx_ll_pwr.h **** #define LL_PWR_SUBGHZSPI_NSS_SRC_LPTIM3    (PWR_CR1_SUBGHZSPINSSSEL) /*!< Sub-GHz radio SPI NSS con
 288:external/drivers/stm32wlxx/include/stm32wlxx_ll_pwr.h **** /**
 289:external/drivers/stm32wlxx/include/stm32wlxx_ll_pwr.h ****   * @}
 290:external/drivers/stm32wlxx/include/stm32wlxx_ll_pwr.h ****   */
 291:external/drivers/stm32wlxx/include/stm32wlxx_ll_pwr.h **** 
 292:external/drivers/stm32wlxx/include/stm32wlxx_ll_pwr.h **** /**
 293:external/drivers/stm32wlxx/include/stm32wlxx_ll_pwr.h ****   * @}
 294:external/drivers/stm32wlxx/include/stm32wlxx_ll_pwr.h ****   */
 295:external/drivers/stm32wlxx/include/stm32wlxx_ll_pwr.h **** 
 296:external/drivers/stm32wlxx/include/stm32wlxx_ll_pwr.h **** /* Exported macro ------------------------------------------------------------*/
 297:external/drivers/stm32wlxx/include/stm32wlxx_ll_pwr.h **** /** @defgroup PWR_LL_Exported_Macros PWR Exported Macros
 298:external/drivers/stm32wlxx/include/stm32wlxx_ll_pwr.h ****   * @{
 299:external/drivers/stm32wlxx/include/stm32wlxx_ll_pwr.h ****   */
 300:external/drivers/stm32wlxx/include/stm32wlxx_ll_pwr.h **** 
 301:external/drivers/stm32wlxx/include/stm32wlxx_ll_pwr.h **** /** @defgroup PWR_LL_EM_WRITE_READ Common Write and read registers Macros
 302:external/drivers/stm32wlxx/include/stm32wlxx_ll_pwr.h ****   * @{
 303:external/drivers/stm32wlxx/include/stm32wlxx_ll_pwr.h ****   */
 304:external/drivers/stm32wlxx/include/stm32wlxx_ll_pwr.h **** 
 305:external/drivers/stm32wlxx/include/stm32wlxx_ll_pwr.h **** /**
 306:external/drivers/stm32wlxx/include/stm32wlxx_ll_pwr.h ****   * @brief  Write a value in PWR register
 307:external/drivers/stm32wlxx/include/stm32wlxx_ll_pwr.h ****   * @param  __REG__ Register to be written
 308:external/drivers/stm32wlxx/include/stm32wlxx_ll_pwr.h ****   * @param  __VALUE__ Value to be written in the register
 309:external/drivers/stm32wlxx/include/stm32wlxx_ll_pwr.h ****   * @retval None
 310:external/drivers/stm32wlxx/include/stm32wlxx_ll_pwr.h ****   */
 311:external/drivers/stm32wlxx/include/stm32wlxx_ll_pwr.h **** #define LL_PWR_WriteReg(__REG__, __VALUE__) WRITE_REG(PWR->__REG__, (__VALUE__))
ARM GAS  /tmp/ccEyuVux.s 			page 16


 312:external/drivers/stm32wlxx/include/stm32wlxx_ll_pwr.h **** 
 313:external/drivers/stm32wlxx/include/stm32wlxx_ll_pwr.h **** /**
 314:external/drivers/stm32wlxx/include/stm32wlxx_ll_pwr.h ****   * @brief  Read a value in PWR register
 315:external/drivers/stm32wlxx/include/stm32wlxx_ll_pwr.h ****   * @param  __REG__ Register to be read
 316:external/drivers/stm32wlxx/include/stm32wlxx_ll_pwr.h ****   * @retval Register value
 317:external/drivers/stm32wlxx/include/stm32wlxx_ll_pwr.h ****   */
 318:external/drivers/stm32wlxx/include/stm32wlxx_ll_pwr.h **** #define LL_PWR_ReadReg(__REG__) READ_REG(PWR->__REG__)
 319:external/drivers/stm32wlxx/include/stm32wlxx_ll_pwr.h **** /**
 320:external/drivers/stm32wlxx/include/stm32wlxx_ll_pwr.h ****   * @}
 321:external/drivers/stm32wlxx/include/stm32wlxx_ll_pwr.h ****   */
 322:external/drivers/stm32wlxx/include/stm32wlxx_ll_pwr.h **** 
 323:external/drivers/stm32wlxx/include/stm32wlxx_ll_pwr.h **** /**
 324:external/drivers/stm32wlxx/include/stm32wlxx_ll_pwr.h ****   * @}
 325:external/drivers/stm32wlxx/include/stm32wlxx_ll_pwr.h ****   */
 326:external/drivers/stm32wlxx/include/stm32wlxx_ll_pwr.h **** 
 327:external/drivers/stm32wlxx/include/stm32wlxx_ll_pwr.h **** 
 328:external/drivers/stm32wlxx/include/stm32wlxx_ll_pwr.h **** /* Exported functions --------------------------------------------------------*/
 329:external/drivers/stm32wlxx/include/stm32wlxx_ll_pwr.h **** /** @defgroup PWR_LL_Exported_Functions PWR Exported Functions
 330:external/drivers/stm32wlxx/include/stm32wlxx_ll_pwr.h ****   * @{
 331:external/drivers/stm32wlxx/include/stm32wlxx_ll_pwr.h ****   */
 332:external/drivers/stm32wlxx/include/stm32wlxx_ll_pwr.h **** 
 333:external/drivers/stm32wlxx/include/stm32wlxx_ll_pwr.h **** /** @defgroup PWR_LL_EF_Configuration Configuration
 334:external/drivers/stm32wlxx/include/stm32wlxx_ll_pwr.h ****   * @{
 335:external/drivers/stm32wlxx/include/stm32wlxx_ll_pwr.h ****   */
 336:external/drivers/stm32wlxx/include/stm32wlxx_ll_pwr.h **** 
 337:external/drivers/stm32wlxx/include/stm32wlxx_ll_pwr.h **** /**
 338:external/drivers/stm32wlxx/include/stm32wlxx_ll_pwr.h ****   * @brief  Switch from run main mode to run low-power mode.
 339:external/drivers/stm32wlxx/include/stm32wlxx_ll_pwr.h ****   * @rmtoll CR1          LPR           LL_PWR_EnterLowPowerRunMode
 340:external/drivers/stm32wlxx/include/stm32wlxx_ll_pwr.h ****   * @retval None
 341:external/drivers/stm32wlxx/include/stm32wlxx_ll_pwr.h ****   */
 342:external/drivers/stm32wlxx/include/stm32wlxx_ll_pwr.h **** __STATIC_INLINE void LL_PWR_EnterLowPowerRunMode(void)
 343:external/drivers/stm32wlxx/include/stm32wlxx_ll_pwr.h **** {
 344:external/drivers/stm32wlxx/include/stm32wlxx_ll_pwr.h ****   SET_BIT(PWR->CR1, PWR_CR1_LPR);
 345:external/drivers/stm32wlxx/include/stm32wlxx_ll_pwr.h **** }
 346:external/drivers/stm32wlxx/include/stm32wlxx_ll_pwr.h **** 
 347:external/drivers/stm32wlxx/include/stm32wlxx_ll_pwr.h **** /**
 348:external/drivers/stm32wlxx/include/stm32wlxx_ll_pwr.h ****   * @brief  Switch from run main mode to low-power mode.
 349:external/drivers/stm32wlxx/include/stm32wlxx_ll_pwr.h ****   * @rmtoll CR1          LPR           LL_PWR_ExitLowPowerRunMode
 350:external/drivers/stm32wlxx/include/stm32wlxx_ll_pwr.h ****   * @retval None
 351:external/drivers/stm32wlxx/include/stm32wlxx_ll_pwr.h ****   */
 352:external/drivers/stm32wlxx/include/stm32wlxx_ll_pwr.h **** __STATIC_INLINE void LL_PWR_ExitLowPowerRunMode(void)
 353:external/drivers/stm32wlxx/include/stm32wlxx_ll_pwr.h **** {
 354:external/drivers/stm32wlxx/include/stm32wlxx_ll_pwr.h ****   CLEAR_BIT(PWR->CR1, PWR_CR1_LPR);
 355:external/drivers/stm32wlxx/include/stm32wlxx_ll_pwr.h **** }
 356:external/drivers/stm32wlxx/include/stm32wlxx_ll_pwr.h **** 
 357:external/drivers/stm32wlxx/include/stm32wlxx_ll_pwr.h **** /**
 358:external/drivers/stm32wlxx/include/stm32wlxx_ll_pwr.h ****   * @brief  Check if the regulator is in low-power mode
 359:external/drivers/stm32wlxx/include/stm32wlxx_ll_pwr.h ****   * @rmtoll CR1          LPR           LL_PWR_IsEnabledLowPowerRunMode
 360:external/drivers/stm32wlxx/include/stm32wlxx_ll_pwr.h ****   * @retval State of bit (1 or 0).
 361:external/drivers/stm32wlxx/include/stm32wlxx_ll_pwr.h ****   */
 362:external/drivers/stm32wlxx/include/stm32wlxx_ll_pwr.h **** __STATIC_INLINE uint32_t LL_PWR_IsEnabledLowPowerRunMode(void)
 363:external/drivers/stm32wlxx/include/stm32wlxx_ll_pwr.h **** {
 364:external/drivers/stm32wlxx/include/stm32wlxx_ll_pwr.h ****   return ((READ_BIT(PWR->CR1, PWR_CR1_LPR) == (PWR_CR1_LPR)) ? 1UL : 0UL);
 365:external/drivers/stm32wlxx/include/stm32wlxx_ll_pwr.h **** }
 366:external/drivers/stm32wlxx/include/stm32wlxx_ll_pwr.h **** 
 367:external/drivers/stm32wlxx/include/stm32wlxx_ll_pwr.h **** /**
 368:external/drivers/stm32wlxx/include/stm32wlxx_ll_pwr.h ****   * @brief  Set the main internal regulator output voltage
ARM GAS  /tmp/ccEyuVux.s 			page 17


 369:external/drivers/stm32wlxx/include/stm32wlxx_ll_pwr.h ****   * @note   A delay is required for the internal regulator to be ready
 370:external/drivers/stm32wlxx/include/stm32wlxx_ll_pwr.h ****   *         after the voltage scaling has been changed.
 371:external/drivers/stm32wlxx/include/stm32wlxx_ll_pwr.h ****   *         Check whether regulator reached the selected voltage level
 372:external/drivers/stm32wlxx/include/stm32wlxx_ll_pwr.h ****   *         can be done using function @ref LL_PWR_IsActiveFlag_VOS().
 373:external/drivers/stm32wlxx/include/stm32wlxx_ll_pwr.h ****   * @rmtoll CR1          VOS           LL_PWR_SetRegulVoltageScaling
 374:external/drivers/stm32wlxx/include/stm32wlxx_ll_pwr.h ****   * @param  VoltageScaling This parameter can be one of the following values:
 375:external/drivers/stm32wlxx/include/stm32wlxx_ll_pwr.h ****   *         @arg @ref LL_PWR_REGU_VOLTAGE_SCALE1
 376:external/drivers/stm32wlxx/include/stm32wlxx_ll_pwr.h ****   *         @arg @ref LL_PWR_REGU_VOLTAGE_SCALE2
 377:external/drivers/stm32wlxx/include/stm32wlxx_ll_pwr.h ****   * @retval None
 378:external/drivers/stm32wlxx/include/stm32wlxx_ll_pwr.h ****   */
 379:external/drivers/stm32wlxx/include/stm32wlxx_ll_pwr.h **** __STATIC_INLINE void LL_PWR_SetRegulVoltageScaling(uint32_t VoltageScaling)
 380:external/drivers/stm32wlxx/include/stm32wlxx_ll_pwr.h **** {
 381:external/drivers/stm32wlxx/include/stm32wlxx_ll_pwr.h ****   MODIFY_REG(PWR->CR1, PWR_CR1_VOS, VoltageScaling);
 382:external/drivers/stm32wlxx/include/stm32wlxx_ll_pwr.h **** }
 383:external/drivers/stm32wlxx/include/stm32wlxx_ll_pwr.h **** 
 384:external/drivers/stm32wlxx/include/stm32wlxx_ll_pwr.h **** /**
 385:external/drivers/stm32wlxx/include/stm32wlxx_ll_pwr.h ****   * @brief  Get the main internal regulator output voltage
 386:external/drivers/stm32wlxx/include/stm32wlxx_ll_pwr.h ****   * @rmtoll CR1          VOS           LL_PWR_GetRegulVoltageScaling
 387:external/drivers/stm32wlxx/include/stm32wlxx_ll_pwr.h ****   * @retval Returned value can be one of the following values:
 388:external/drivers/stm32wlxx/include/stm32wlxx_ll_pwr.h ****   *         @arg @ref LL_PWR_REGU_VOLTAGE_SCALE1
 389:external/drivers/stm32wlxx/include/stm32wlxx_ll_pwr.h ****   *         @arg @ref LL_PWR_REGU_VOLTAGE_SCALE2
 390:external/drivers/stm32wlxx/include/stm32wlxx_ll_pwr.h ****   */
 391:external/drivers/stm32wlxx/include/stm32wlxx_ll_pwr.h **** __STATIC_INLINE uint32_t LL_PWR_GetRegulVoltageScaling(void)
 392:external/drivers/stm32wlxx/include/stm32wlxx_ll_pwr.h **** {
 393:external/drivers/stm32wlxx/include/stm32wlxx_ll_pwr.h ****   return (uint32_t)(READ_BIT(PWR->CR1, PWR_CR1_VOS));
 394:external/drivers/stm32wlxx/include/stm32wlxx_ll_pwr.h **** }
 395:external/drivers/stm32wlxx/include/stm32wlxx_ll_pwr.h **** 
 396:external/drivers/stm32wlxx/include/stm32wlxx_ll_pwr.h **** /**
 397:external/drivers/stm32wlxx/include/stm32wlxx_ll_pwr.h ****   * @brief  Enable access to the backup domain
 398:external/drivers/stm32wlxx/include/stm32wlxx_ll_pwr.h ****   * @rmtoll CR1          DBP           LL_PWR_EnableBkUpAccess
 399:external/drivers/stm32wlxx/include/stm32wlxx_ll_pwr.h ****   * @retval None
 400:external/drivers/stm32wlxx/include/stm32wlxx_ll_pwr.h ****   */
 401:external/drivers/stm32wlxx/include/stm32wlxx_ll_pwr.h **** __STATIC_INLINE void LL_PWR_EnableBkUpAccess(void)
 402:external/drivers/stm32wlxx/include/stm32wlxx_ll_pwr.h **** {
 403:external/drivers/stm32wlxx/include/stm32wlxx_ll_pwr.h ****   SET_BIT(PWR->CR1, PWR_CR1_DBP);
 404:external/drivers/stm32wlxx/include/stm32wlxx_ll_pwr.h **** }
 405:external/drivers/stm32wlxx/include/stm32wlxx_ll_pwr.h **** 
 406:external/drivers/stm32wlxx/include/stm32wlxx_ll_pwr.h **** /**
 407:external/drivers/stm32wlxx/include/stm32wlxx_ll_pwr.h ****   * @brief  Disable access to the backup domain
 408:external/drivers/stm32wlxx/include/stm32wlxx_ll_pwr.h ****   * @rmtoll CR1          DBP           LL_PWR_DisableBkUpAccess
 409:external/drivers/stm32wlxx/include/stm32wlxx_ll_pwr.h ****   * @retval None
 410:external/drivers/stm32wlxx/include/stm32wlxx_ll_pwr.h ****   */
 411:external/drivers/stm32wlxx/include/stm32wlxx_ll_pwr.h **** __STATIC_INLINE void LL_PWR_DisableBkUpAccess(void)
 412:external/drivers/stm32wlxx/include/stm32wlxx_ll_pwr.h **** {
 413:external/drivers/stm32wlxx/include/stm32wlxx_ll_pwr.h ****   CLEAR_BIT(PWR->CR1, PWR_CR1_DBP);
 414:external/drivers/stm32wlxx/include/stm32wlxx_ll_pwr.h **** }
 415:external/drivers/stm32wlxx/include/stm32wlxx_ll_pwr.h **** 
 416:external/drivers/stm32wlxx/include/stm32wlxx_ll_pwr.h **** /**
 417:external/drivers/stm32wlxx/include/stm32wlxx_ll_pwr.h ****   * @brief  Check if the backup domain is enabled
 418:external/drivers/stm32wlxx/include/stm32wlxx_ll_pwr.h ****   * @rmtoll CR1          DBP           LL_PWR_IsEnabledBkUpAccess
 419:external/drivers/stm32wlxx/include/stm32wlxx_ll_pwr.h ****   * @retval State of bit (1 or 0).
 420:external/drivers/stm32wlxx/include/stm32wlxx_ll_pwr.h ****   */
 421:external/drivers/stm32wlxx/include/stm32wlxx_ll_pwr.h **** __STATIC_INLINE uint32_t LL_PWR_IsEnabledBkUpAccess(void)
 422:external/drivers/stm32wlxx/include/stm32wlxx_ll_pwr.h **** {
 423:external/drivers/stm32wlxx/include/stm32wlxx_ll_pwr.h ****   return ((READ_BIT(PWR->CR1, PWR_CR1_DBP) == (PWR_CR1_DBP)) ? 1UL : 0UL);
 424:external/drivers/stm32wlxx/include/stm32wlxx_ll_pwr.h **** }
 425:external/drivers/stm32wlxx/include/stm32wlxx_ll_pwr.h **** 
ARM GAS  /tmp/ccEyuVux.s 			page 18


 426:external/drivers/stm32wlxx/include/stm32wlxx_ll_pwr.h **** /**
 427:external/drivers/stm32wlxx/include/stm32wlxx_ll_pwr.h ****   * @brief  Set Low-Power mode
 428:external/drivers/stm32wlxx/include/stm32wlxx_ll_pwr.h ****   * @rmtoll CR1          LPMS          LL_PWR_SetPowerMode
 429:external/drivers/stm32wlxx/include/stm32wlxx_ll_pwr.h ****   * @param  LowPowerMode This parameter can be one of the following values:
 430:external/drivers/stm32wlxx/include/stm32wlxx_ll_pwr.h ****   *         @arg @ref LL_PWR_MODE_STOP0
 431:external/drivers/stm32wlxx/include/stm32wlxx_ll_pwr.h ****   *         @arg @ref LL_PWR_MODE_STOP1
 432:external/drivers/stm32wlxx/include/stm32wlxx_ll_pwr.h ****   *         @arg @ref LL_PWR_MODE_STOP2
 433:external/drivers/stm32wlxx/include/stm32wlxx_ll_pwr.h ****   *         @arg @ref LL_PWR_MODE_STANDBY
 434:external/drivers/stm32wlxx/include/stm32wlxx_ll_pwr.h ****   *         @arg @ref LL_PWR_MODE_SHUTDOWN
 435:external/drivers/stm32wlxx/include/stm32wlxx_ll_pwr.h ****   * @retval None
 436:external/drivers/stm32wlxx/include/stm32wlxx_ll_pwr.h ****   */
 437:external/drivers/stm32wlxx/include/stm32wlxx_ll_pwr.h **** __STATIC_INLINE void LL_PWR_SetPowerMode(uint32_t LowPowerMode)
 438:external/drivers/stm32wlxx/include/stm32wlxx_ll_pwr.h **** {
 439:external/drivers/stm32wlxx/include/stm32wlxx_ll_pwr.h ****   MODIFY_REG(PWR->CR1, PWR_CR1_LPMS, LowPowerMode);
 440:external/drivers/stm32wlxx/include/stm32wlxx_ll_pwr.h **** }
 441:external/drivers/stm32wlxx/include/stm32wlxx_ll_pwr.h **** 
 442:external/drivers/stm32wlxx/include/stm32wlxx_ll_pwr.h **** /**
 443:external/drivers/stm32wlxx/include/stm32wlxx_ll_pwr.h ****   * @brief  Get Low-Power mode
 444:external/drivers/stm32wlxx/include/stm32wlxx_ll_pwr.h ****   * @rmtoll CR1          LPMS          LL_PWR_GetPowerMode
 445:external/drivers/stm32wlxx/include/stm32wlxx_ll_pwr.h ****   * @retval Returned value can be one of the following values:
 446:external/drivers/stm32wlxx/include/stm32wlxx_ll_pwr.h ****   *         @arg @ref LL_PWR_MODE_STOP0
 447:external/drivers/stm32wlxx/include/stm32wlxx_ll_pwr.h ****   *         @arg @ref LL_PWR_MODE_STOP1
 448:external/drivers/stm32wlxx/include/stm32wlxx_ll_pwr.h ****   *         @arg @ref LL_PWR_MODE_STOP2
 449:external/drivers/stm32wlxx/include/stm32wlxx_ll_pwr.h ****   *         @arg @ref LL_PWR_MODE_STANDBY
 450:external/drivers/stm32wlxx/include/stm32wlxx_ll_pwr.h ****   *         @arg @ref LL_PWR_MODE_SHUTDOWN
 451:external/drivers/stm32wlxx/include/stm32wlxx_ll_pwr.h ****   */
 452:external/drivers/stm32wlxx/include/stm32wlxx_ll_pwr.h **** __STATIC_INLINE uint32_t LL_PWR_GetPowerMode(void)
 453:external/drivers/stm32wlxx/include/stm32wlxx_ll_pwr.h **** {
 454:external/drivers/stm32wlxx/include/stm32wlxx_ll_pwr.h ****   return (uint32_t)(READ_BIT(PWR->CR1, PWR_CR1_LPMS));
 455:external/drivers/stm32wlxx/include/stm32wlxx_ll_pwr.h **** }
 456:external/drivers/stm32wlxx/include/stm32wlxx_ll_pwr.h **** 
 457:external/drivers/stm32wlxx/include/stm32wlxx_ll_pwr.h **** /**
 458:external/drivers/stm32wlxx/include/stm32wlxx_ll_pwr.h ****   * @brief  Set flash power-down mode during low-power run mode
 459:external/drivers/stm32wlxx/include/stm32wlxx_ll_pwr.h ****   * @rmtoll CR1          FPDR          LL_PWR_SetFlashPowerModeLPRun
 460:external/drivers/stm32wlxx/include/stm32wlxx_ll_pwr.h ****   * @param  FlashLowPowerMode This parameter can be one of the following values:
 461:external/drivers/stm32wlxx/include/stm32wlxx_ll_pwr.h ****   *         @arg @ref LL_PWR_FLASH_LPRUN_MODE_IDLE
 462:external/drivers/stm32wlxx/include/stm32wlxx_ll_pwr.h ****   *         @arg @ref LL_PWR_FLASH_LPRUN_MODE_POWER_DOWN
 463:external/drivers/stm32wlxx/include/stm32wlxx_ll_pwr.h ****   * @retval None
 464:external/drivers/stm32wlxx/include/stm32wlxx_ll_pwr.h ****   */
 465:external/drivers/stm32wlxx/include/stm32wlxx_ll_pwr.h **** __STATIC_INLINE void LL_PWR_SetFlashPowerModeLPRun(uint32_t FlashLowPowerMode)
 466:external/drivers/stm32wlxx/include/stm32wlxx_ll_pwr.h **** {
 467:external/drivers/stm32wlxx/include/stm32wlxx_ll_pwr.h ****   /* Unlock bit FPDR */
 468:external/drivers/stm32wlxx/include/stm32wlxx_ll_pwr.h ****   WRITE_REG(PWR->CR1, PWR_FLASH_POWER_MODE_UNLOCK_CODE);
 469:external/drivers/stm32wlxx/include/stm32wlxx_ll_pwr.h **** 
 470:external/drivers/stm32wlxx/include/stm32wlxx_ll_pwr.h ****   /* Update bit FPDR */
 471:external/drivers/stm32wlxx/include/stm32wlxx_ll_pwr.h ****   MODIFY_REG(PWR->CR1, PWR_CR1_FPDR, FlashLowPowerMode);
 472:external/drivers/stm32wlxx/include/stm32wlxx_ll_pwr.h **** }
 473:external/drivers/stm32wlxx/include/stm32wlxx_ll_pwr.h **** 
 474:external/drivers/stm32wlxx/include/stm32wlxx_ll_pwr.h **** /**
 475:external/drivers/stm32wlxx/include/stm32wlxx_ll_pwr.h ****   * @brief  Get flash power-down mode during low-power run mode
 476:external/drivers/stm32wlxx/include/stm32wlxx_ll_pwr.h ****   * @rmtoll CR1          FPDR          LL_PWR_GetFlashPowerModeLPRun
 477:external/drivers/stm32wlxx/include/stm32wlxx_ll_pwr.h ****   * @retval Returned value can be one of the following values:
 478:external/drivers/stm32wlxx/include/stm32wlxx_ll_pwr.h ****   *         @arg @ref LL_PWR_FLASH_LPRUN_MODE_IDLE
 479:external/drivers/stm32wlxx/include/stm32wlxx_ll_pwr.h ****   *         @arg @ref LL_PWR_FLASH_LPRUN_MODE_POWER_DOWN
 480:external/drivers/stm32wlxx/include/stm32wlxx_ll_pwr.h ****   */
 481:external/drivers/stm32wlxx/include/stm32wlxx_ll_pwr.h **** __STATIC_INLINE uint32_t LL_PWR_GetFlashPowerModeLPRun(void)
 482:external/drivers/stm32wlxx/include/stm32wlxx_ll_pwr.h **** {
ARM GAS  /tmp/ccEyuVux.s 			page 19


 483:external/drivers/stm32wlxx/include/stm32wlxx_ll_pwr.h ****   return (uint32_t)(READ_BIT(PWR->CR1, PWR_CR1_FPDR));
 484:external/drivers/stm32wlxx/include/stm32wlxx_ll_pwr.h **** }
 485:external/drivers/stm32wlxx/include/stm32wlxx_ll_pwr.h **** 
 486:external/drivers/stm32wlxx/include/stm32wlxx_ll_pwr.h **** /**
 487:external/drivers/stm32wlxx/include/stm32wlxx_ll_pwr.h ****   * @brief  Set flash power-down mode during sleep mode
 488:external/drivers/stm32wlxx/include/stm32wlxx_ll_pwr.h ****   * @rmtoll CR1          FPDS          LL_PWR_SetFlashPowerModeSleep
 489:external/drivers/stm32wlxx/include/stm32wlxx_ll_pwr.h ****   * @param  FlashLowPowerMode This parameter can be one of the following values:
 490:external/drivers/stm32wlxx/include/stm32wlxx_ll_pwr.h ****   *         @arg @ref LL_PWR_FLASH_SLEEP_MODE_IDLE
 491:external/drivers/stm32wlxx/include/stm32wlxx_ll_pwr.h ****   *         @arg @ref LL_PWR_FLASH_SLEEP_MODE_POWER_DOWN
 492:external/drivers/stm32wlxx/include/stm32wlxx_ll_pwr.h ****   * @retval None
 493:external/drivers/stm32wlxx/include/stm32wlxx_ll_pwr.h ****   */
 494:external/drivers/stm32wlxx/include/stm32wlxx_ll_pwr.h **** __STATIC_INLINE void LL_PWR_SetFlashPowerModeSleep(uint32_t FlashLowPowerMode)
 495:external/drivers/stm32wlxx/include/stm32wlxx_ll_pwr.h **** {
 496:external/drivers/stm32wlxx/include/stm32wlxx_ll_pwr.h ****   MODIFY_REG(PWR->CR1, PWR_CR1_FPDS, FlashLowPowerMode);
 497:external/drivers/stm32wlxx/include/stm32wlxx_ll_pwr.h **** }
 498:external/drivers/stm32wlxx/include/stm32wlxx_ll_pwr.h **** 
 499:external/drivers/stm32wlxx/include/stm32wlxx_ll_pwr.h **** /**
 500:external/drivers/stm32wlxx/include/stm32wlxx_ll_pwr.h ****   * @brief  Get flash power-down mode during sleep mode
 501:external/drivers/stm32wlxx/include/stm32wlxx_ll_pwr.h ****   * @rmtoll CR1          FPDS          LL_PWR_GetFlashPowerModeSleep
 502:external/drivers/stm32wlxx/include/stm32wlxx_ll_pwr.h ****   * @retval Returned value can be one of the following values:
 503:external/drivers/stm32wlxx/include/stm32wlxx_ll_pwr.h ****   *         @arg @ref LL_PWR_FLASH_SLEEP_MODE_IDLE
 504:external/drivers/stm32wlxx/include/stm32wlxx_ll_pwr.h ****   *         @arg @ref LL_PWR_FLASH_SLEEP_MODE_POWER_DOWN
 505:external/drivers/stm32wlxx/include/stm32wlxx_ll_pwr.h ****   */
 506:external/drivers/stm32wlxx/include/stm32wlxx_ll_pwr.h **** __STATIC_INLINE uint32_t LL_PWR_GetFlashPowerModeSleep(void)
 507:external/drivers/stm32wlxx/include/stm32wlxx_ll_pwr.h **** {
 508:external/drivers/stm32wlxx/include/stm32wlxx_ll_pwr.h ****   return (uint32_t)(READ_BIT(PWR->CR1, PWR_CR1_FPDS));
 509:external/drivers/stm32wlxx/include/stm32wlxx_ll_pwr.h **** }
 510:external/drivers/stm32wlxx/include/stm32wlxx_ll_pwr.h **** 
 511:external/drivers/stm32wlxx/include/stm32wlxx_ll_pwr.h **** /**
 512:external/drivers/stm32wlxx/include/stm32wlxx_ll_pwr.h ****   * @brief  Enable the Power Voltage Monitoring on a peripheral
 513:external/drivers/stm32wlxx/include/stm32wlxx_ll_pwr.h ****   * @rmtoll CR2          PVME3         LL_PWR_EnablePVM
 514:external/drivers/stm32wlxx/include/stm32wlxx_ll_pwr.h ****   * @param  PeriphVoltage This parameter can be one of the following values:
 515:external/drivers/stm32wlxx/include/stm32wlxx_ll_pwr.h ****   *         @arg @ref LL_PWR_PVM_VDDA_1_62V
 516:external/drivers/stm32wlxx/include/stm32wlxx_ll_pwr.h ****   * @retval None
 517:external/drivers/stm32wlxx/include/stm32wlxx_ll_pwr.h ****   */
 518:external/drivers/stm32wlxx/include/stm32wlxx_ll_pwr.h **** __STATIC_INLINE void LL_PWR_EnablePVM(uint32_t PeriphVoltage)
 519:external/drivers/stm32wlxx/include/stm32wlxx_ll_pwr.h **** {
 520:external/drivers/stm32wlxx/include/stm32wlxx_ll_pwr.h ****   SET_BIT(PWR->CR2, PeriphVoltage);
 521:external/drivers/stm32wlxx/include/stm32wlxx_ll_pwr.h **** }
 522:external/drivers/stm32wlxx/include/stm32wlxx_ll_pwr.h **** 
 523:external/drivers/stm32wlxx/include/stm32wlxx_ll_pwr.h **** /**
 524:external/drivers/stm32wlxx/include/stm32wlxx_ll_pwr.h ****   * @brief  Disable the Power Voltage Monitoring on a peripheral
 525:external/drivers/stm32wlxx/include/stm32wlxx_ll_pwr.h ****   * @rmtoll CR2          PVME3         LL_PWR_DisablePVM
 526:external/drivers/stm32wlxx/include/stm32wlxx_ll_pwr.h ****   * @param  PeriphVoltage This parameter can be one of the following values:
 527:external/drivers/stm32wlxx/include/stm32wlxx_ll_pwr.h ****   *         @arg @ref LL_PWR_PVM_VDDA_1_62V
 528:external/drivers/stm32wlxx/include/stm32wlxx_ll_pwr.h ****   * @retval None
 529:external/drivers/stm32wlxx/include/stm32wlxx_ll_pwr.h ****   */
 530:external/drivers/stm32wlxx/include/stm32wlxx_ll_pwr.h **** __STATIC_INLINE void LL_PWR_DisablePVM(uint32_t PeriphVoltage)
 531:external/drivers/stm32wlxx/include/stm32wlxx_ll_pwr.h **** {
 532:external/drivers/stm32wlxx/include/stm32wlxx_ll_pwr.h ****   CLEAR_BIT(PWR->CR2, PeriphVoltage);
 533:external/drivers/stm32wlxx/include/stm32wlxx_ll_pwr.h **** }
 534:external/drivers/stm32wlxx/include/stm32wlxx_ll_pwr.h **** 
 535:external/drivers/stm32wlxx/include/stm32wlxx_ll_pwr.h **** /**
 536:external/drivers/stm32wlxx/include/stm32wlxx_ll_pwr.h ****   * @brief  Check if Power Voltage Monitoring is enabled on a peripheral
 537:external/drivers/stm32wlxx/include/stm32wlxx_ll_pwr.h ****   * @rmtoll CR2          PVME3         LL_PWR_IsEnabledPVM
 538:external/drivers/stm32wlxx/include/stm32wlxx_ll_pwr.h ****   * @param  PeriphVoltage This parameter can be one of the following values:
 539:external/drivers/stm32wlxx/include/stm32wlxx_ll_pwr.h ****   *         @arg @ref LL_PWR_PVM_VDDA_1_62V
ARM GAS  /tmp/ccEyuVux.s 			page 20


 540:external/drivers/stm32wlxx/include/stm32wlxx_ll_pwr.h ****   * @retval State of bit (1 or 0).
 541:external/drivers/stm32wlxx/include/stm32wlxx_ll_pwr.h ****   */
 542:external/drivers/stm32wlxx/include/stm32wlxx_ll_pwr.h **** __STATIC_INLINE uint32_t LL_PWR_IsEnabledPVM(uint32_t PeriphVoltage)
 543:external/drivers/stm32wlxx/include/stm32wlxx_ll_pwr.h **** {
 544:external/drivers/stm32wlxx/include/stm32wlxx_ll_pwr.h ****   return ((READ_BIT(PWR->CR2, PeriphVoltage) == (PeriphVoltage)) ? 1UL : 0UL);
 545:external/drivers/stm32wlxx/include/stm32wlxx_ll_pwr.h **** }
 546:external/drivers/stm32wlxx/include/stm32wlxx_ll_pwr.h **** 
 547:external/drivers/stm32wlxx/include/stm32wlxx_ll_pwr.h **** /**
 548:external/drivers/stm32wlxx/include/stm32wlxx_ll_pwr.h ****   * @brief  Configure the voltage threshold detected by the Power Voltage Detector
 549:external/drivers/stm32wlxx/include/stm32wlxx_ll_pwr.h ****   * @rmtoll CR2          PLS           LL_PWR_SetPVDLevel
 550:external/drivers/stm32wlxx/include/stm32wlxx_ll_pwr.h ****   * @param  PVDLevel This parameter can be one of the following values:
 551:external/drivers/stm32wlxx/include/stm32wlxx_ll_pwr.h ****   *         @arg @ref LL_PWR_PVDLEVEL_0
 552:external/drivers/stm32wlxx/include/stm32wlxx_ll_pwr.h ****   *         @arg @ref LL_PWR_PVDLEVEL_1
 553:external/drivers/stm32wlxx/include/stm32wlxx_ll_pwr.h ****   *         @arg @ref LL_PWR_PVDLEVEL_2
 554:external/drivers/stm32wlxx/include/stm32wlxx_ll_pwr.h ****   *         @arg @ref LL_PWR_PVDLEVEL_3
 555:external/drivers/stm32wlxx/include/stm32wlxx_ll_pwr.h ****   *         @arg @ref LL_PWR_PVDLEVEL_4
 556:external/drivers/stm32wlxx/include/stm32wlxx_ll_pwr.h ****   *         @arg @ref LL_PWR_PVDLEVEL_5
 557:external/drivers/stm32wlxx/include/stm32wlxx_ll_pwr.h ****   *         @arg @ref LL_PWR_PVDLEVEL_6
 558:external/drivers/stm32wlxx/include/stm32wlxx_ll_pwr.h ****   *         @arg @ref LL_PWR_PVDLEVEL_7
 559:external/drivers/stm32wlxx/include/stm32wlxx_ll_pwr.h ****   * @retval None
 560:external/drivers/stm32wlxx/include/stm32wlxx_ll_pwr.h ****   */
 561:external/drivers/stm32wlxx/include/stm32wlxx_ll_pwr.h **** __STATIC_INLINE void LL_PWR_SetPVDLevel(uint32_t PVDLevel)
 562:external/drivers/stm32wlxx/include/stm32wlxx_ll_pwr.h **** {
 563:external/drivers/stm32wlxx/include/stm32wlxx_ll_pwr.h ****   MODIFY_REG(PWR->CR2, PWR_CR2_PLS, PVDLevel);
 564:external/drivers/stm32wlxx/include/stm32wlxx_ll_pwr.h **** }
 565:external/drivers/stm32wlxx/include/stm32wlxx_ll_pwr.h **** 
 566:external/drivers/stm32wlxx/include/stm32wlxx_ll_pwr.h **** /**
 567:external/drivers/stm32wlxx/include/stm32wlxx_ll_pwr.h ****   * @brief  Get the voltage threshold detection
 568:external/drivers/stm32wlxx/include/stm32wlxx_ll_pwr.h ****   * @rmtoll CR2          PLS           LL_PWR_GetPVDLevel
 569:external/drivers/stm32wlxx/include/stm32wlxx_ll_pwr.h ****   * @retval Returned value can be one of the following values:
 570:external/drivers/stm32wlxx/include/stm32wlxx_ll_pwr.h ****   *         @arg @ref LL_PWR_PVDLEVEL_0
 571:external/drivers/stm32wlxx/include/stm32wlxx_ll_pwr.h ****   *         @arg @ref LL_PWR_PVDLEVEL_1
 572:external/drivers/stm32wlxx/include/stm32wlxx_ll_pwr.h ****   *         @arg @ref LL_PWR_PVDLEVEL_2
 573:external/drivers/stm32wlxx/include/stm32wlxx_ll_pwr.h ****   *         @arg @ref LL_PWR_PVDLEVEL_3
 574:external/drivers/stm32wlxx/include/stm32wlxx_ll_pwr.h ****   *         @arg @ref LL_PWR_PVDLEVEL_4
 575:external/drivers/stm32wlxx/include/stm32wlxx_ll_pwr.h ****   *         @arg @ref LL_PWR_PVDLEVEL_5
 576:external/drivers/stm32wlxx/include/stm32wlxx_ll_pwr.h ****   *         @arg @ref LL_PWR_PVDLEVEL_6
 577:external/drivers/stm32wlxx/include/stm32wlxx_ll_pwr.h ****   *         @arg @ref LL_PWR_PVDLEVEL_7
 578:external/drivers/stm32wlxx/include/stm32wlxx_ll_pwr.h ****   */
 579:external/drivers/stm32wlxx/include/stm32wlxx_ll_pwr.h **** __STATIC_INLINE uint32_t LL_PWR_GetPVDLevel(void)
 580:external/drivers/stm32wlxx/include/stm32wlxx_ll_pwr.h **** {
 581:external/drivers/stm32wlxx/include/stm32wlxx_ll_pwr.h ****   return (uint32_t)(READ_BIT(PWR->CR2, PWR_CR2_PLS));
 582:external/drivers/stm32wlxx/include/stm32wlxx_ll_pwr.h **** }
 583:external/drivers/stm32wlxx/include/stm32wlxx_ll_pwr.h **** 
 584:external/drivers/stm32wlxx/include/stm32wlxx_ll_pwr.h **** /**
 585:external/drivers/stm32wlxx/include/stm32wlxx_ll_pwr.h ****   * @brief  Enable Power Voltage Detector
 586:external/drivers/stm32wlxx/include/stm32wlxx_ll_pwr.h ****   * @rmtoll CR2          PVDE          LL_PWR_EnablePVD
 587:external/drivers/stm32wlxx/include/stm32wlxx_ll_pwr.h ****   * @retval None
 588:external/drivers/stm32wlxx/include/stm32wlxx_ll_pwr.h ****   */
 589:external/drivers/stm32wlxx/include/stm32wlxx_ll_pwr.h **** __STATIC_INLINE void LL_PWR_EnablePVD(void)
 590:external/drivers/stm32wlxx/include/stm32wlxx_ll_pwr.h **** {
 591:external/drivers/stm32wlxx/include/stm32wlxx_ll_pwr.h ****   SET_BIT(PWR->CR2, PWR_CR2_PVDE);
 592:external/drivers/stm32wlxx/include/stm32wlxx_ll_pwr.h **** }
 593:external/drivers/stm32wlxx/include/stm32wlxx_ll_pwr.h **** 
 594:external/drivers/stm32wlxx/include/stm32wlxx_ll_pwr.h **** /**
 595:external/drivers/stm32wlxx/include/stm32wlxx_ll_pwr.h ****   * @brief  Disable Power Voltage Detector
 596:external/drivers/stm32wlxx/include/stm32wlxx_ll_pwr.h ****   * @rmtoll CR2          PVDE          LL_PWR_DisablePVD
ARM GAS  /tmp/ccEyuVux.s 			page 21


 597:external/drivers/stm32wlxx/include/stm32wlxx_ll_pwr.h ****   * @retval None
 598:external/drivers/stm32wlxx/include/stm32wlxx_ll_pwr.h ****   */
 599:external/drivers/stm32wlxx/include/stm32wlxx_ll_pwr.h **** __STATIC_INLINE void LL_PWR_DisablePVD(void)
 600:external/drivers/stm32wlxx/include/stm32wlxx_ll_pwr.h **** {
 601:external/drivers/stm32wlxx/include/stm32wlxx_ll_pwr.h ****   CLEAR_BIT(PWR->CR2, PWR_CR2_PVDE);
 602:external/drivers/stm32wlxx/include/stm32wlxx_ll_pwr.h **** }
 603:external/drivers/stm32wlxx/include/stm32wlxx_ll_pwr.h **** 
 604:external/drivers/stm32wlxx/include/stm32wlxx_ll_pwr.h **** /**
 605:external/drivers/stm32wlxx/include/stm32wlxx_ll_pwr.h ****   * @brief  Check if Power Voltage Detector is enabled
 606:external/drivers/stm32wlxx/include/stm32wlxx_ll_pwr.h ****   * @rmtoll CR2          PVDE          LL_PWR_IsEnabledPVD
 607:external/drivers/stm32wlxx/include/stm32wlxx_ll_pwr.h ****   * @retval State of bit (1 or 0).
 608:external/drivers/stm32wlxx/include/stm32wlxx_ll_pwr.h ****   */
 609:external/drivers/stm32wlxx/include/stm32wlxx_ll_pwr.h **** __STATIC_INLINE uint32_t LL_PWR_IsEnabledPVD(void)
 610:external/drivers/stm32wlxx/include/stm32wlxx_ll_pwr.h **** {
 611:external/drivers/stm32wlxx/include/stm32wlxx_ll_pwr.h ****   return ((READ_BIT(PWR->CR2, PWR_CR2_PVDE) == (PWR_CR2_PVDE)) ? 1UL : 0UL);
 612:external/drivers/stm32wlxx/include/stm32wlxx_ll_pwr.h **** }
 613:external/drivers/stm32wlxx/include/stm32wlxx_ll_pwr.h **** 
 614:external/drivers/stm32wlxx/include/stm32wlxx_ll_pwr.h **** /**
 615:external/drivers/stm32wlxx/include/stm32wlxx_ll_pwr.h ****   * @brief  Set monitoring of supply voltage for radio operating level
 616:external/drivers/stm32wlxx/include/stm32wlxx_ll_pwr.h ****   *         (radio End Of Life), radio must be in active mode.
 617:external/drivers/stm32wlxx/include/stm32wlxx_ll_pwr.h ****   * @rmtoll CR5          RFEOLEN       LL_PWR_SetRadioEOL
 618:external/drivers/stm32wlxx/include/stm32wlxx_ll_pwr.h ****   * @param  RadioEOL This parameter can be one of the following values:
 619:external/drivers/stm32wlxx/include/stm32wlxx_ll_pwr.h ****   *         @arg @ref LL_PWR_RADIO_EOL_DISABLE
 620:external/drivers/stm32wlxx/include/stm32wlxx_ll_pwr.h ****   *         @arg @ref LL_PWR_RADIO_EOL_ENABLE
 621:external/drivers/stm32wlxx/include/stm32wlxx_ll_pwr.h ****   * @retval None
 622:external/drivers/stm32wlxx/include/stm32wlxx_ll_pwr.h ****   */
 623:external/drivers/stm32wlxx/include/stm32wlxx_ll_pwr.h **** __STATIC_INLINE void LL_PWR_SetRadioEOL(uint32_t RadioEOL)
 624:external/drivers/stm32wlxx/include/stm32wlxx_ll_pwr.h **** {
 625:external/drivers/stm32wlxx/include/stm32wlxx_ll_pwr.h ****   MODIFY_REG(PWR->CR5, PWR_CR5_RFEOLEN, RadioEOL);
 626:external/drivers/stm32wlxx/include/stm32wlxx_ll_pwr.h **** }
 627:external/drivers/stm32wlxx/include/stm32wlxx_ll_pwr.h **** 
 628:external/drivers/stm32wlxx/include/stm32wlxx_ll_pwr.h **** /**
 629:external/drivers/stm32wlxx/include/stm32wlxx_ll_pwr.h ****   * @brief  Get monitoring of supply voltage for radio operating level (radio End Of Life)
 630:external/drivers/stm32wlxx/include/stm32wlxx_ll_pwr.h ****   * @rmtoll CR5          RFEOLEN       LL_PWR_GetRadioEOL
 631:external/drivers/stm32wlxx/include/stm32wlxx_ll_pwr.h ****   * @retval Returned value can be one of the following values:
 632:external/drivers/stm32wlxx/include/stm32wlxx_ll_pwr.h ****   *         @arg @ref LL_PWR_RADIO_EOL_DISABLE
 633:external/drivers/stm32wlxx/include/stm32wlxx_ll_pwr.h ****   *         @arg @ref LL_PWR_RADIO_EOL_ENABLE
 634:external/drivers/stm32wlxx/include/stm32wlxx_ll_pwr.h ****   */
 635:external/drivers/stm32wlxx/include/stm32wlxx_ll_pwr.h **** __STATIC_INLINE uint32_t LL_PWR_GetRadioEOL(void)
 636:external/drivers/stm32wlxx/include/stm32wlxx_ll_pwr.h **** {
 637:external/drivers/stm32wlxx/include/stm32wlxx_ll_pwr.h ****   return (uint32_t)(READ_BIT(PWR->CR5, PWR_CR5_RFEOLEN));
 638:external/drivers/stm32wlxx/include/stm32wlxx_ll_pwr.h **** }
 639:external/drivers/stm32wlxx/include/stm32wlxx_ll_pwr.h **** 
 640:external/drivers/stm32wlxx/include/stm32wlxx_ll_pwr.h **** /**
 641:external/drivers/stm32wlxx/include/stm32wlxx_ll_pwr.h ****   * @brief  Enable Internal Wake-up line
 642:external/drivers/stm32wlxx/include/stm32wlxx_ll_pwr.h ****   * @rmtoll CR3          EIWF          LL_PWR_EnableInternWU
 643:external/drivers/stm32wlxx/include/stm32wlxx_ll_pwr.h ****   * @retval None
 644:external/drivers/stm32wlxx/include/stm32wlxx_ll_pwr.h ****   */
 645:external/drivers/stm32wlxx/include/stm32wlxx_ll_pwr.h **** __STATIC_INLINE void LL_PWR_EnableInternWU(void)
 646:external/drivers/stm32wlxx/include/stm32wlxx_ll_pwr.h **** {
 647:external/drivers/stm32wlxx/include/stm32wlxx_ll_pwr.h ****   SET_BIT(PWR->CR3, PWR_CR3_EIWUL);
 648:external/drivers/stm32wlxx/include/stm32wlxx_ll_pwr.h **** }
 649:external/drivers/stm32wlxx/include/stm32wlxx_ll_pwr.h **** 
 650:external/drivers/stm32wlxx/include/stm32wlxx_ll_pwr.h **** /**
 651:external/drivers/stm32wlxx/include/stm32wlxx_ll_pwr.h ****   * @brief  Disable Internal Wake-up line
 652:external/drivers/stm32wlxx/include/stm32wlxx_ll_pwr.h ****   * @rmtoll CR3          EIWF          LL_PWR_DisableInternWU
 653:external/drivers/stm32wlxx/include/stm32wlxx_ll_pwr.h ****   * @retval None
ARM GAS  /tmp/ccEyuVux.s 			page 22


 654:external/drivers/stm32wlxx/include/stm32wlxx_ll_pwr.h ****   */
 655:external/drivers/stm32wlxx/include/stm32wlxx_ll_pwr.h **** __STATIC_INLINE void LL_PWR_DisableInternWU(void)
 656:external/drivers/stm32wlxx/include/stm32wlxx_ll_pwr.h **** {
 657:external/drivers/stm32wlxx/include/stm32wlxx_ll_pwr.h ****   CLEAR_BIT(PWR->CR3, PWR_CR3_EIWUL);
 658:external/drivers/stm32wlxx/include/stm32wlxx_ll_pwr.h **** }
 659:external/drivers/stm32wlxx/include/stm32wlxx_ll_pwr.h **** 
 660:external/drivers/stm32wlxx/include/stm32wlxx_ll_pwr.h **** /**
 661:external/drivers/stm32wlxx/include/stm32wlxx_ll_pwr.h ****   * @brief  Check if Internal Wake-up line is enabled
 662:external/drivers/stm32wlxx/include/stm32wlxx_ll_pwr.h ****   * @rmtoll CR3          EIWF          LL_PWR_IsEnabledInternWU
 663:external/drivers/stm32wlxx/include/stm32wlxx_ll_pwr.h ****   * @retval State of bit (1 or 0).
 664:external/drivers/stm32wlxx/include/stm32wlxx_ll_pwr.h ****   */
 665:external/drivers/stm32wlxx/include/stm32wlxx_ll_pwr.h **** __STATIC_INLINE uint32_t LL_PWR_IsEnabledInternWU(void)
 666:external/drivers/stm32wlxx/include/stm32wlxx_ll_pwr.h **** {
 667:external/drivers/stm32wlxx/include/stm32wlxx_ll_pwr.h ****   return ((READ_BIT(PWR->CR3, PWR_CR3_EIWUL) == (PWR_CR3_EIWUL)) ? 1UL : 0UL);
 668:external/drivers/stm32wlxx/include/stm32wlxx_ll_pwr.h **** }
 669:external/drivers/stm32wlxx/include/stm32wlxx_ll_pwr.h **** 
 670:external/drivers/stm32wlxx/include/stm32wlxx_ll_pwr.h **** /**
 671:external/drivers/stm32wlxx/include/stm32wlxx_ll_pwr.h ****   * @brief  Enable pull-up and pull-down configuration
 672:external/drivers/stm32wlxx/include/stm32wlxx_ll_pwr.h ****   * @rmtoll CR3          APC           LL_PWR_EnablePUPDCfg
 673:external/drivers/stm32wlxx/include/stm32wlxx_ll_pwr.h ****   * @retval None
 674:external/drivers/stm32wlxx/include/stm32wlxx_ll_pwr.h ****   */
 675:external/drivers/stm32wlxx/include/stm32wlxx_ll_pwr.h **** __STATIC_INLINE void LL_PWR_EnablePUPDCfg(void)
 676:external/drivers/stm32wlxx/include/stm32wlxx_ll_pwr.h **** {
 677:external/drivers/stm32wlxx/include/stm32wlxx_ll_pwr.h ****   SET_BIT(PWR->CR3, PWR_CR3_APC);
 678:external/drivers/stm32wlxx/include/stm32wlxx_ll_pwr.h **** }
 679:external/drivers/stm32wlxx/include/stm32wlxx_ll_pwr.h **** 
 680:external/drivers/stm32wlxx/include/stm32wlxx_ll_pwr.h **** /**
 681:external/drivers/stm32wlxx/include/stm32wlxx_ll_pwr.h ****   * @brief  Disable pull-up and pull-down configuration
 682:external/drivers/stm32wlxx/include/stm32wlxx_ll_pwr.h ****   * @rmtoll CR3          APC           LL_PWR_DisablePUPDCfg
 683:external/drivers/stm32wlxx/include/stm32wlxx_ll_pwr.h ****   * @retval None
 684:external/drivers/stm32wlxx/include/stm32wlxx_ll_pwr.h ****   */
 685:external/drivers/stm32wlxx/include/stm32wlxx_ll_pwr.h **** __STATIC_INLINE void LL_PWR_DisablePUPDCfg(void)
 686:external/drivers/stm32wlxx/include/stm32wlxx_ll_pwr.h **** {
 687:external/drivers/stm32wlxx/include/stm32wlxx_ll_pwr.h ****   CLEAR_BIT(PWR->CR3, PWR_CR3_APC);
 688:external/drivers/stm32wlxx/include/stm32wlxx_ll_pwr.h **** }
 689:external/drivers/stm32wlxx/include/stm32wlxx_ll_pwr.h **** 
 690:external/drivers/stm32wlxx/include/stm32wlxx_ll_pwr.h **** /**
 691:external/drivers/stm32wlxx/include/stm32wlxx_ll_pwr.h ****   * @brief  Check if pull-up and pull-down configuration is enabled
 692:external/drivers/stm32wlxx/include/stm32wlxx_ll_pwr.h ****   * @rmtoll CR3          APC           LL_PWR_IsEnabledPUPDCfg
 693:external/drivers/stm32wlxx/include/stm32wlxx_ll_pwr.h ****   * @retval State of bit (1 or 0).
 694:external/drivers/stm32wlxx/include/stm32wlxx_ll_pwr.h ****   */
 695:external/drivers/stm32wlxx/include/stm32wlxx_ll_pwr.h **** __STATIC_INLINE uint32_t LL_PWR_IsEnabledPUPDCfg(void)
 696:external/drivers/stm32wlxx/include/stm32wlxx_ll_pwr.h **** {
 697:external/drivers/stm32wlxx/include/stm32wlxx_ll_pwr.h ****   return ((READ_BIT(PWR->CR3, PWR_CR3_APC) == (PWR_CR3_APC)) ? 1UL : 0UL);
 698:external/drivers/stm32wlxx/include/stm32wlxx_ll_pwr.h **** }
 699:external/drivers/stm32wlxx/include/stm32wlxx_ll_pwr.h **** 
 700:external/drivers/stm32wlxx/include/stm32wlxx_ll_pwr.h **** /**
 701:external/drivers/stm32wlxx/include/stm32wlxx_ll_pwr.h ****   * @brief  Enable SRAM2 content retention in Standby mode
 702:external/drivers/stm32wlxx/include/stm32wlxx_ll_pwr.h ****   * @rmtoll CR3          RRS           LL_PWR_EnableSRAM2Retention
 703:external/drivers/stm32wlxx/include/stm32wlxx_ll_pwr.h ****   * @retval None
 704:external/drivers/stm32wlxx/include/stm32wlxx_ll_pwr.h ****   */
 705:external/drivers/stm32wlxx/include/stm32wlxx_ll_pwr.h **** __STATIC_INLINE void LL_PWR_EnableSRAM2Retention(void)
 706:external/drivers/stm32wlxx/include/stm32wlxx_ll_pwr.h **** {
 707:external/drivers/stm32wlxx/include/stm32wlxx_ll_pwr.h ****   SET_BIT(PWR->CR3, PWR_CR3_RRS);
 708:external/drivers/stm32wlxx/include/stm32wlxx_ll_pwr.h **** }
 709:external/drivers/stm32wlxx/include/stm32wlxx_ll_pwr.h **** 
 710:external/drivers/stm32wlxx/include/stm32wlxx_ll_pwr.h **** /**
ARM GAS  /tmp/ccEyuVux.s 			page 23


 711:external/drivers/stm32wlxx/include/stm32wlxx_ll_pwr.h ****   * @brief  Disable SRAM2 content retention in Standby mode
 712:external/drivers/stm32wlxx/include/stm32wlxx_ll_pwr.h ****   * @rmtoll CR3          RRS           LL_PWR_DisableSRAM2Retention
 713:external/drivers/stm32wlxx/include/stm32wlxx_ll_pwr.h ****   * @retval None
 714:external/drivers/stm32wlxx/include/stm32wlxx_ll_pwr.h ****   */
 715:external/drivers/stm32wlxx/include/stm32wlxx_ll_pwr.h **** __STATIC_INLINE void LL_PWR_DisableSRAM2Retention(void)
 716:external/drivers/stm32wlxx/include/stm32wlxx_ll_pwr.h **** {
 717:external/drivers/stm32wlxx/include/stm32wlxx_ll_pwr.h ****   CLEAR_BIT(PWR->CR3, PWR_CR3_RRS);
 718:external/drivers/stm32wlxx/include/stm32wlxx_ll_pwr.h **** }
 719:external/drivers/stm32wlxx/include/stm32wlxx_ll_pwr.h **** 
 720:external/drivers/stm32wlxx/include/stm32wlxx_ll_pwr.h **** /**
 721:external/drivers/stm32wlxx/include/stm32wlxx_ll_pwr.h ****   * @brief  Check if SRAM2 content retention in Standby mode is enabled
 722:external/drivers/stm32wlxx/include/stm32wlxx_ll_pwr.h ****   * @rmtoll CR3          RRS           LL_PWR_IsEnabledSRAM2Retention
 723:external/drivers/stm32wlxx/include/stm32wlxx_ll_pwr.h ****   * @retval State of bit (1 or 0).
 724:external/drivers/stm32wlxx/include/stm32wlxx_ll_pwr.h ****   */
 725:external/drivers/stm32wlxx/include/stm32wlxx_ll_pwr.h **** __STATIC_INLINE uint32_t LL_PWR_IsEnabledSRAM2Retention(void)
 726:external/drivers/stm32wlxx/include/stm32wlxx_ll_pwr.h **** {
 727:external/drivers/stm32wlxx/include/stm32wlxx_ll_pwr.h ****   return ((READ_BIT(PWR->CR3, PWR_CR3_RRS) == (PWR_CR3_RRS)) ? 1UL : 0UL);
 728:external/drivers/stm32wlxx/include/stm32wlxx_ll_pwr.h **** }
 729:external/drivers/stm32wlxx/include/stm32wlxx_ll_pwr.h **** 
 730:external/drivers/stm32wlxx/include/stm32wlxx_ll_pwr.h **** /**
 731:external/drivers/stm32wlxx/include/stm32wlxx_ll_pwr.h ****   * @brief  Enable wake-up power voltage detection with trigger for CPU1
 732:external/drivers/stm32wlxx/include/stm32wlxx_ll_pwr.h ****   * @note   Wake-up power voltage detection status can be checked
 733:external/drivers/stm32wlxx/include/stm32wlxx_ll_pwr.h ****   *         using function @ref LL_PWR_IsActiveFlag_WPVD().
 734:external/drivers/stm32wlxx/include/stm32wlxx_ll_pwr.h ****   * @rmtoll CR3          EWPVD         LL_PWR_EnableWPVD
 735:external/drivers/stm32wlxx/include/stm32wlxx_ll_pwr.h ****   * @retval None
 736:external/drivers/stm32wlxx/include/stm32wlxx_ll_pwr.h ****   */
 737:external/drivers/stm32wlxx/include/stm32wlxx_ll_pwr.h **** __STATIC_INLINE void LL_PWR_EnableWPVD(void)
 738:external/drivers/stm32wlxx/include/stm32wlxx_ll_pwr.h **** {
 739:external/drivers/stm32wlxx/include/stm32wlxx_ll_pwr.h ****   SET_BIT(PWR->CR3, PWR_CR3_EWPVD);
 740:external/drivers/stm32wlxx/include/stm32wlxx_ll_pwr.h **** }
 741:external/drivers/stm32wlxx/include/stm32wlxx_ll_pwr.h **** 
 742:external/drivers/stm32wlxx/include/stm32wlxx_ll_pwr.h **** /**
 743:external/drivers/stm32wlxx/include/stm32wlxx_ll_pwr.h ****   * @brief  Disable wake-up power voltage detection with trigger for CPU1
 744:external/drivers/stm32wlxx/include/stm32wlxx_ll_pwr.h ****   * @rmtoll CR3          EWPVD         LL_PWR_DisableWPVD
 745:external/drivers/stm32wlxx/include/stm32wlxx_ll_pwr.h ****   * @retval None
 746:external/drivers/stm32wlxx/include/stm32wlxx_ll_pwr.h ****   */
 747:external/drivers/stm32wlxx/include/stm32wlxx_ll_pwr.h **** __STATIC_INLINE void LL_PWR_DisableWPVD(void)
 748:external/drivers/stm32wlxx/include/stm32wlxx_ll_pwr.h **** {
 749:external/drivers/stm32wlxx/include/stm32wlxx_ll_pwr.h ****   CLEAR_BIT(PWR->CR3, PWR_CR3_EWPVD);
 750:external/drivers/stm32wlxx/include/stm32wlxx_ll_pwr.h **** }
 751:external/drivers/stm32wlxx/include/stm32wlxx_ll_pwr.h **** 
 752:external/drivers/stm32wlxx/include/stm32wlxx_ll_pwr.h **** /**
 753:external/drivers/stm32wlxx/include/stm32wlxx_ll_pwr.h ****   * @brief  Check if wake-up power voltage detection is enabled with trigger for CPU1
 754:external/drivers/stm32wlxx/include/stm32wlxx_ll_pwr.h ****   * @rmtoll CR3          EWPVD         LL_PWR_IsEnabledWPVD
 755:external/drivers/stm32wlxx/include/stm32wlxx_ll_pwr.h ****   * @retval State of bit (1 or 0).
 756:external/drivers/stm32wlxx/include/stm32wlxx_ll_pwr.h ****   */
 757:external/drivers/stm32wlxx/include/stm32wlxx_ll_pwr.h **** __STATIC_INLINE uint32_t LL_PWR_IsEnabledWPVD(void)
 758:external/drivers/stm32wlxx/include/stm32wlxx_ll_pwr.h **** {
 759:external/drivers/stm32wlxx/include/stm32wlxx_ll_pwr.h ****   return ((READ_BIT(PWR->CR3, PWR_CR3_EWPVD) == (PWR_CR3_EWPVD)) ? 1UL : 0UL);
 760:external/drivers/stm32wlxx/include/stm32wlxx_ll_pwr.h **** }
 761:external/drivers/stm32wlxx/include/stm32wlxx_ll_pwr.h **** 
 762:external/drivers/stm32wlxx/include/stm32wlxx_ll_pwr.h **** /**
 763:external/drivers/stm32wlxx/include/stm32wlxx_ll_pwr.h ****   * @brief  Enable periodical sampling of supply voltage in Stop and Standby
 764:external/drivers/stm32wlxx/include/stm32wlxx_ll_pwr.h ****   *         modes for detecting condition of PDR and BOR reset.
 765:external/drivers/stm32wlxx/include/stm32wlxx_ll_pwr.h ****   * @note   Caution: When enabled, and if the supply voltage drops below
 766:external/drivers/stm32wlxx/include/stm32wlxx_ll_pwr.h ****   *         the minimum operating condition between two supply voltage samples,
 767:external/drivers/stm32wlxx/include/stm32wlxx_ll_pwr.h ****   *         the reset condition is missed and no reset is generated.
ARM GAS  /tmp/ccEyuVux.s 			page 24


 768:external/drivers/stm32wlxx/include/stm32wlxx_ll_pwr.h ****   * @rmtoll CR3          ULPEN         LL_PWR_EnableBORPVD_ULP
 769:external/drivers/stm32wlxx/include/stm32wlxx_ll_pwr.h ****   * @retval None
 770:external/drivers/stm32wlxx/include/stm32wlxx_ll_pwr.h ****   */
 771:external/drivers/stm32wlxx/include/stm32wlxx_ll_pwr.h **** __STATIC_INLINE void LL_PWR_EnableBORPVD_ULP(void)
 772:external/drivers/stm32wlxx/include/stm32wlxx_ll_pwr.h **** {
 773:external/drivers/stm32wlxx/include/stm32wlxx_ll_pwr.h ****   SET_BIT(PWR->CR3, PWR_CR3_ULPEN);
 774:external/drivers/stm32wlxx/include/stm32wlxx_ll_pwr.h **** }
 775:external/drivers/stm32wlxx/include/stm32wlxx_ll_pwr.h **** 
 776:external/drivers/stm32wlxx/include/stm32wlxx_ll_pwr.h **** /**
 777:external/drivers/stm32wlxx/include/stm32wlxx_ll_pwr.h ****   * @brief  Disable periodical sampling of supply voltage in Stop and Standby
 778:external/drivers/stm32wlxx/include/stm32wlxx_ll_pwr.h ****   *         modes for detecting condition of PDR and BOR reset.
 779:external/drivers/stm32wlxx/include/stm32wlxx_ll_pwr.h ****   * @rmtoll CR3          ULPEN         LL_PWR_DisableBORPVD_ULP
 780:external/drivers/stm32wlxx/include/stm32wlxx_ll_pwr.h ****   * @retval None
 781:external/drivers/stm32wlxx/include/stm32wlxx_ll_pwr.h ****   */
 782:external/drivers/stm32wlxx/include/stm32wlxx_ll_pwr.h **** __STATIC_INLINE void LL_PWR_DisableBORPVD_ULP(void)
 783:external/drivers/stm32wlxx/include/stm32wlxx_ll_pwr.h **** {
 784:external/drivers/stm32wlxx/include/stm32wlxx_ll_pwr.h ****   CLEAR_BIT(PWR->CR3, PWR_CR3_ULPEN);
 785:external/drivers/stm32wlxx/include/stm32wlxx_ll_pwr.h **** }
 786:external/drivers/stm32wlxx/include/stm32wlxx_ll_pwr.h **** 
 787:external/drivers/stm32wlxx/include/stm32wlxx_ll_pwr.h **** /**
 788:external/drivers/stm32wlxx/include/stm32wlxx_ll_pwr.h ****   * @brief  Check if periodical sampling of supply voltage in Stop and Standby
 789:external/drivers/stm32wlxx/include/stm32wlxx_ll_pwr.h ****   *         modes is enabled.
 790:external/drivers/stm32wlxx/include/stm32wlxx_ll_pwr.h ****   * @rmtoll CR3          ULPEN         LL_PWR_IsEnabledBORPVD_ULP
 791:external/drivers/stm32wlxx/include/stm32wlxx_ll_pwr.h ****   * @retval State of bit (1 or 0).
 792:external/drivers/stm32wlxx/include/stm32wlxx_ll_pwr.h ****   */
 793:external/drivers/stm32wlxx/include/stm32wlxx_ll_pwr.h **** __STATIC_INLINE uint32_t LL_PWR_IsEnabledBORPVD_ULP(void)
 794:external/drivers/stm32wlxx/include/stm32wlxx_ll_pwr.h **** {
 795:external/drivers/stm32wlxx/include/stm32wlxx_ll_pwr.h ****   return ((READ_BIT(PWR->CR3, PWR_CR3_ULPEN) == (PWR_CR3_ULPEN)) ? 1UL : 0UL);
 796:external/drivers/stm32wlxx/include/stm32wlxx_ll_pwr.h **** }
 797:external/drivers/stm32wlxx/include/stm32wlxx_ll_pwr.h **** 
 798:external/drivers/stm32wlxx/include/stm32wlxx_ll_pwr.h **** /**
 799:external/drivers/stm32wlxx/include/stm32wlxx_ll_pwr.h ****   * @brief  Enable the WakeUp PINx functionality
 800:external/drivers/stm32wlxx/include/stm32wlxx_ll_pwr.h ****   * @rmtoll CR3          EWUP1         LL_PWR_EnableWakeUpPin\n
 801:external/drivers/stm32wlxx/include/stm32wlxx_ll_pwr.h ****   *         CR3          EWUP2         LL_PWR_EnableWakeUpPin\n
 802:external/drivers/stm32wlxx/include/stm32wlxx_ll_pwr.h ****   *         CR3          EWUP3         LL_PWR_EnableWakeUpPin
 803:external/drivers/stm32wlxx/include/stm32wlxx_ll_pwr.h ****   * @param  WakeUpPin This parameter can be one of the following values:
 804:external/drivers/stm32wlxx/include/stm32wlxx_ll_pwr.h ****   *         @arg @ref LL_PWR_WAKEUP_PIN1
 805:external/drivers/stm32wlxx/include/stm32wlxx_ll_pwr.h ****   *         @arg @ref LL_PWR_WAKEUP_PIN2
 806:external/drivers/stm32wlxx/include/stm32wlxx_ll_pwr.h ****   *         @arg @ref LL_PWR_WAKEUP_PIN3
 807:external/drivers/stm32wlxx/include/stm32wlxx_ll_pwr.h ****   * @retval None
 808:external/drivers/stm32wlxx/include/stm32wlxx_ll_pwr.h ****   */
 809:external/drivers/stm32wlxx/include/stm32wlxx_ll_pwr.h **** __STATIC_INLINE void LL_PWR_EnableWakeUpPin(uint32_t WakeUpPin)
 810:external/drivers/stm32wlxx/include/stm32wlxx_ll_pwr.h **** {
 811:external/drivers/stm32wlxx/include/stm32wlxx_ll_pwr.h ****   SET_BIT(PWR->CR3, WakeUpPin);
 812:external/drivers/stm32wlxx/include/stm32wlxx_ll_pwr.h **** }
 813:external/drivers/stm32wlxx/include/stm32wlxx_ll_pwr.h **** 
 814:external/drivers/stm32wlxx/include/stm32wlxx_ll_pwr.h **** /**
 815:external/drivers/stm32wlxx/include/stm32wlxx_ll_pwr.h ****   * @brief  Disable the WakeUp PINx functionality
 816:external/drivers/stm32wlxx/include/stm32wlxx_ll_pwr.h ****   * @rmtoll CR3          EWUP1         LL_PWR_DisableWakeUpPin\n
 817:external/drivers/stm32wlxx/include/stm32wlxx_ll_pwr.h ****   *         CR3          EWUP2         LL_PWR_DisableWakeUpPin\n
 818:external/drivers/stm32wlxx/include/stm32wlxx_ll_pwr.h ****   *         CR3          EWUP3         LL_PWR_DisableWakeUpPin
 819:external/drivers/stm32wlxx/include/stm32wlxx_ll_pwr.h ****   * @param  WakeUpPin This parameter can be one of the following values:
 820:external/drivers/stm32wlxx/include/stm32wlxx_ll_pwr.h ****   *         @arg @ref LL_PWR_WAKEUP_PIN1
 821:external/drivers/stm32wlxx/include/stm32wlxx_ll_pwr.h ****   *         @arg @ref LL_PWR_WAKEUP_PIN2
 822:external/drivers/stm32wlxx/include/stm32wlxx_ll_pwr.h ****   *         @arg @ref LL_PWR_WAKEUP_PIN3
 823:external/drivers/stm32wlxx/include/stm32wlxx_ll_pwr.h ****   * @retval None
 824:external/drivers/stm32wlxx/include/stm32wlxx_ll_pwr.h ****   */
ARM GAS  /tmp/ccEyuVux.s 			page 25


 825:external/drivers/stm32wlxx/include/stm32wlxx_ll_pwr.h **** __STATIC_INLINE void LL_PWR_DisableWakeUpPin(uint32_t WakeUpPin)
 826:external/drivers/stm32wlxx/include/stm32wlxx_ll_pwr.h **** {
 827:external/drivers/stm32wlxx/include/stm32wlxx_ll_pwr.h ****   CLEAR_BIT(PWR->CR3, WakeUpPin);
 828:external/drivers/stm32wlxx/include/stm32wlxx_ll_pwr.h **** }
 829:external/drivers/stm32wlxx/include/stm32wlxx_ll_pwr.h **** 
 830:external/drivers/stm32wlxx/include/stm32wlxx_ll_pwr.h **** /**
 831:external/drivers/stm32wlxx/include/stm32wlxx_ll_pwr.h ****   * @brief  Check if the WakeUp PINx functionality is enabled
 832:external/drivers/stm32wlxx/include/stm32wlxx_ll_pwr.h ****   * @rmtoll CR3          EWUP1         LL_PWR_IsEnabledWakeUpPin\n
 833:external/drivers/stm32wlxx/include/stm32wlxx_ll_pwr.h ****   *         CR3          EWUP2         LL_PWR_IsEnabledWakeUpPin\n
 834:external/drivers/stm32wlxx/include/stm32wlxx_ll_pwr.h ****   *         CR3          EWUP3         LL_PWR_IsEnabledWakeUpPin
 835:external/drivers/stm32wlxx/include/stm32wlxx_ll_pwr.h ****   * @param  WakeUpPin This parameter can be one of the following values:
 836:external/drivers/stm32wlxx/include/stm32wlxx_ll_pwr.h ****   *         @arg @ref LL_PWR_WAKEUP_PIN1
 837:external/drivers/stm32wlxx/include/stm32wlxx_ll_pwr.h ****   *         @arg @ref LL_PWR_WAKEUP_PIN2
 838:external/drivers/stm32wlxx/include/stm32wlxx_ll_pwr.h ****   *         @arg @ref LL_PWR_WAKEUP_PIN3
 839:external/drivers/stm32wlxx/include/stm32wlxx_ll_pwr.h ****   * @retval State of bit (1 or 0).
 840:external/drivers/stm32wlxx/include/stm32wlxx_ll_pwr.h ****   */
 841:external/drivers/stm32wlxx/include/stm32wlxx_ll_pwr.h **** __STATIC_INLINE uint32_t LL_PWR_IsEnabledWakeUpPin(uint32_t WakeUpPin)
 842:external/drivers/stm32wlxx/include/stm32wlxx_ll_pwr.h **** {
 843:external/drivers/stm32wlxx/include/stm32wlxx_ll_pwr.h ****   return ((READ_BIT(PWR->CR3, WakeUpPin) == (WakeUpPin)) ? 1UL : 0UL);
 844:external/drivers/stm32wlxx/include/stm32wlxx_ll_pwr.h **** }
 845:external/drivers/stm32wlxx/include/stm32wlxx_ll_pwr.h **** 
 846:external/drivers/stm32wlxx/include/stm32wlxx_ll_pwr.h **** /**
 847:external/drivers/stm32wlxx/include/stm32wlxx_ll_pwr.h ****   * @brief  Set the resistor impedance
 848:external/drivers/stm32wlxx/include/stm32wlxx_ll_pwr.h ****   * @rmtoll CR4          VBRS          LL_PWR_SetBattChargResistor
 849:external/drivers/stm32wlxx/include/stm32wlxx_ll_pwr.h ****   * @param  Resistor This parameter can be one of the following values:
 850:external/drivers/stm32wlxx/include/stm32wlxx_ll_pwr.h ****   *         @arg @ref LL_PWR_BATT_CHARG_RESISTOR_5K
 851:external/drivers/stm32wlxx/include/stm32wlxx_ll_pwr.h ****   *         @arg @ref LL_PWR_BATT_CHARGRESISTOR_1_5K
 852:external/drivers/stm32wlxx/include/stm32wlxx_ll_pwr.h ****   * @retval None
 853:external/drivers/stm32wlxx/include/stm32wlxx_ll_pwr.h ****   */
 854:external/drivers/stm32wlxx/include/stm32wlxx_ll_pwr.h **** __STATIC_INLINE void LL_PWR_SetBattChargResistor(uint32_t Resistor)
 855:external/drivers/stm32wlxx/include/stm32wlxx_ll_pwr.h **** {
 856:external/drivers/stm32wlxx/include/stm32wlxx_ll_pwr.h ****   MODIFY_REG(PWR->CR4, PWR_CR4_VBRS, Resistor);
 857:external/drivers/stm32wlxx/include/stm32wlxx_ll_pwr.h **** }
 858:external/drivers/stm32wlxx/include/stm32wlxx_ll_pwr.h **** 
 859:external/drivers/stm32wlxx/include/stm32wlxx_ll_pwr.h **** /**
 860:external/drivers/stm32wlxx/include/stm32wlxx_ll_pwr.h ****   * @brief  Get the resistor impedance
 861:external/drivers/stm32wlxx/include/stm32wlxx_ll_pwr.h ****   * @rmtoll CR4          VBRS          LL_PWR_GetBattChargResistor
 862:external/drivers/stm32wlxx/include/stm32wlxx_ll_pwr.h ****   * @retval Returned value can be one of the following values:
 863:external/drivers/stm32wlxx/include/stm32wlxx_ll_pwr.h ****   *         @arg @ref LL_PWR_BATT_CHARG_RESISTOR_5K
 864:external/drivers/stm32wlxx/include/stm32wlxx_ll_pwr.h ****   *         @arg @ref LL_PWR_BATT_CHARGRESISTOR_1_5K
 865:external/drivers/stm32wlxx/include/stm32wlxx_ll_pwr.h ****   */
 866:external/drivers/stm32wlxx/include/stm32wlxx_ll_pwr.h **** __STATIC_INLINE uint32_t LL_PWR_GetBattChargResistor(void)
 867:external/drivers/stm32wlxx/include/stm32wlxx_ll_pwr.h **** {
 868:external/drivers/stm32wlxx/include/stm32wlxx_ll_pwr.h ****   return (uint32_t)(READ_BIT(PWR->CR4, PWR_CR4_VBRS));
 869:external/drivers/stm32wlxx/include/stm32wlxx_ll_pwr.h **** }
 870:external/drivers/stm32wlxx/include/stm32wlxx_ll_pwr.h **** 
 871:external/drivers/stm32wlxx/include/stm32wlxx_ll_pwr.h **** /**
 872:external/drivers/stm32wlxx/include/stm32wlxx_ll_pwr.h ****   * @brief  Enable battery charging
 873:external/drivers/stm32wlxx/include/stm32wlxx_ll_pwr.h ****   * @rmtoll CR4          VBE           LL_PWR_EnableBatteryCharging
 874:external/drivers/stm32wlxx/include/stm32wlxx_ll_pwr.h ****   * @retval None
 875:external/drivers/stm32wlxx/include/stm32wlxx_ll_pwr.h ****   */
 876:external/drivers/stm32wlxx/include/stm32wlxx_ll_pwr.h **** __STATIC_INLINE void LL_PWR_EnableBatteryCharging(void)
 877:external/drivers/stm32wlxx/include/stm32wlxx_ll_pwr.h **** {
 878:external/drivers/stm32wlxx/include/stm32wlxx_ll_pwr.h ****   SET_BIT(PWR->CR4, PWR_CR4_VBE);
 879:external/drivers/stm32wlxx/include/stm32wlxx_ll_pwr.h **** }
 880:external/drivers/stm32wlxx/include/stm32wlxx_ll_pwr.h **** 
 881:external/drivers/stm32wlxx/include/stm32wlxx_ll_pwr.h **** /**
ARM GAS  /tmp/ccEyuVux.s 			page 26


 882:external/drivers/stm32wlxx/include/stm32wlxx_ll_pwr.h ****   * @brief  Disable battery charging
 883:external/drivers/stm32wlxx/include/stm32wlxx_ll_pwr.h ****   * @rmtoll CR4          VBE           LL_PWR_DisableBatteryCharging
 884:external/drivers/stm32wlxx/include/stm32wlxx_ll_pwr.h ****   * @retval None
 885:external/drivers/stm32wlxx/include/stm32wlxx_ll_pwr.h ****   */
 886:external/drivers/stm32wlxx/include/stm32wlxx_ll_pwr.h **** __STATIC_INLINE void LL_PWR_DisableBatteryCharging(void)
 887:external/drivers/stm32wlxx/include/stm32wlxx_ll_pwr.h **** {
 888:external/drivers/stm32wlxx/include/stm32wlxx_ll_pwr.h ****   CLEAR_BIT(PWR->CR4, PWR_CR4_VBE);
 889:external/drivers/stm32wlxx/include/stm32wlxx_ll_pwr.h **** }
 890:external/drivers/stm32wlxx/include/stm32wlxx_ll_pwr.h **** 
 891:external/drivers/stm32wlxx/include/stm32wlxx_ll_pwr.h **** /**
 892:external/drivers/stm32wlxx/include/stm32wlxx_ll_pwr.h ****   * @brief  Check if battery charging is enabled
 893:external/drivers/stm32wlxx/include/stm32wlxx_ll_pwr.h ****   * @rmtoll CR4          VBE           LL_PWR_IsEnabledBatteryCharging
 894:external/drivers/stm32wlxx/include/stm32wlxx_ll_pwr.h ****   * @retval State of bit (1 or 0).
 895:external/drivers/stm32wlxx/include/stm32wlxx_ll_pwr.h ****   */
 896:external/drivers/stm32wlxx/include/stm32wlxx_ll_pwr.h **** __STATIC_INLINE uint32_t LL_PWR_IsEnabledBatteryCharging(void)
 897:external/drivers/stm32wlxx/include/stm32wlxx_ll_pwr.h **** {
 898:external/drivers/stm32wlxx/include/stm32wlxx_ll_pwr.h ****   return ((READ_BIT(PWR->CR4, PWR_CR4_VBE) == (PWR_CR4_VBE)) ? 1UL : 0UL);
 899:external/drivers/stm32wlxx/include/stm32wlxx_ll_pwr.h **** }
 900:external/drivers/stm32wlxx/include/stm32wlxx_ll_pwr.h **** 
 901:external/drivers/stm32wlxx/include/stm32wlxx_ll_pwr.h **** /**
 902:external/drivers/stm32wlxx/include/stm32wlxx_ll_pwr.h ****   * @brief  Set the Wake-Up pin polarity low for the event detection
 903:external/drivers/stm32wlxx/include/stm32wlxx_ll_pwr.h ****   * @rmtoll CR4          WP1           LL_PWR_SetWakeUpPinPolarityLow\n
 904:external/drivers/stm32wlxx/include/stm32wlxx_ll_pwr.h ****   *         CR4          WP2           LL_PWR_SetWakeUpPinPolarityLow\n
 905:external/drivers/stm32wlxx/include/stm32wlxx_ll_pwr.h ****   *         CR4          WP3           LL_PWR_SetWakeUpPinPolarityLow
 906:external/drivers/stm32wlxx/include/stm32wlxx_ll_pwr.h ****   * @param  WakeUpPin This parameter can be one of the following values:
 907:external/drivers/stm32wlxx/include/stm32wlxx_ll_pwr.h ****   *         @arg @ref LL_PWR_WAKEUP_PIN1
 908:external/drivers/stm32wlxx/include/stm32wlxx_ll_pwr.h ****   *         @arg @ref LL_PWR_WAKEUP_PIN2
 909:external/drivers/stm32wlxx/include/stm32wlxx_ll_pwr.h ****   *         @arg @ref LL_PWR_WAKEUP_PIN3
 910:external/drivers/stm32wlxx/include/stm32wlxx_ll_pwr.h ****   * @retval None
 911:external/drivers/stm32wlxx/include/stm32wlxx_ll_pwr.h ****   */
 912:external/drivers/stm32wlxx/include/stm32wlxx_ll_pwr.h **** __STATIC_INLINE void LL_PWR_SetWakeUpPinPolarityLow(uint32_t WakeUpPin)
 913:external/drivers/stm32wlxx/include/stm32wlxx_ll_pwr.h **** {
 914:external/drivers/stm32wlxx/include/stm32wlxx_ll_pwr.h ****   SET_BIT(PWR->CR4, WakeUpPin);
 915:external/drivers/stm32wlxx/include/stm32wlxx_ll_pwr.h **** }
 916:external/drivers/stm32wlxx/include/stm32wlxx_ll_pwr.h **** 
 917:external/drivers/stm32wlxx/include/stm32wlxx_ll_pwr.h **** /**
 918:external/drivers/stm32wlxx/include/stm32wlxx_ll_pwr.h ****   * @brief  Set the Wake-Up pin polarity high for the event detection
 919:external/drivers/stm32wlxx/include/stm32wlxx_ll_pwr.h ****   * @rmtoll CR4          WP1           LL_PWR_SetWakeUpPinPolarityHigh\n
 920:external/drivers/stm32wlxx/include/stm32wlxx_ll_pwr.h ****   *         CR4          WP2           LL_PWR_SetWakeUpPinPolarityHigh\n
 921:external/drivers/stm32wlxx/include/stm32wlxx_ll_pwr.h ****   *         CR4          WP3           LL_PWR_SetWakeUpPinPolarityHigh
 922:external/drivers/stm32wlxx/include/stm32wlxx_ll_pwr.h ****   * @param  WakeUpPin This parameter can be one of the following values:
 923:external/drivers/stm32wlxx/include/stm32wlxx_ll_pwr.h ****   *         @arg @ref LL_PWR_WAKEUP_PIN1
 924:external/drivers/stm32wlxx/include/stm32wlxx_ll_pwr.h ****   *         @arg @ref LL_PWR_WAKEUP_PIN2
 925:external/drivers/stm32wlxx/include/stm32wlxx_ll_pwr.h ****   *         @arg @ref LL_PWR_WAKEUP_PIN3
 926:external/drivers/stm32wlxx/include/stm32wlxx_ll_pwr.h ****   * @retval None
 927:external/drivers/stm32wlxx/include/stm32wlxx_ll_pwr.h ****   */
 928:external/drivers/stm32wlxx/include/stm32wlxx_ll_pwr.h **** __STATIC_INLINE void LL_PWR_SetWakeUpPinPolarityHigh(uint32_t WakeUpPin)
 929:external/drivers/stm32wlxx/include/stm32wlxx_ll_pwr.h **** {
 930:external/drivers/stm32wlxx/include/stm32wlxx_ll_pwr.h ****   CLEAR_BIT(PWR->CR4, WakeUpPin);
 931:external/drivers/stm32wlxx/include/stm32wlxx_ll_pwr.h **** }
 932:external/drivers/stm32wlxx/include/stm32wlxx_ll_pwr.h **** 
 933:external/drivers/stm32wlxx/include/stm32wlxx_ll_pwr.h **** /**
 934:external/drivers/stm32wlxx/include/stm32wlxx_ll_pwr.h ****   * @brief  Get the Wake-Up pin polarity for the event detection
 935:external/drivers/stm32wlxx/include/stm32wlxx_ll_pwr.h ****   * @rmtoll CR4          WP1           LL_PWR_IsWakeUpPinPolarityLow\n
 936:external/drivers/stm32wlxx/include/stm32wlxx_ll_pwr.h ****   *         CR4          WP2           LL_PWR_IsWakeUpPinPolarityLow\n
 937:external/drivers/stm32wlxx/include/stm32wlxx_ll_pwr.h ****   *         CR4          WP3           LL_PWR_IsWakeUpPinPolarityLow
 938:external/drivers/stm32wlxx/include/stm32wlxx_ll_pwr.h ****   * @param  WakeUpPin This parameter can be one of the following values:
ARM GAS  /tmp/ccEyuVux.s 			page 27


 939:external/drivers/stm32wlxx/include/stm32wlxx_ll_pwr.h ****   *         @arg @ref LL_PWR_WAKEUP_PIN1
 940:external/drivers/stm32wlxx/include/stm32wlxx_ll_pwr.h ****   *         @arg @ref LL_PWR_WAKEUP_PIN2
 941:external/drivers/stm32wlxx/include/stm32wlxx_ll_pwr.h ****   *         @arg @ref LL_PWR_WAKEUP_PIN3
 942:external/drivers/stm32wlxx/include/stm32wlxx_ll_pwr.h ****   * @retval State of bit (1 or 0).
 943:external/drivers/stm32wlxx/include/stm32wlxx_ll_pwr.h ****   */
 944:external/drivers/stm32wlxx/include/stm32wlxx_ll_pwr.h **** __STATIC_INLINE uint32_t LL_PWR_IsWakeUpPinPolarityLow(uint32_t WakeUpPin)
 945:external/drivers/stm32wlxx/include/stm32wlxx_ll_pwr.h **** {
 946:external/drivers/stm32wlxx/include/stm32wlxx_ll_pwr.h ****   return ((READ_BIT(PWR->CR4, WakeUpPin) == (WakeUpPin)) ? 1UL : 0UL);
 947:external/drivers/stm32wlxx/include/stm32wlxx_ll_pwr.h **** }
 948:external/drivers/stm32wlxx/include/stm32wlxx_ll_pwr.h **** 
 949:external/drivers/stm32wlxx/include/stm32wlxx_ll_pwr.h **** /**
 950:external/drivers/stm32wlxx/include/stm32wlxx_ll_pwr.h ****   * @brief  Enable GPIO pull-up state in Standby and Shutdown modes
 951:external/drivers/stm32wlxx/include/stm32wlxx_ll_pwr.h ****   * @note   Some pins are not configurable for pulling in Standby and Shutdown
 952:external/drivers/stm32wlxx/include/stm32wlxx_ll_pwr.h ****   *         modes. Refer to reference manual for available pins and ports.
 953:external/drivers/stm32wlxx/include/stm32wlxx_ll_pwr.h ****   * @rmtoll PUCRA        PU0-15        LL_PWR_EnableGPIOPullUp\n
 954:external/drivers/stm32wlxx/include/stm32wlxx_ll_pwr.h ****   *         PUCRB        PU0-15        LL_PWR_EnableGPIOPullUp\n
 955:external/drivers/stm32wlxx/include/stm32wlxx_ll_pwr.h ****   *         PUCRC        PU0-15        LL_PWR_EnableGPIOPullUp\n
 956:external/drivers/stm32wlxx/include/stm32wlxx_ll_pwr.h ****   *         PUCRH        PU0-15        LL_PWR_EnableGPIOPullUp
 957:external/drivers/stm32wlxx/include/stm32wlxx_ll_pwr.h ****   * @param  GPIO This parameter can be one of the following values:
 958:external/drivers/stm32wlxx/include/stm32wlxx_ll_pwr.h ****   *         @arg @ref LL_PWR_GPIO_A
 959:external/drivers/stm32wlxx/include/stm32wlxx_ll_pwr.h ****   *         @arg @ref LL_PWR_GPIO_B
 960:external/drivers/stm32wlxx/include/stm32wlxx_ll_pwr.h ****   *         @arg @ref LL_PWR_GPIO_C
 961:external/drivers/stm32wlxx/include/stm32wlxx_ll_pwr.h ****   *         @arg @ref LL_PWR_GPIO_H
 962:external/drivers/stm32wlxx/include/stm32wlxx_ll_pwr.h ****   * @param  GPIONumber This parameter can be one of the following values:
 963:external/drivers/stm32wlxx/include/stm32wlxx_ll_pwr.h ****   *         @arg @ref LL_PWR_GPIO_BIT_0
 964:external/drivers/stm32wlxx/include/stm32wlxx_ll_pwr.h ****   *         @arg @ref LL_PWR_GPIO_BIT_1
 965:external/drivers/stm32wlxx/include/stm32wlxx_ll_pwr.h ****   *         @arg @ref LL_PWR_GPIO_BIT_2
 966:external/drivers/stm32wlxx/include/stm32wlxx_ll_pwr.h ****   *         @arg @ref LL_PWR_GPIO_BIT_3
 967:external/drivers/stm32wlxx/include/stm32wlxx_ll_pwr.h ****   *         @arg @ref LL_PWR_GPIO_BIT_4
 968:external/drivers/stm32wlxx/include/stm32wlxx_ll_pwr.h ****   *         @arg @ref LL_PWR_GPIO_BIT_5
 969:external/drivers/stm32wlxx/include/stm32wlxx_ll_pwr.h ****   *         @arg @ref LL_PWR_GPIO_BIT_6
 970:external/drivers/stm32wlxx/include/stm32wlxx_ll_pwr.h ****   *         @arg @ref LL_PWR_GPIO_BIT_7
 971:external/drivers/stm32wlxx/include/stm32wlxx_ll_pwr.h ****   *         @arg @ref LL_PWR_GPIO_BIT_8
 972:external/drivers/stm32wlxx/include/stm32wlxx_ll_pwr.h ****   *         @arg @ref LL_PWR_GPIO_BIT_9
 973:external/drivers/stm32wlxx/include/stm32wlxx_ll_pwr.h ****   *         @arg @ref LL_PWR_GPIO_BIT_10
 974:external/drivers/stm32wlxx/include/stm32wlxx_ll_pwr.h ****   *         @arg @ref LL_PWR_GPIO_BIT_11
 975:external/drivers/stm32wlxx/include/stm32wlxx_ll_pwr.h ****   *         @arg @ref LL_PWR_GPIO_BIT_12
 976:external/drivers/stm32wlxx/include/stm32wlxx_ll_pwr.h ****   *         @arg @ref LL_PWR_GPIO_BIT_13
 977:external/drivers/stm32wlxx/include/stm32wlxx_ll_pwr.h ****   *         @arg @ref LL_PWR_GPIO_BIT_14
 978:external/drivers/stm32wlxx/include/stm32wlxx_ll_pwr.h ****   *         @arg @ref LL_PWR_GPIO_BIT_15
 979:external/drivers/stm32wlxx/include/stm32wlxx_ll_pwr.h ****   * @retval None
 980:external/drivers/stm32wlxx/include/stm32wlxx_ll_pwr.h ****   */
 981:external/drivers/stm32wlxx/include/stm32wlxx_ll_pwr.h **** __STATIC_INLINE void LL_PWR_EnableGPIOPullUp(uint32_t GPIO, uint32_t GPIONumber)
 982:external/drivers/stm32wlxx/include/stm32wlxx_ll_pwr.h **** {
 983:external/drivers/stm32wlxx/include/stm32wlxx_ll_pwr.h ****   SET_BIT(*((__IO uint32_t *)GPIO), GPIONumber);
 984:external/drivers/stm32wlxx/include/stm32wlxx_ll_pwr.h **** }
 985:external/drivers/stm32wlxx/include/stm32wlxx_ll_pwr.h **** 
 986:external/drivers/stm32wlxx/include/stm32wlxx_ll_pwr.h **** /**
 987:external/drivers/stm32wlxx/include/stm32wlxx_ll_pwr.h ****   * @brief  Disable GPIO pull-up state in Standby and Shutdown modes
 988:external/drivers/stm32wlxx/include/stm32wlxx_ll_pwr.h ****   * @note   Some pins are not configurable for pulling in Standby and Shutdown
 989:external/drivers/stm32wlxx/include/stm32wlxx_ll_pwr.h ****   *         modes. Refer to reference manual for available pins and ports.
 990:external/drivers/stm32wlxx/include/stm32wlxx_ll_pwr.h ****   * @rmtoll PUCRA        PU0-15        LL_PWR_DisableGPIOPullUp\n
 991:external/drivers/stm32wlxx/include/stm32wlxx_ll_pwr.h ****   *         PUCRB        PU0-15        LL_PWR_DisableGPIOPullUp\n
 992:external/drivers/stm32wlxx/include/stm32wlxx_ll_pwr.h ****   *         PUCRC        PU0-15        LL_PWR_DisableGPIOPullUp\n
 993:external/drivers/stm32wlxx/include/stm32wlxx_ll_pwr.h ****   *         PUCRH        PU0-15        LL_PWR_DisableGPIOPullUp
 994:external/drivers/stm32wlxx/include/stm32wlxx_ll_pwr.h ****   * @param  GPIO This parameter can be one of the following values:
 995:external/drivers/stm32wlxx/include/stm32wlxx_ll_pwr.h ****   *         @arg @ref LL_PWR_GPIO_A
ARM GAS  /tmp/ccEyuVux.s 			page 28


 996:external/drivers/stm32wlxx/include/stm32wlxx_ll_pwr.h ****   *         @arg @ref LL_PWR_GPIO_B
 997:external/drivers/stm32wlxx/include/stm32wlxx_ll_pwr.h ****   *         @arg @ref LL_PWR_GPIO_C
 998:external/drivers/stm32wlxx/include/stm32wlxx_ll_pwr.h ****   *         @arg @ref LL_PWR_GPIO_H
 999:external/drivers/stm32wlxx/include/stm32wlxx_ll_pwr.h ****   * @param  GPIONumber This parameter can be one of the following values:
1000:external/drivers/stm32wlxx/include/stm32wlxx_ll_pwr.h ****   *         @arg @ref LL_PWR_GPIO_BIT_0
1001:external/drivers/stm32wlxx/include/stm32wlxx_ll_pwr.h ****   *         @arg @ref LL_PWR_GPIO_BIT_1
1002:external/drivers/stm32wlxx/include/stm32wlxx_ll_pwr.h ****   *         @arg @ref LL_PWR_GPIO_BIT_2
1003:external/drivers/stm32wlxx/include/stm32wlxx_ll_pwr.h ****   *         @arg @ref LL_PWR_GPIO_BIT_3
1004:external/drivers/stm32wlxx/include/stm32wlxx_ll_pwr.h ****   *         @arg @ref LL_PWR_GPIO_BIT_4
1005:external/drivers/stm32wlxx/include/stm32wlxx_ll_pwr.h ****   *         @arg @ref LL_PWR_GPIO_BIT_5
1006:external/drivers/stm32wlxx/include/stm32wlxx_ll_pwr.h ****   *         @arg @ref LL_PWR_GPIO_BIT_6
1007:external/drivers/stm32wlxx/include/stm32wlxx_ll_pwr.h ****   *         @arg @ref LL_PWR_GPIO_BIT_7
1008:external/drivers/stm32wlxx/include/stm32wlxx_ll_pwr.h ****   *         @arg @ref LL_PWR_GPIO_BIT_8
1009:external/drivers/stm32wlxx/include/stm32wlxx_ll_pwr.h ****   *         @arg @ref LL_PWR_GPIO_BIT_9
1010:external/drivers/stm32wlxx/include/stm32wlxx_ll_pwr.h ****   *         @arg @ref LL_PWR_GPIO_BIT_10
1011:external/drivers/stm32wlxx/include/stm32wlxx_ll_pwr.h ****   *         @arg @ref LL_PWR_GPIO_BIT_11
1012:external/drivers/stm32wlxx/include/stm32wlxx_ll_pwr.h ****   *         @arg @ref LL_PWR_GPIO_BIT_12
1013:external/drivers/stm32wlxx/include/stm32wlxx_ll_pwr.h ****   *         @arg @ref LL_PWR_GPIO_BIT_13
1014:external/drivers/stm32wlxx/include/stm32wlxx_ll_pwr.h ****   *         @arg @ref LL_PWR_GPIO_BIT_14
1015:external/drivers/stm32wlxx/include/stm32wlxx_ll_pwr.h ****   *         @arg @ref LL_PWR_GPIO_BIT_15
1016:external/drivers/stm32wlxx/include/stm32wlxx_ll_pwr.h ****   * @retval None
1017:external/drivers/stm32wlxx/include/stm32wlxx_ll_pwr.h ****   */
1018:external/drivers/stm32wlxx/include/stm32wlxx_ll_pwr.h **** __STATIC_INLINE void LL_PWR_DisableGPIOPullUp(uint32_t GPIO, uint32_t GPIONumber)
1019:external/drivers/stm32wlxx/include/stm32wlxx_ll_pwr.h **** {
1020:external/drivers/stm32wlxx/include/stm32wlxx_ll_pwr.h ****   CLEAR_BIT(*((__IO uint32_t *)GPIO), GPIONumber);
1021:external/drivers/stm32wlxx/include/stm32wlxx_ll_pwr.h **** }
1022:external/drivers/stm32wlxx/include/stm32wlxx_ll_pwr.h **** 
1023:external/drivers/stm32wlxx/include/stm32wlxx_ll_pwr.h **** /**
1024:external/drivers/stm32wlxx/include/stm32wlxx_ll_pwr.h ****   * @brief  Check if GPIO pull-up state is enabled
1025:external/drivers/stm32wlxx/include/stm32wlxx_ll_pwr.h ****   * @rmtoll PUCRA        PU0-15        LL_PWR_IsEnabledGPIOPullUp\n
1026:external/drivers/stm32wlxx/include/stm32wlxx_ll_pwr.h ****   *         PUCRB        PU0-15        LL_PWR_IsEnabledGPIOPullUp\n
1027:external/drivers/stm32wlxx/include/stm32wlxx_ll_pwr.h ****   *         PUCRC        PU0-15        LL_PWR_IsEnabledGPIOPullUp\n
1028:external/drivers/stm32wlxx/include/stm32wlxx_ll_pwr.h ****   *         PUCRH        PU0-15        LL_PWR_IsEnabledGPIOPullUp
1029:external/drivers/stm32wlxx/include/stm32wlxx_ll_pwr.h ****   * @param  GPIO This parameter can be one of the following values:
1030:external/drivers/stm32wlxx/include/stm32wlxx_ll_pwr.h ****   *         @arg @ref LL_PWR_GPIO_A
1031:external/drivers/stm32wlxx/include/stm32wlxx_ll_pwr.h ****   *         @arg @ref LL_PWR_GPIO_B
1032:external/drivers/stm32wlxx/include/stm32wlxx_ll_pwr.h ****   *         @arg @ref LL_PWR_GPIO_C
1033:external/drivers/stm32wlxx/include/stm32wlxx_ll_pwr.h ****   *         @arg @ref LL_PWR_GPIO_H
1034:external/drivers/stm32wlxx/include/stm32wlxx_ll_pwr.h ****   * @param  GPIONumber This parameter can be one of the following values:
1035:external/drivers/stm32wlxx/include/stm32wlxx_ll_pwr.h ****   *         @arg @ref LL_PWR_GPIO_BIT_0
1036:external/drivers/stm32wlxx/include/stm32wlxx_ll_pwr.h ****   *         @arg @ref LL_PWR_GPIO_BIT_1
1037:external/drivers/stm32wlxx/include/stm32wlxx_ll_pwr.h ****   *         @arg @ref LL_PWR_GPIO_BIT_2
1038:external/drivers/stm32wlxx/include/stm32wlxx_ll_pwr.h ****   *         @arg @ref LL_PWR_GPIO_BIT_3
1039:external/drivers/stm32wlxx/include/stm32wlxx_ll_pwr.h ****   *         @arg @ref LL_PWR_GPIO_BIT_4
1040:external/drivers/stm32wlxx/include/stm32wlxx_ll_pwr.h ****   *         @arg @ref LL_PWR_GPIO_BIT_5
1041:external/drivers/stm32wlxx/include/stm32wlxx_ll_pwr.h ****   *         @arg @ref LL_PWR_GPIO_BIT_6
1042:external/drivers/stm32wlxx/include/stm32wlxx_ll_pwr.h ****   *         @arg @ref LL_PWR_GPIO_BIT_7
1043:external/drivers/stm32wlxx/include/stm32wlxx_ll_pwr.h ****   *         @arg @ref LL_PWR_GPIO_BIT_8
1044:external/drivers/stm32wlxx/include/stm32wlxx_ll_pwr.h ****   *         @arg @ref LL_PWR_GPIO_BIT_9
1045:external/drivers/stm32wlxx/include/stm32wlxx_ll_pwr.h ****   *         @arg @ref LL_PWR_GPIO_BIT_10
1046:external/drivers/stm32wlxx/include/stm32wlxx_ll_pwr.h ****   *         @arg @ref LL_PWR_GPIO_BIT_11
1047:external/drivers/stm32wlxx/include/stm32wlxx_ll_pwr.h ****   *         @arg @ref LL_PWR_GPIO_BIT_12
1048:external/drivers/stm32wlxx/include/stm32wlxx_ll_pwr.h ****   *         @arg @ref LL_PWR_GPIO_BIT_13
1049:external/drivers/stm32wlxx/include/stm32wlxx_ll_pwr.h ****   *         @arg @ref LL_PWR_GPIO_BIT_14
1050:external/drivers/stm32wlxx/include/stm32wlxx_ll_pwr.h ****   *         @arg @ref LL_PWR_GPIO_BIT_15
1051:external/drivers/stm32wlxx/include/stm32wlxx_ll_pwr.h ****   * @retval State of bit (1 or 0).
1052:external/drivers/stm32wlxx/include/stm32wlxx_ll_pwr.h ****   */
ARM GAS  /tmp/ccEyuVux.s 			page 29


1053:external/drivers/stm32wlxx/include/stm32wlxx_ll_pwr.h **** __STATIC_INLINE uint32_t LL_PWR_IsEnabledGPIOPullUp(uint32_t GPIO, uint32_t GPIONumber)
1054:external/drivers/stm32wlxx/include/stm32wlxx_ll_pwr.h **** {
1055:external/drivers/stm32wlxx/include/stm32wlxx_ll_pwr.h ****   return ((READ_BIT(*((__IO uint32_t *)(GPIO)), GPIONumber) == (GPIONumber)) ? 1UL : 0UL);
1056:external/drivers/stm32wlxx/include/stm32wlxx_ll_pwr.h **** }
1057:external/drivers/stm32wlxx/include/stm32wlxx_ll_pwr.h **** 
1058:external/drivers/stm32wlxx/include/stm32wlxx_ll_pwr.h **** /**
1059:external/drivers/stm32wlxx/include/stm32wlxx_ll_pwr.h ****   * @brief  Enable GPIO pull-down state in Standby and Shutdown modes
1060:external/drivers/stm32wlxx/include/stm32wlxx_ll_pwr.h ****   * @note   Some pins are not configurable for pulling in Standby and Shutdown
1061:external/drivers/stm32wlxx/include/stm32wlxx_ll_pwr.h ****   *         modes. Refer to reference manual for available pins and ports.
1062:external/drivers/stm32wlxx/include/stm32wlxx_ll_pwr.h ****   * @rmtoll PDCRA        PD0-15        LL_PWR_EnableGPIOPullDown\n
1063:external/drivers/stm32wlxx/include/stm32wlxx_ll_pwr.h ****   *         PDCRB        PD0-15        LL_PWR_EnableGPIOPullDown\n
1064:external/drivers/stm32wlxx/include/stm32wlxx_ll_pwr.h ****   *         PDCRC        PD0-15        LL_PWR_EnableGPIOPullDown\n
1065:external/drivers/stm32wlxx/include/stm32wlxx_ll_pwr.h ****   *         PDCRH        PD0-15        LL_PWR_EnableGPIOPullDown
1066:external/drivers/stm32wlxx/include/stm32wlxx_ll_pwr.h ****   * @param  GPIO This parameter can be one of the following values:
1067:external/drivers/stm32wlxx/include/stm32wlxx_ll_pwr.h ****   *         @arg @ref LL_PWR_GPIO_A
1068:external/drivers/stm32wlxx/include/stm32wlxx_ll_pwr.h ****   *         @arg @ref LL_PWR_GPIO_B
1069:external/drivers/stm32wlxx/include/stm32wlxx_ll_pwr.h ****   *         @arg @ref LL_PWR_GPIO_C
1070:external/drivers/stm32wlxx/include/stm32wlxx_ll_pwr.h ****   *         @arg @ref LL_PWR_GPIO_H
1071:external/drivers/stm32wlxx/include/stm32wlxx_ll_pwr.h ****   * @param  GPIONumber This parameter can be one of the following values:
1072:external/drivers/stm32wlxx/include/stm32wlxx_ll_pwr.h ****   *         @arg @ref LL_PWR_GPIO_BIT_0
1073:external/drivers/stm32wlxx/include/stm32wlxx_ll_pwr.h ****   *         @arg @ref LL_PWR_GPIO_BIT_1
1074:external/drivers/stm32wlxx/include/stm32wlxx_ll_pwr.h ****   *         @arg @ref LL_PWR_GPIO_BIT_2
1075:external/drivers/stm32wlxx/include/stm32wlxx_ll_pwr.h ****   *         @arg @ref LL_PWR_GPIO_BIT_3
1076:external/drivers/stm32wlxx/include/stm32wlxx_ll_pwr.h ****   *         @arg @ref LL_PWR_GPIO_BIT_4
1077:external/drivers/stm32wlxx/include/stm32wlxx_ll_pwr.h ****   *         @arg @ref LL_PWR_GPIO_BIT_5
1078:external/drivers/stm32wlxx/include/stm32wlxx_ll_pwr.h ****   *         @arg @ref LL_PWR_GPIO_BIT_6
1079:external/drivers/stm32wlxx/include/stm32wlxx_ll_pwr.h ****   *         @arg @ref LL_PWR_GPIO_BIT_7
1080:external/drivers/stm32wlxx/include/stm32wlxx_ll_pwr.h ****   *         @arg @ref LL_PWR_GPIO_BIT_8
1081:external/drivers/stm32wlxx/include/stm32wlxx_ll_pwr.h ****   *         @arg @ref LL_PWR_GPIO_BIT_9
1082:external/drivers/stm32wlxx/include/stm32wlxx_ll_pwr.h ****   *         @arg @ref LL_PWR_GPIO_BIT_10
1083:external/drivers/stm32wlxx/include/stm32wlxx_ll_pwr.h ****   *         @arg @ref LL_PWR_GPIO_BIT_11
1084:external/drivers/stm32wlxx/include/stm32wlxx_ll_pwr.h ****   *         @arg @ref LL_PWR_GPIO_BIT_12
1085:external/drivers/stm32wlxx/include/stm32wlxx_ll_pwr.h ****   *         @arg @ref LL_PWR_GPIO_BIT_13
1086:external/drivers/stm32wlxx/include/stm32wlxx_ll_pwr.h ****   *         @arg @ref LL_PWR_GPIO_BIT_14
1087:external/drivers/stm32wlxx/include/stm32wlxx_ll_pwr.h ****   *         @arg @ref LL_PWR_GPIO_BIT_15
1088:external/drivers/stm32wlxx/include/stm32wlxx_ll_pwr.h ****   * @retval None
1089:external/drivers/stm32wlxx/include/stm32wlxx_ll_pwr.h ****   */
1090:external/drivers/stm32wlxx/include/stm32wlxx_ll_pwr.h **** __STATIC_INLINE void LL_PWR_EnableGPIOPullDown(uint32_t GPIO, uint32_t GPIONumber)
1091:external/drivers/stm32wlxx/include/stm32wlxx_ll_pwr.h **** {
1092:external/drivers/stm32wlxx/include/stm32wlxx_ll_pwr.h ****   SET_BIT(*((__IO uint32_t *)(GPIO + 4U)), GPIONumber);
1093:external/drivers/stm32wlxx/include/stm32wlxx_ll_pwr.h **** }
1094:external/drivers/stm32wlxx/include/stm32wlxx_ll_pwr.h **** 
1095:external/drivers/stm32wlxx/include/stm32wlxx_ll_pwr.h **** /**
1096:external/drivers/stm32wlxx/include/stm32wlxx_ll_pwr.h ****   * @brief  Disable GPIO pull-down state in Standby and Shutdown modes
1097:external/drivers/stm32wlxx/include/stm32wlxx_ll_pwr.h ****   * @note   Some pins are not configurable for pulling in Standby and Shutdown
1098:external/drivers/stm32wlxx/include/stm32wlxx_ll_pwr.h ****   *         modes. Refer to reference manual for available pins and ports.
1099:external/drivers/stm32wlxx/include/stm32wlxx_ll_pwr.h ****   * @rmtoll PDCRA        PD0-15        LL_PWR_DisableGPIOPullDown\n
1100:external/drivers/stm32wlxx/include/stm32wlxx_ll_pwr.h ****   *         PDCRB        PD0-15        LL_PWR_DisableGPIOPullDown\n
1101:external/drivers/stm32wlxx/include/stm32wlxx_ll_pwr.h ****   *         PDCRC        PD0-15        LL_PWR_DisableGPIOPullDown\n
1102:external/drivers/stm32wlxx/include/stm32wlxx_ll_pwr.h ****   *         PDCRH        PD0-15        LL_PWR_DisableGPIOPullDown
1103:external/drivers/stm32wlxx/include/stm32wlxx_ll_pwr.h ****   * @param  GPIO This parameter can be one of the following values:
1104:external/drivers/stm32wlxx/include/stm32wlxx_ll_pwr.h ****   *         @arg @ref LL_PWR_GPIO_A
1105:external/drivers/stm32wlxx/include/stm32wlxx_ll_pwr.h ****   *         @arg @ref LL_PWR_GPIO_B
1106:external/drivers/stm32wlxx/include/stm32wlxx_ll_pwr.h ****   *         @arg @ref LL_PWR_GPIO_C
1107:external/drivers/stm32wlxx/include/stm32wlxx_ll_pwr.h ****   *         @arg @ref LL_PWR_GPIO_H
1108:external/drivers/stm32wlxx/include/stm32wlxx_ll_pwr.h ****   * @param  GPIONumber This parameter can be one of the following values:
1109:external/drivers/stm32wlxx/include/stm32wlxx_ll_pwr.h ****   *         @arg @ref LL_PWR_GPIO_BIT_0
ARM GAS  /tmp/ccEyuVux.s 			page 30


1110:external/drivers/stm32wlxx/include/stm32wlxx_ll_pwr.h ****   *         @arg @ref LL_PWR_GPIO_BIT_1
1111:external/drivers/stm32wlxx/include/stm32wlxx_ll_pwr.h ****   *         @arg @ref LL_PWR_GPIO_BIT_2
1112:external/drivers/stm32wlxx/include/stm32wlxx_ll_pwr.h ****   *         @arg @ref LL_PWR_GPIO_BIT_3
1113:external/drivers/stm32wlxx/include/stm32wlxx_ll_pwr.h ****   *         @arg @ref LL_PWR_GPIO_BIT_4
1114:external/drivers/stm32wlxx/include/stm32wlxx_ll_pwr.h ****   *         @arg @ref LL_PWR_GPIO_BIT_5
1115:external/drivers/stm32wlxx/include/stm32wlxx_ll_pwr.h ****   *         @arg @ref LL_PWR_GPIO_BIT_6
1116:external/drivers/stm32wlxx/include/stm32wlxx_ll_pwr.h ****   *         @arg @ref LL_PWR_GPIO_BIT_7
1117:external/drivers/stm32wlxx/include/stm32wlxx_ll_pwr.h ****   *         @arg @ref LL_PWR_GPIO_BIT_8
1118:external/drivers/stm32wlxx/include/stm32wlxx_ll_pwr.h ****   *         @arg @ref LL_PWR_GPIO_BIT_9
1119:external/drivers/stm32wlxx/include/stm32wlxx_ll_pwr.h ****   *         @arg @ref LL_PWR_GPIO_BIT_10
1120:external/drivers/stm32wlxx/include/stm32wlxx_ll_pwr.h ****   *         @arg @ref LL_PWR_GPIO_BIT_11
1121:external/drivers/stm32wlxx/include/stm32wlxx_ll_pwr.h ****   *         @arg @ref LL_PWR_GPIO_BIT_12
1122:external/drivers/stm32wlxx/include/stm32wlxx_ll_pwr.h ****   *         @arg @ref LL_PWR_GPIO_BIT_13
1123:external/drivers/stm32wlxx/include/stm32wlxx_ll_pwr.h ****   *         @arg @ref LL_PWR_GPIO_BIT_14
1124:external/drivers/stm32wlxx/include/stm32wlxx_ll_pwr.h ****   *         @arg @ref LL_PWR_GPIO_BIT_15
1125:external/drivers/stm32wlxx/include/stm32wlxx_ll_pwr.h ****   * @retval None
1126:external/drivers/stm32wlxx/include/stm32wlxx_ll_pwr.h ****   */
1127:external/drivers/stm32wlxx/include/stm32wlxx_ll_pwr.h **** __STATIC_INLINE void LL_PWR_DisableGPIOPullDown(uint32_t GPIO, uint32_t GPIONumber)
1128:external/drivers/stm32wlxx/include/stm32wlxx_ll_pwr.h **** {
1129:external/drivers/stm32wlxx/include/stm32wlxx_ll_pwr.h ****   CLEAR_BIT(*((__IO uint32_t *)(GPIO + 4U)), GPIONumber);
1130:external/drivers/stm32wlxx/include/stm32wlxx_ll_pwr.h **** }
1131:external/drivers/stm32wlxx/include/stm32wlxx_ll_pwr.h **** 
1132:external/drivers/stm32wlxx/include/stm32wlxx_ll_pwr.h **** /**
1133:external/drivers/stm32wlxx/include/stm32wlxx_ll_pwr.h ****   * @brief  Check if GPIO pull-down state is enabled
1134:external/drivers/stm32wlxx/include/stm32wlxx_ll_pwr.h ****   * @rmtoll PDCRA        PD0-15        LL_PWR_IsEnabledGPIOPullDown\n
1135:external/drivers/stm32wlxx/include/stm32wlxx_ll_pwr.h ****   *         PDCRB        PD0-15        LL_PWR_IsEnabledGPIOPullDown\n
1136:external/drivers/stm32wlxx/include/stm32wlxx_ll_pwr.h ****   *         PDCRC        PD0-15        LL_PWR_IsEnabledGPIOPullDown\n
1137:external/drivers/stm32wlxx/include/stm32wlxx_ll_pwr.h ****   *         PDCRH        PD0-15        LL_PWR_IsEnabledGPIOPullDown
1138:external/drivers/stm32wlxx/include/stm32wlxx_ll_pwr.h ****   * @param  GPIO This parameter can be one of the following values:
1139:external/drivers/stm32wlxx/include/stm32wlxx_ll_pwr.h ****   *         @arg @ref LL_PWR_GPIO_A
1140:external/drivers/stm32wlxx/include/stm32wlxx_ll_pwr.h ****   *         @arg @ref LL_PWR_GPIO_B
1141:external/drivers/stm32wlxx/include/stm32wlxx_ll_pwr.h ****   *         @arg @ref LL_PWR_GPIO_C
1142:external/drivers/stm32wlxx/include/stm32wlxx_ll_pwr.h ****   *         @arg @ref LL_PWR_GPIO_H
1143:external/drivers/stm32wlxx/include/stm32wlxx_ll_pwr.h ****   * @param  GPIONumber This parameter can be one of the following values:
1144:external/drivers/stm32wlxx/include/stm32wlxx_ll_pwr.h ****   *         @arg @ref LL_PWR_GPIO_BIT_0
1145:external/drivers/stm32wlxx/include/stm32wlxx_ll_pwr.h ****   *         @arg @ref LL_PWR_GPIO_BIT_1
1146:external/drivers/stm32wlxx/include/stm32wlxx_ll_pwr.h ****   *         @arg @ref LL_PWR_GPIO_BIT_2
1147:external/drivers/stm32wlxx/include/stm32wlxx_ll_pwr.h ****   *         @arg @ref LL_PWR_GPIO_BIT_3
1148:external/drivers/stm32wlxx/include/stm32wlxx_ll_pwr.h ****   *         @arg @ref LL_PWR_GPIO_BIT_4
1149:external/drivers/stm32wlxx/include/stm32wlxx_ll_pwr.h ****   *         @arg @ref LL_PWR_GPIO_BIT_5
1150:external/drivers/stm32wlxx/include/stm32wlxx_ll_pwr.h ****   *         @arg @ref LL_PWR_GPIO_BIT_6
1151:external/drivers/stm32wlxx/include/stm32wlxx_ll_pwr.h ****   *         @arg @ref LL_PWR_GPIO_BIT_7
1152:external/drivers/stm32wlxx/include/stm32wlxx_ll_pwr.h ****   *         @arg @ref LL_PWR_GPIO_BIT_8
1153:external/drivers/stm32wlxx/include/stm32wlxx_ll_pwr.h ****   *         @arg @ref LL_PWR_GPIO_BIT_9
1154:external/drivers/stm32wlxx/include/stm32wlxx_ll_pwr.h ****   *         @arg @ref LL_PWR_GPIO_BIT_10
1155:external/drivers/stm32wlxx/include/stm32wlxx_ll_pwr.h ****   *         @arg @ref LL_PWR_GPIO_BIT_11
1156:external/drivers/stm32wlxx/include/stm32wlxx_ll_pwr.h ****   *         @arg @ref LL_PWR_GPIO_BIT_12
1157:external/drivers/stm32wlxx/include/stm32wlxx_ll_pwr.h ****   *         @arg @ref LL_PWR_GPIO_BIT_13
1158:external/drivers/stm32wlxx/include/stm32wlxx_ll_pwr.h ****   *         @arg @ref LL_PWR_GPIO_BIT_14
1159:external/drivers/stm32wlxx/include/stm32wlxx_ll_pwr.h ****   *         @arg @ref LL_PWR_GPIO_BIT_15
1160:external/drivers/stm32wlxx/include/stm32wlxx_ll_pwr.h ****   * @retval State of bit (1 or 0).
1161:external/drivers/stm32wlxx/include/stm32wlxx_ll_pwr.h ****   */
1162:external/drivers/stm32wlxx/include/stm32wlxx_ll_pwr.h **** __STATIC_INLINE uint32_t LL_PWR_IsEnabledGPIOPullDown(uint32_t GPIO, uint32_t GPIONumber)
1163:external/drivers/stm32wlxx/include/stm32wlxx_ll_pwr.h **** {
1164:external/drivers/stm32wlxx/include/stm32wlxx_ll_pwr.h ****   return ((READ_BIT(*((__IO uint32_t *)(GPIO + 4U)), GPIONumber) == (GPIONumber)) ? 1UL : 0UL);
1165:external/drivers/stm32wlxx/include/stm32wlxx_ll_pwr.h **** }
1166:external/drivers/stm32wlxx/include/stm32wlxx_ll_pwr.h **** 
ARM GAS  /tmp/ccEyuVux.s 			page 31


1167:external/drivers/stm32wlxx/include/stm32wlxx_ll_pwr.h **** /**
1168:external/drivers/stm32wlxx/include/stm32wlxx_ll_pwr.h ****   * @}
1169:external/drivers/stm32wlxx/include/stm32wlxx_ll_pwr.h ****   */
1170:external/drivers/stm32wlxx/include/stm32wlxx_ll_pwr.h **** 
1171:external/drivers/stm32wlxx/include/stm32wlxx_ll_pwr.h **** /** @defgroup PWR_LL_EF_Configuration_SMPS Configuration of SMPS
1172:external/drivers/stm32wlxx/include/stm32wlxx_ll_pwr.h ****   * @{
1173:external/drivers/stm32wlxx/include/stm32wlxx_ll_pwr.h ****   */
1174:external/drivers/stm32wlxx/include/stm32wlxx_ll_pwr.h **** 
1175:external/drivers/stm32wlxx/include/stm32wlxx_ll_pwr.h **** /**
1176:external/drivers/stm32wlxx/include/stm32wlxx_ll_pwr.h ****   * @brief  Set SMPS operating mode
1177:external/drivers/stm32wlxx/include/stm32wlxx_ll_pwr.h ****   * @note   In case of a board without SMPS coil mounted, SMPS should not be activated.
1178:external/drivers/stm32wlxx/include/stm32wlxx_ll_pwr.h ****   * @rmtoll CR5          SMPSEN        LL_PWR_SMPS_SetMode
1179:external/drivers/stm32wlxx/include/stm32wlxx_ll_pwr.h ****   * @param  OperatingMode This parameter can be one of the following values:
1180:external/drivers/stm32wlxx/include/stm32wlxx_ll_pwr.h ****   *         @arg @ref LL_PWR_SMPS_BYPASS
1181:external/drivers/stm32wlxx/include/stm32wlxx_ll_pwr.h ****   *         @arg @ref LL_PWR_SMPS_STEP_DOWN
1182:external/drivers/stm32wlxx/include/stm32wlxx_ll_pwr.h ****   * @retval None
1183:external/drivers/stm32wlxx/include/stm32wlxx_ll_pwr.h ****   */
1184:external/drivers/stm32wlxx/include/stm32wlxx_ll_pwr.h **** __STATIC_INLINE void LL_PWR_SMPS_SetMode(uint32_t OperatingMode)
1185:external/drivers/stm32wlxx/include/stm32wlxx_ll_pwr.h **** {
1186:external/drivers/stm32wlxx/include/stm32wlxx_ll_pwr.h ****   MODIFY_REG(PWR->CR5, PWR_CR5_SMPSEN, OperatingMode);
1187:external/drivers/stm32wlxx/include/stm32wlxx_ll_pwr.h **** }
1188:external/drivers/stm32wlxx/include/stm32wlxx_ll_pwr.h **** 
1189:external/drivers/stm32wlxx/include/stm32wlxx_ll_pwr.h **** /**
1190:external/drivers/stm32wlxx/include/stm32wlxx_ll_pwr.h ****   * @brief  Get SMPS operating mode
1191:external/drivers/stm32wlxx/include/stm32wlxx_ll_pwr.h ****   * @rmtoll CR5          SMPSEN        LL_PWR_SMPS_GetMode
1192:external/drivers/stm32wlxx/include/stm32wlxx_ll_pwr.h ****   * @retval Returned value can be one of the following values:
1193:external/drivers/stm32wlxx/include/stm32wlxx_ll_pwr.h ****   *         @arg @ref LL_PWR_SMPS_BYPASS
1194:external/drivers/stm32wlxx/include/stm32wlxx_ll_pwr.h ****   *         @arg @ref LL_PWR_SMPS_STEP_DOWN
1195:external/drivers/stm32wlxx/include/stm32wlxx_ll_pwr.h ****   */
1196:external/drivers/stm32wlxx/include/stm32wlxx_ll_pwr.h **** __STATIC_INLINE uint32_t LL_PWR_SMPS_GetMode(void)
1197:external/drivers/stm32wlxx/include/stm32wlxx_ll_pwr.h **** {
1198:external/drivers/stm32wlxx/include/stm32wlxx_ll_pwr.h ****   return (uint32_t)(READ_BIT(PWR->CR5, PWR_CR5_SMPSEN));
1199:external/drivers/stm32wlxx/include/stm32wlxx_ll_pwr.h **** }
1200:external/drivers/stm32wlxx/include/stm32wlxx_ll_pwr.h **** 
1201:external/drivers/stm32wlxx/include/stm32wlxx_ll_pwr.h **** /**
1202:external/drivers/stm32wlxx/include/stm32wlxx_ll_pwr.h ****   * @brief  Get SMPS effective operating mode
1203:external/drivers/stm32wlxx/include/stm32wlxx_ll_pwr.h ****   * @note   SMPS operating mode can be changed by hardware, therefore
1204:external/drivers/stm32wlxx/include/stm32wlxx_ll_pwr.h ****   *         requested operating mode can differ from effective low power mode.
1205:external/drivers/stm32wlxx/include/stm32wlxx_ll_pwr.h ****   *         - dependency SubGhz Radio IP: can switch SMPS on for radio activity.
1206:external/drivers/stm32wlxx/include/stm32wlxx_ll_pwr.h ****   * @note   In case of a board without SMPS coil mounted, SMPS should not be activated
1207:external/drivers/stm32wlxx/include/stm32wlxx_ll_pwr.h ****   *         and this function is not relevant.
1208:external/drivers/stm32wlxx/include/stm32wlxx_ll_pwr.h ****   * @rmtoll SR2          SMPSRDY       LL_PWR_SMPS_GetEffectiveMode
1209:external/drivers/stm32wlxx/include/stm32wlxx_ll_pwr.h ****   * @retval Returned value can be one of the following values:
1210:external/drivers/stm32wlxx/include/stm32wlxx_ll_pwr.h ****   *         @arg @ref LL_PWR_SMPS_BYPASS
1211:external/drivers/stm32wlxx/include/stm32wlxx_ll_pwr.h ****   *         @arg @ref LL_PWR_SMPS_STEP_DOWN
1212:external/drivers/stm32wlxx/include/stm32wlxx_ll_pwr.h ****   */
1213:external/drivers/stm32wlxx/include/stm32wlxx_ll_pwr.h **** __STATIC_INLINE uint32_t LL_PWR_SMPS_GetEffectiveMode(void)
1214:external/drivers/stm32wlxx/include/stm32wlxx_ll_pwr.h **** {
1215:external/drivers/stm32wlxx/include/stm32wlxx_ll_pwr.h ****   /* Return a value corresponding to definition of literals                   */
1216:external/drivers/stm32wlxx/include/stm32wlxx_ll_pwr.h ****   /* LL_PWR_SMPS_BYPASS or LL_PWR_SMPS_STEP_DOWN.                             */
1217:external/drivers/stm32wlxx/include/stm32wlxx_ll_pwr.h ****   return (uint32_t)(READ_BIT(PWR->SR2, PWR_SR2_SMPSRDY) << (PWR_CR5_SMPSEN_Pos - PWR_SR2_SMPSRDY_Po
1218:external/drivers/stm32wlxx/include/stm32wlxx_ll_pwr.h **** }
1219:external/drivers/stm32wlxx/include/stm32wlxx_ll_pwr.h **** 
1220:external/drivers/stm32wlxx/include/stm32wlxx_ll_pwr.h **** /**
1221:external/drivers/stm32wlxx/include/stm32wlxx_ll_pwr.h ****   * @brief  SMPS step down converter enable
1222:external/drivers/stm32wlxx/include/stm32wlxx_ll_pwr.h ****   * @note   This function can be used for specific usage of the SMPS,
1223:external/drivers/stm32wlxx/include/stm32wlxx_ll_pwr.h ****   *         for general usage of the SMPS the function
ARM GAS  /tmp/ccEyuVux.s 			page 32


1224:external/drivers/stm32wlxx/include/stm32wlxx_ll_pwr.h ****   *         @ref LL_PWR_SMPS_SetMode() should be used instead.
1225:external/drivers/stm32wlxx/include/stm32wlxx_ll_pwr.h ****   * @rmtoll CR5          SMPSEN        LL_PWR_SMPS_Enable
1226:external/drivers/stm32wlxx/include/stm32wlxx_ll_pwr.h ****   * @retval None
1227:external/drivers/stm32wlxx/include/stm32wlxx_ll_pwr.h ****   */
1228:external/drivers/stm32wlxx/include/stm32wlxx_ll_pwr.h **** __STATIC_INLINE void LL_PWR_SMPS_Enable(void)
1229:external/drivers/stm32wlxx/include/stm32wlxx_ll_pwr.h **** {
1230:external/drivers/stm32wlxx/include/stm32wlxx_ll_pwr.h ****   SET_BIT(PWR->CR5, PWR_CR5_SMPSEN);
1231:external/drivers/stm32wlxx/include/stm32wlxx_ll_pwr.h **** }
1232:external/drivers/stm32wlxx/include/stm32wlxx_ll_pwr.h **** 
1233:external/drivers/stm32wlxx/include/stm32wlxx_ll_pwr.h **** /**
1234:external/drivers/stm32wlxx/include/stm32wlxx_ll_pwr.h ****   * @brief  SMPS step down converter enable
1235:external/drivers/stm32wlxx/include/stm32wlxx_ll_pwr.h ****   * @note   This function can be used for specific usage of the SMPS,
1236:external/drivers/stm32wlxx/include/stm32wlxx_ll_pwr.h ****   *         for general usage of the SMPS the function
1237:external/drivers/stm32wlxx/include/stm32wlxx_ll_pwr.h ****   *         @ref LL_PWR_SMPS_SetMode() should be used instead.
1238:external/drivers/stm32wlxx/include/stm32wlxx_ll_pwr.h ****   * @rmtoll CR5          SMPSEN        LL_PWR_SMPS_Disable
1239:external/drivers/stm32wlxx/include/stm32wlxx_ll_pwr.h ****   * @retval None
1240:external/drivers/stm32wlxx/include/stm32wlxx_ll_pwr.h ****   */
1241:external/drivers/stm32wlxx/include/stm32wlxx_ll_pwr.h **** __STATIC_INLINE void LL_PWR_SMPS_Disable(void)
1242:external/drivers/stm32wlxx/include/stm32wlxx_ll_pwr.h **** {
1243:external/drivers/stm32wlxx/include/stm32wlxx_ll_pwr.h ****   CLEAR_BIT(PWR->CR5, PWR_CR5_SMPSEN);
1244:external/drivers/stm32wlxx/include/stm32wlxx_ll_pwr.h **** }
1245:external/drivers/stm32wlxx/include/stm32wlxx_ll_pwr.h **** 
1246:external/drivers/stm32wlxx/include/stm32wlxx_ll_pwr.h **** /**
1247:external/drivers/stm32wlxx/include/stm32wlxx_ll_pwr.h ****   * @brief  Check if the SMPS step down converter is enabled
1248:external/drivers/stm32wlxx/include/stm32wlxx_ll_pwr.h ****   * @rmtoll CR5          SMPSEN        LL_PWR_SMPS_IsEnabled
1249:external/drivers/stm32wlxx/include/stm32wlxx_ll_pwr.h ****   * @retval State of bit (1 or 0).
1250:external/drivers/stm32wlxx/include/stm32wlxx_ll_pwr.h ****   */
1251:external/drivers/stm32wlxx/include/stm32wlxx_ll_pwr.h **** __STATIC_INLINE uint32_t LL_PWR_SMPS_IsEnabled(void)
1252:external/drivers/stm32wlxx/include/stm32wlxx_ll_pwr.h **** {
1253:external/drivers/stm32wlxx/include/stm32wlxx_ll_pwr.h ****   return ((READ_BIT(PWR->CR5, PWR_CR5_SMPSEN) == (PWR_CR5_SMPSEN)) ? 1UL : 0UL);
1254:external/drivers/stm32wlxx/include/stm32wlxx_ll_pwr.h **** }
1255:external/drivers/stm32wlxx/include/stm32wlxx_ll_pwr.h **** 
1256:external/drivers/stm32wlxx/include/stm32wlxx_ll_pwr.h **** /**
1257:external/drivers/stm32wlxx/include/stm32wlxx_ll_pwr.h ****   * @}
1258:external/drivers/stm32wlxx/include/stm32wlxx_ll_pwr.h ****   */
1259:external/drivers/stm32wlxx/include/stm32wlxx_ll_pwr.h **** 
1260:external/drivers/stm32wlxx/include/stm32wlxx_ll_pwr.h **** /** @defgroup PWR_LL_EF_Configuration_Radio Configuration of radio
1261:external/drivers/stm32wlxx/include/stm32wlxx_ll_pwr.h ****   * @{
1262:external/drivers/stm32wlxx/include/stm32wlxx_ll_pwr.h ****   */
1263:external/drivers/stm32wlxx/include/stm32wlxx_ll_pwr.h **** 
1264:external/drivers/stm32wlxx/include/stm32wlxx_ll_pwr.h **** /**
1265:external/drivers/stm32wlxx/include/stm32wlxx_ll_pwr.h ****   * @brief  Set radio busy signal polarity
1266:external/drivers/stm32wlxx/include/stm32wlxx_ll_pwr.h ****   * @rmtoll CR4          RFBUSYP       LL_PWR_SetRadioBusyPolarity
1267:external/drivers/stm32wlxx/include/stm32wlxx_ll_pwr.h ****   * @param  RadioBusyPolarity This parameter can be one of the following values:
1268:external/drivers/stm32wlxx/include/stm32wlxx_ll_pwr.h ****   *         @arg @ref LL_PWR_RADIO_BUSY_POLARITY_RISING
1269:external/drivers/stm32wlxx/include/stm32wlxx_ll_pwr.h ****   *         @arg @ref LL_PWR_RADIO_BUSY_POLARITY_FALLING
1270:external/drivers/stm32wlxx/include/stm32wlxx_ll_pwr.h ****   * @retval None
1271:external/drivers/stm32wlxx/include/stm32wlxx_ll_pwr.h ****   */
1272:external/drivers/stm32wlxx/include/stm32wlxx_ll_pwr.h **** __STATIC_INLINE void LL_PWR_SetRadioBusyPolarity(uint32_t RadioBusyPolarity)
 316              		.loc 2 1272 22 view .LVU59
 317              	.LBB39:
1273:external/drivers/stm32wlxx/include/stm32wlxx_ll_pwr.h **** {
1274:external/drivers/stm32wlxx/include/stm32wlxx_ll_pwr.h ****   MODIFY_REG(PWR->CR4, PWR_CR4_WRFBUSYP, RadioBusyPolarity);
 318              		.loc 2 1274 3 view .LVU60
 319 0000 034A     		ldr	r2, .L29
 320 0002 D368     		ldr	r3, [r2, #12]
 321 0004 23F40063 		bic	r3, r3, #2048
ARM GAS  /tmp/ccEyuVux.s 			page 33


 322 0008 1843     		orrs	r0, r0, r3
 323              	.LVL15:
 324              		.loc 2 1274 3 is_stmt 0 view .LVU61
 325 000a D060     		str	r0, [r2, #12]
 326              	.LVL16:
 327              		.loc 2 1274 3 view .LVU62
 328              	.LBE39:
 329              	.LBE38:
 222:external/drivers/stm32wlxx/src/stm32wlxx_hal_pwr_ex.c **** }
 330              		.loc 1 222 1 view .LVU63
 331 000c 7047     		bx	lr
 332              	.L30:
 333 000e 00BF     		.align	2
 334              	.L29:
 335 0010 00040058 		.word	1476396032
 336              		.cfi_endproc
 337              	.LFE850:
 339              		.section	.text.HAL_PWREx_SetRadioBusyTrigger,"ax",%progbits
 340              		.align	1
 341              		.global	HAL_PWREx_SetRadioBusyTrigger
 342              		.syntax unified
 343              		.thumb
 344              		.thumb_func
 346              	HAL_PWREx_SetRadioBusyTrigger:
 347              	.LVL17:
 348              	.LFB851:
 223:external/drivers/stm32wlxx/src/stm32wlxx_hal_pwr_ex.c **** 
 224:external/drivers/stm32wlxx/src/stm32wlxx_hal_pwr_ex.c **** /**
 225:external/drivers/stm32wlxx/src/stm32wlxx_hal_pwr_ex.c ****   * @brief  Set radio busy trigger action: wake-up from low-power mode Standby,
 226:external/drivers/stm32wlxx/src/stm32wlxx_hal_pwr_ex.c ****   *         interruption.
 227:external/drivers/stm32wlxx/src/stm32wlxx_hal_pwr_ex.c ****   * @note   Signal polarity can be configured using function
 228:external/drivers/stm32wlxx/src/stm32wlxx_hal_pwr_ex.c ****   *         @ref HAL_PWREx_SetRadioBusyPolarity().
 229:external/drivers/stm32wlxx/src/stm32wlxx_hal_pwr_ex.c ****   * @param  RadioBusyTrigger This parameter can be one of the following values:
 230:external/drivers/stm32wlxx/src/stm32wlxx_hal_pwr_ex.c ****   *         @arg @ref PWR_RADIO_BUSY_TRIGGER_NONE
 231:external/drivers/stm32wlxx/src/stm32wlxx_hal_pwr_ex.c ****   *         @arg @ref PWR_RADIO_BUSY_TRIGGER_WU_IT
 232:external/drivers/stm32wlxx/src/stm32wlxx_hal_pwr_ex.c ****   * @retval None
 233:external/drivers/stm32wlxx/src/stm32wlxx_hal_pwr_ex.c ****   */
 234:external/drivers/stm32wlxx/src/stm32wlxx_hal_pwr_ex.c **** void HAL_PWREx_SetRadioBusyTrigger(uint32_t RadioBusyTrigger)
 235:external/drivers/stm32wlxx/src/stm32wlxx_hal_pwr_ex.c **** {
 349              		.loc 1 235 1 is_stmt 1 view -0
 350              		.cfi_startproc
 351              		@ args = 0, pretend = 0, frame = 0
 352              		@ frame_needed = 0, uses_anonymous_args = 0
 353              		@ link register save eliminated.
 236:external/drivers/stm32wlxx/src/stm32wlxx_hal_pwr_ex.c ****   /* Check the parameters */
 237:external/drivers/stm32wlxx/src/stm32wlxx_hal_pwr_ex.c ****   assert_param(IS_PWR_RADIO_BUSY_TRIGGER(RadioBusyTrigger));
 354              		.loc 1 237 3 view .LVU65
 238:external/drivers/stm32wlxx/src/stm32wlxx_hal_pwr_ex.c **** 
 239:external/drivers/stm32wlxx/src/stm32wlxx_hal_pwr_ex.c **** #ifdef CORE_CM0PLUS
 240:external/drivers/stm32wlxx/src/stm32wlxx_hal_pwr_ex.c ****   LL_C2_PWR_SetRadioBusyTrigger(RadioBusyTrigger);
 241:external/drivers/stm32wlxx/src/stm32wlxx_hal_pwr_ex.c **** #else
 242:external/drivers/stm32wlxx/src/stm32wlxx_hal_pwr_ex.c ****   LL_PWR_SetRadioBusyTrigger(RadioBusyTrigger);
 355              		.loc 1 242 3 view .LVU66
 356              	.LBB40:
 357              	.LBI40:
1275:external/drivers/stm32wlxx/include/stm32wlxx_ll_pwr.h **** }
1276:external/drivers/stm32wlxx/include/stm32wlxx_ll_pwr.h **** 
ARM GAS  /tmp/ccEyuVux.s 			page 34


1277:external/drivers/stm32wlxx/include/stm32wlxx_ll_pwr.h **** /**
1278:external/drivers/stm32wlxx/include/stm32wlxx_ll_pwr.h ****   * @brief  Get radio busy signal polarity
1279:external/drivers/stm32wlxx/include/stm32wlxx_ll_pwr.h ****   * @rmtoll CR4          RFBUSYP       LL_PWR_GetRadioBusyPolarity
1280:external/drivers/stm32wlxx/include/stm32wlxx_ll_pwr.h ****   * @retval Returned value can be one of the following values:
1281:external/drivers/stm32wlxx/include/stm32wlxx_ll_pwr.h ****   *         @arg @ref LL_PWR_RADIO_BUSY_POLARITY_RISING
1282:external/drivers/stm32wlxx/include/stm32wlxx_ll_pwr.h ****   *         @arg @ref LL_PWR_RADIO_BUSY_POLARITY_FALLING
1283:external/drivers/stm32wlxx/include/stm32wlxx_ll_pwr.h ****   */
1284:external/drivers/stm32wlxx/include/stm32wlxx_ll_pwr.h **** __STATIC_INLINE uint32_t LL_PWR_GetRadioBusyPolarity(void)
1285:external/drivers/stm32wlxx/include/stm32wlxx_ll_pwr.h **** {
1286:external/drivers/stm32wlxx/include/stm32wlxx_ll_pwr.h ****   return (uint32_t)(READ_BIT(PWR->CR4, PWR_CR4_WRFBUSYP));
1287:external/drivers/stm32wlxx/include/stm32wlxx_ll_pwr.h **** }
1288:external/drivers/stm32wlxx/include/stm32wlxx_ll_pwr.h **** 
1289:external/drivers/stm32wlxx/include/stm32wlxx_ll_pwr.h **** /**
1290:external/drivers/stm32wlxx/include/stm32wlxx_ll_pwr.h ****   * @brief  Set radio busy trigger action for CPU1: wake-up from low-power mode
1291:external/drivers/stm32wlxx/include/stm32wlxx_ll_pwr.h ****   *         Standby.
1292:external/drivers/stm32wlxx/include/stm32wlxx_ll_pwr.h ****   * @note   Signal polarity can be configured using function
1293:external/drivers/stm32wlxx/include/stm32wlxx_ll_pwr.h ****   *         @ref LL_PWR_SetRadioBusyPolarity().
1294:external/drivers/stm32wlxx/include/stm32wlxx_ll_pwr.h ****   * @rmtoll CR3          ERFBUSY       LL_PWR_SetRadioBusyTrigger
1295:external/drivers/stm32wlxx/include/stm32wlxx_ll_pwr.h ****   * @param  RadioBusyTrigger This parameter can be one of the following values:
1296:external/drivers/stm32wlxx/include/stm32wlxx_ll_pwr.h ****   *         @arg @ref LL_PWR_RADIO_BUSY_TRIGGER_NONE
1297:external/drivers/stm32wlxx/include/stm32wlxx_ll_pwr.h ****   *         @arg @ref LL_PWR_RADIO_BUSY_TRIGGER_WU_IT
1298:external/drivers/stm32wlxx/include/stm32wlxx_ll_pwr.h ****   * @retval None
1299:external/drivers/stm32wlxx/include/stm32wlxx_ll_pwr.h ****   */
1300:external/drivers/stm32wlxx/include/stm32wlxx_ll_pwr.h **** __STATIC_INLINE void LL_PWR_SetRadioBusyTrigger(uint32_t RadioBusyTrigger)
 358              		.loc 2 1300 22 view .LVU67
 359              	.LBB41:
1301:external/drivers/stm32wlxx/include/stm32wlxx_ll_pwr.h **** {
1302:external/drivers/stm32wlxx/include/stm32wlxx_ll_pwr.h ****   MODIFY_REG(PWR->CR3, PWR_CR3_EWRFBUSY, RadioBusyTrigger);
 360              		.loc 2 1302 3 view .LVU68
 361 0000 034A     		ldr	r2, .L32
 362 0002 9368     		ldr	r3, [r2, #8]
 363 0004 23F40063 		bic	r3, r3, #2048
 364 0008 1843     		orrs	r0, r0, r3
 365              	.LVL18:
 366              		.loc 2 1302 3 is_stmt 0 view .LVU69
 367 000a 9060     		str	r0, [r2, #8]
 368              	.LVL19:
 369              		.loc 2 1302 3 view .LVU70
 370              	.LBE41:
 371              	.LBE40:
 243:external/drivers/stm32wlxx/src/stm32wlxx_hal_pwr_ex.c **** #endif /* CORE_CM0PLUS */
 244:external/drivers/stm32wlxx/src/stm32wlxx_hal_pwr_ex.c **** }
 372              		.loc 1 244 1 view .LVU71
 373 000c 7047     		bx	lr
 374              	.L33:
 375 000e 00BF     		.align	2
 376              	.L32:
 377 0010 00040058 		.word	1476396032
 378              		.cfi_endproc
 379              	.LFE851:
 381              		.section	.text.HAL_PWREx_SetRadioIRQTrigger,"ax",%progbits
 382              		.align	1
 383              		.global	HAL_PWREx_SetRadioIRQTrigger
 384              		.syntax unified
 385              		.thumb
 386              		.thumb_func
 388              	HAL_PWREx_SetRadioIRQTrigger:
ARM GAS  /tmp/ccEyuVux.s 			page 35


 389              	.LVL20:
 390              	.LFB852:
 245:external/drivers/stm32wlxx/src/stm32wlxx_hal_pwr_ex.c **** 
 246:external/drivers/stm32wlxx/src/stm32wlxx_hal_pwr_ex.c **** /**
 247:external/drivers/stm32wlxx/src/stm32wlxx_hal_pwr_ex.c ****   * @brief  Set radio IRQ trigger action: wake-up from low-power mode Standby,
 248:external/drivers/stm32wlxx/src/stm32wlxx_hal_pwr_ex.c ****   *         interruption.
 249:external/drivers/stm32wlxx/src/stm32wlxx_hal_pwr_ex.c ****   * @param  RadioIRQTrigger This parameter can be one of the following values:
 250:external/drivers/stm32wlxx/src/stm32wlxx_hal_pwr_ex.c ****   *         @arg @ref PWR_RADIO_IRQ_TRIGGER_NONE
 251:external/drivers/stm32wlxx/src/stm32wlxx_hal_pwr_ex.c ****   *         @arg @ref PWR_RADIO_IRQ_TRIGGER_WU_IT
 252:external/drivers/stm32wlxx/src/stm32wlxx_hal_pwr_ex.c ****   * @retval None
 253:external/drivers/stm32wlxx/src/stm32wlxx_hal_pwr_ex.c ****   */
 254:external/drivers/stm32wlxx/src/stm32wlxx_hal_pwr_ex.c **** void HAL_PWREx_SetRadioIRQTrigger(uint32_t RadioIRQTrigger)
 255:external/drivers/stm32wlxx/src/stm32wlxx_hal_pwr_ex.c **** {
 391              		.loc 1 255 1 is_stmt 1 view -0
 392              		.cfi_startproc
 393              		@ args = 0, pretend = 0, frame = 0
 394              		@ frame_needed = 0, uses_anonymous_args = 0
 395              		@ link register save eliminated.
 256:external/drivers/stm32wlxx/src/stm32wlxx_hal_pwr_ex.c ****   /* Check the parameters */
 257:external/drivers/stm32wlxx/src/stm32wlxx_hal_pwr_ex.c ****   assert_param(IS_RADIO_IRQ_TRIGGER(RadioIRQTrigger));
 396              		.loc 1 257 3 view .LVU73
 258:external/drivers/stm32wlxx/src/stm32wlxx_hal_pwr_ex.c **** 
 259:external/drivers/stm32wlxx/src/stm32wlxx_hal_pwr_ex.c **** #ifdef CORE_CM0PLUS
 260:external/drivers/stm32wlxx/src/stm32wlxx_hal_pwr_ex.c ****   LL_C2_PWR_SetRadioIRQTrigger(RadioIRQTrigger);
 261:external/drivers/stm32wlxx/src/stm32wlxx_hal_pwr_ex.c **** #else
 262:external/drivers/stm32wlxx/src/stm32wlxx_hal_pwr_ex.c ****   LL_PWR_SetRadioIRQTrigger(RadioIRQTrigger);
 397              		.loc 1 262 3 view .LVU74
 398              	.LBB42:
 399              	.LBI42:
1303:external/drivers/stm32wlxx/include/stm32wlxx_ll_pwr.h **** }
1304:external/drivers/stm32wlxx/include/stm32wlxx_ll_pwr.h **** 
1305:external/drivers/stm32wlxx/include/stm32wlxx_ll_pwr.h **** /**
1306:external/drivers/stm32wlxx/include/stm32wlxx_ll_pwr.h ****   * @brief  Get radio busy trigger action for CPU1: wake-up from low-power mode
1307:external/drivers/stm32wlxx/include/stm32wlxx_ll_pwr.h ****   *         Standby.
1308:external/drivers/stm32wlxx/include/stm32wlxx_ll_pwr.h ****   * @rmtoll CR3          ERFBUSY       LL_PWR_GetRadioBusyTrigger
1309:external/drivers/stm32wlxx/include/stm32wlxx_ll_pwr.h ****   * @retval Returned value can be one of the following values:
1310:external/drivers/stm32wlxx/include/stm32wlxx_ll_pwr.h ****   *         @arg @ref LL_PWR_RADIO_BUSY_TRIGGER_NONE
1311:external/drivers/stm32wlxx/include/stm32wlxx_ll_pwr.h ****   *         @arg @ref LL_PWR_RADIO_BUSY_TRIGGER_WU_IT
1312:external/drivers/stm32wlxx/include/stm32wlxx_ll_pwr.h ****   */
1313:external/drivers/stm32wlxx/include/stm32wlxx_ll_pwr.h **** __STATIC_INLINE uint32_t LL_PWR_GetRadioBusyTrigger(void)
1314:external/drivers/stm32wlxx/include/stm32wlxx_ll_pwr.h **** {
1315:external/drivers/stm32wlxx/include/stm32wlxx_ll_pwr.h ****   return (uint32_t)(READ_BIT(PWR->CR3, PWR_CR3_EWRFBUSY));
1316:external/drivers/stm32wlxx/include/stm32wlxx_ll_pwr.h **** }
1317:external/drivers/stm32wlxx/include/stm32wlxx_ll_pwr.h **** 
1318:external/drivers/stm32wlxx/include/stm32wlxx_ll_pwr.h **** /**
1319:external/drivers/stm32wlxx/include/stm32wlxx_ll_pwr.h ****   * @brief  Set radio IRQ trigger action for CPU1: wake-up from low-power mode
1320:external/drivers/stm32wlxx/include/stm32wlxx_ll_pwr.h ****   *         Standby.
1321:external/drivers/stm32wlxx/include/stm32wlxx_ll_pwr.h ****   * @rmtoll CR3          ERFIRQ        LL_PWR_SetRadioIRQTrigger
1322:external/drivers/stm32wlxx/include/stm32wlxx_ll_pwr.h ****   * @param  RadioIRQTrigger This parameter can be one of the following values:
1323:external/drivers/stm32wlxx/include/stm32wlxx_ll_pwr.h ****   *         @arg @ref LL_PWR_RADIO_IRQ_TRIGGER_NONE
1324:external/drivers/stm32wlxx/include/stm32wlxx_ll_pwr.h ****   *         @arg @ref LL_PWR_RADIO_IRQ_TRIGGER_WU_IT
1325:external/drivers/stm32wlxx/include/stm32wlxx_ll_pwr.h ****   * @retval None
1326:external/drivers/stm32wlxx/include/stm32wlxx_ll_pwr.h ****   */
1327:external/drivers/stm32wlxx/include/stm32wlxx_ll_pwr.h **** __STATIC_INLINE void LL_PWR_SetRadioIRQTrigger(uint32_t RadioIRQTrigger)
 400              		.loc 2 1327 22 view .LVU75
 401              	.LBB43:
1328:external/drivers/stm32wlxx/include/stm32wlxx_ll_pwr.h **** {
ARM GAS  /tmp/ccEyuVux.s 			page 36


1329:external/drivers/stm32wlxx/include/stm32wlxx_ll_pwr.h ****   MODIFY_REG(PWR->CR3, PWR_CR3_EWRFIRQ, RadioIRQTrigger);
 402              		.loc 2 1329 3 view .LVU76
 403 0000 034A     		ldr	r2, .L35
 404 0002 9368     		ldr	r3, [r2, #8]
 405 0004 23F40053 		bic	r3, r3, #8192
 406 0008 1843     		orrs	r0, r0, r3
 407              	.LVL21:
 408              		.loc 2 1329 3 is_stmt 0 view .LVU77
 409 000a 9060     		str	r0, [r2, #8]
 410              	.LVL22:
 411              		.loc 2 1329 3 view .LVU78
 412              	.LBE43:
 413              	.LBE42:
 263:external/drivers/stm32wlxx/src/stm32wlxx_hal_pwr_ex.c **** #endif /* CORE_CM0PLUS */
 264:external/drivers/stm32wlxx/src/stm32wlxx_hal_pwr_ex.c **** }
 414              		.loc 1 264 1 view .LVU79
 415 000c 7047     		bx	lr
 416              	.L36:
 417 000e 00BF     		.align	2
 418              	.L35:
 419 0010 00040058 		.word	1476396032
 420              		.cfi_endproc
 421              	.LFE852:
 423              		.section	.text.HAL_PWREx_EnableGPIOPullUp,"ax",%progbits
 424              		.align	1
 425              		.global	HAL_PWREx_EnableGPIOPullUp
 426              		.syntax unified
 427              		.thumb
 428              		.thumb_func
 430              	HAL_PWREx_EnableGPIOPullUp:
 431              	.LVL23:
 432              	.LFB853:
 265:external/drivers/stm32wlxx/src/stm32wlxx_hal_pwr_ex.c **** 
 266:external/drivers/stm32wlxx/src/stm32wlxx_hal_pwr_ex.c **** #if defined(DUAL_CORE)
 267:external/drivers/stm32wlxx/src/stm32wlxx_hal_pwr_ex.c **** /**
 268:external/drivers/stm32wlxx/src/stm32wlxx_hal_pwr_ex.c ****   * @brief Enable CPU2 on-Hold interrupt.
 269:external/drivers/stm32wlxx/src/stm32wlxx_hal_pwr_ex.c ****   * @retval None
 270:external/drivers/stm32wlxx/src/stm32wlxx_hal_pwr_ex.c ****   */
 271:external/drivers/stm32wlxx/src/stm32wlxx_hal_pwr_ex.c **** void HAL_PWREx_EnableHOLDC2IT(void)
 272:external/drivers/stm32wlxx/src/stm32wlxx_hal_pwr_ex.c **** {
 273:external/drivers/stm32wlxx/src/stm32wlxx_hal_pwr_ex.c ****   SET_BIT(PWR->CR3, PWR_CR3_EC2H);
 274:external/drivers/stm32wlxx/src/stm32wlxx_hal_pwr_ex.c **** }
 275:external/drivers/stm32wlxx/src/stm32wlxx_hal_pwr_ex.c **** 
 276:external/drivers/stm32wlxx/src/stm32wlxx_hal_pwr_ex.c **** /**
 277:external/drivers/stm32wlxx/src/stm32wlxx_hal_pwr_ex.c ****   * @brief Disable CPU2 on-Hold interrupt.
 278:external/drivers/stm32wlxx/src/stm32wlxx_hal_pwr_ex.c ****   * @retval None
 279:external/drivers/stm32wlxx/src/stm32wlxx_hal_pwr_ex.c ****   */
 280:external/drivers/stm32wlxx/src/stm32wlxx_hal_pwr_ex.c **** void HAL_PWREx_DisableHOLDC2IT(void)
 281:external/drivers/stm32wlxx/src/stm32wlxx_hal_pwr_ex.c **** {
 282:external/drivers/stm32wlxx/src/stm32wlxx_hal_pwr_ex.c ****   CLEAR_BIT(PWR->CR3, PWR_CR3_EC2H);
 283:external/drivers/stm32wlxx/src/stm32wlxx_hal_pwr_ex.c **** }
 284:external/drivers/stm32wlxx/src/stm32wlxx_hal_pwr_ex.c **** #endif /* DUAL_CORE */
 285:external/drivers/stm32wlxx/src/stm32wlxx_hal_pwr_ex.c **** 
 286:external/drivers/stm32wlxx/src/stm32wlxx_hal_pwr_ex.c **** /****************************************************************************/
 287:external/drivers/stm32wlxx/src/stm32wlxx_hal_pwr_ex.c **** 
 288:external/drivers/stm32wlxx/src/stm32wlxx_hal_pwr_ex.c **** /**
 289:external/drivers/stm32wlxx/src/stm32wlxx_hal_pwr_ex.c ****   * @brief Enable GPIO pull-up state in Standby and Shutdown modes.
ARM GAS  /tmp/ccEyuVux.s 			page 37


 290:external/drivers/stm32wlxx/src/stm32wlxx_hal_pwr_ex.c ****   * @note  Set the relevant PUy bits of PWR_PUCRx register to configure the I/O in
 291:external/drivers/stm32wlxx/src/stm32wlxx_hal_pwr_ex.c ****   *        pull-up state in Standby and Shutdown modes.
 292:external/drivers/stm32wlxx/src/stm32wlxx_hal_pwr_ex.c ****   * @note  This state is effective in Standby and Shutdown modes only if APC bit
 293:external/drivers/stm32wlxx/src/stm32wlxx_hal_pwr_ex.c ****   *        is set through HAL_PWREx_EnablePullUpPullDownConfig() API.
 294:external/drivers/stm32wlxx/src/stm32wlxx_hal_pwr_ex.c ****   * @note  The configuration is lost when exiting the Shutdown mode due to the
 295:external/drivers/stm32wlxx/src/stm32wlxx_hal_pwr_ex.c ****   *        power-on reset, maintained when exiting the Standby mode.
 296:external/drivers/stm32wlxx/src/stm32wlxx_hal_pwr_ex.c ****   * @note  To avoid any conflict at Standby and Shutdown modes exits, the corresponding
 297:external/drivers/stm32wlxx/src/stm32wlxx_hal_pwr_ex.c ****   *        PDy bit of PWR_PDCRx register is cleared unless it is reserved.
 298:external/drivers/stm32wlxx/src/stm32wlxx_hal_pwr_ex.c ****   * @note  Even if a PUy bit to set is reserved, the other PUy bits entered as input
 299:external/drivers/stm32wlxx/src/stm32wlxx_hal_pwr_ex.c ****   *        parameter at the same time are set.
 300:external/drivers/stm32wlxx/src/stm32wlxx_hal_pwr_ex.c ****   * @param GPIO Specify the IO port. This parameter can be PWR_GPIO_A, ..., PWR_GPIO_H
 301:external/drivers/stm32wlxx/src/stm32wlxx_hal_pwr_ex.c ****   *         to select the GPIO peripheral.
 302:external/drivers/stm32wlxx/src/stm32wlxx_hal_pwr_ex.c ****   * @param GPIONumber Specify the I/O pins numbers.
 303:external/drivers/stm32wlxx/src/stm32wlxx_hal_pwr_ex.c ****   *         This parameter can be one of the following values:
 304:external/drivers/stm32wlxx/src/stm32wlxx_hal_pwr_ex.c ****   *         PWR_GPIO_BIT_0, ..., PWR_GPIO_BIT_15 (except for PORTH where less
 305:external/drivers/stm32wlxx/src/stm32wlxx_hal_pwr_ex.c ****   *         I/O pins are available) or the logical OR of several of them to set
 306:external/drivers/stm32wlxx/src/stm32wlxx_hal_pwr_ex.c ****   *         several bits for a given port in a single API call.
 307:external/drivers/stm32wlxx/src/stm32wlxx_hal_pwr_ex.c ****   * @retval HAL Status
 308:external/drivers/stm32wlxx/src/stm32wlxx_hal_pwr_ex.c ****   */
 309:external/drivers/stm32wlxx/src/stm32wlxx_hal_pwr_ex.c **** HAL_StatusTypeDef HAL_PWREx_EnableGPIOPullUp(uint32_t GPIO, uint32_t GPIONumber)
 310:external/drivers/stm32wlxx/src/stm32wlxx_hal_pwr_ex.c **** {
 433              		.loc 1 310 1 is_stmt 1 view -0
 434              		.cfi_startproc
 435              		@ args = 0, pretend = 0, frame = 0
 436              		@ frame_needed = 0, uses_anonymous_args = 0
 437              		@ link register save eliminated.
 311:external/drivers/stm32wlxx/src/stm32wlxx_hal_pwr_ex.c ****   HAL_StatusTypeDef status = HAL_OK;
 438              		.loc 1 311 3 view .LVU81
 312:external/drivers/stm32wlxx/src/stm32wlxx_hal_pwr_ex.c **** 
 313:external/drivers/stm32wlxx/src/stm32wlxx_hal_pwr_ex.c ****   assert_param(IS_PWR_GPIO(GPIO));
 439              		.loc 1 313 3 view .LVU82
 314:external/drivers/stm32wlxx/src/stm32wlxx_hal_pwr_ex.c ****   assert_param(IS_PWR_GPIO_BIT_NUMBER(GPIONumber));
 440              		.loc 1 314 3 view .LVU83
 315:external/drivers/stm32wlxx/src/stm32wlxx_hal_pwr_ex.c **** 
 316:external/drivers/stm32wlxx/src/stm32wlxx_hal_pwr_ex.c ****   switch (GPIO)
 441              		.loc 1 316 3 view .LVU84
 442 0000 0728     		cmp	r0, #7
 443 0002 33D8     		bhi	.L44
 444 0004 DFE800F0 		tbb	[pc, r0]
 445              	.L40:
 446 0008 04       		.byte	(.L43-.L40)/2
 447 0009 0E       		.byte	(.L42-.L40)/2
 448 000a 18       		.byte	(.L41-.L40)/2
 449 000b 32       		.byte	(.L44-.L40)/2
 450 000c 32       		.byte	(.L44-.L40)/2
 451 000d 32       		.byte	(.L44-.L40)/2
 452 000e 32       		.byte	(.L44-.L40)/2
 453 000f 26       		.byte	(.L39-.L40)/2
 454              		.p2align 1
 455              	.L43:
 317:external/drivers/stm32wlxx/src/stm32wlxx_hal_pwr_ex.c ****   {
 318:external/drivers/stm32wlxx/src/stm32wlxx_hal_pwr_ex.c ****     case PWR_GPIO_A:
 319:external/drivers/stm32wlxx/src/stm32wlxx_hal_pwr_ex.c ****       SET_BIT(PWR->PUCRA, GPIONumber);
 456              		.loc 1 319 7 view .LVU85
 457 0010 174B     		ldr	r3, .L45
 458 0012 1A6A     		ldr	r2, [r3, #32]
 459 0014 0A43     		orrs	r2, r2, r1
ARM GAS  /tmp/ccEyuVux.s 			page 38


 460 0016 1A62     		str	r2, [r3, #32]
 320:external/drivers/stm32wlxx/src/stm32wlxx_hal_pwr_ex.c ****       CLEAR_BIT(PWR->PDCRA, GPIONumber);
 461              		.loc 1 320 7 view .LVU86
 462 0018 5A6A     		ldr	r2, [r3, #36]
 463 001a 22EA0102 		bic	r2, r2, r1
 464 001e 5A62     		str	r2, [r3, #36]
 321:external/drivers/stm32wlxx/src/stm32wlxx_hal_pwr_ex.c ****       break;
 465              		.loc 1 321 7 view .LVU87
 311:external/drivers/stm32wlxx/src/stm32wlxx_hal_pwr_ex.c **** 
 466              		.loc 1 311 21 is_stmt 0 view .LVU88
 467 0020 0020     		movs	r0, #0
 468              	.LVL24:
 469              		.loc 1 321 7 view .LVU89
 470 0022 7047     		bx	lr
 471              	.LVL25:
 472              	.L42:
 322:external/drivers/stm32wlxx/src/stm32wlxx_hal_pwr_ex.c ****     case PWR_GPIO_B:
 323:external/drivers/stm32wlxx/src/stm32wlxx_hal_pwr_ex.c ****       SET_BIT(PWR->PUCRB, GPIONumber);
 473              		.loc 1 323 7 is_stmt 1 view .LVU90
 474 0024 124B     		ldr	r3, .L45
 475 0026 9A6A     		ldr	r2, [r3, #40]
 476 0028 0A43     		orrs	r2, r2, r1
 477 002a 9A62     		str	r2, [r3, #40]
 324:external/drivers/stm32wlxx/src/stm32wlxx_hal_pwr_ex.c ****       CLEAR_BIT(PWR->PDCRB, GPIONumber);
 478              		.loc 1 324 7 view .LVU91
 479 002c DA6A     		ldr	r2, [r3, #44]
 480 002e 22EA0102 		bic	r2, r2, r1
 481 0032 DA62     		str	r2, [r3, #44]
 325:external/drivers/stm32wlxx/src/stm32wlxx_hal_pwr_ex.c ****       break;
 482              		.loc 1 325 7 view .LVU92
 311:external/drivers/stm32wlxx/src/stm32wlxx_hal_pwr_ex.c **** 
 483              		.loc 1 311 21 is_stmt 0 view .LVU93
 484 0034 0020     		movs	r0, #0
 485              	.LVL26:
 486              		.loc 1 325 7 view .LVU94
 487 0036 7047     		bx	lr
 488              	.LVL27:
 489              	.L41:
 326:external/drivers/stm32wlxx/src/stm32wlxx_hal_pwr_ex.c ****     case PWR_GPIO_C:
 327:external/drivers/stm32wlxx/src/stm32wlxx_hal_pwr_ex.c ****       SET_BIT(PWR->PUCRC, (GPIONumber & PWR_PORTC_AVAILABLE_PINS));
 490              		.loc 1 327 7 is_stmt 1 view .LVU95
 491 0038 0D4B     		ldr	r3, .L45
 492 003a 1A6B     		ldr	r2, [r3, #48]
 493 003c 21F4FC51 		bic	r1, r1, #8064
 494              	.LVL28:
 495              		.loc 1 327 7 is_stmt 0 view .LVU96
 496 0040 0904     		lsls	r1, r1, #16
 497 0042 090C     		lsrs	r1, r1, #16
 498 0044 0A43     		orrs	r2, r2, r1
 499 0046 1A63     		str	r2, [r3, #48]
 328:external/drivers/stm32wlxx/src/stm32wlxx_hal_pwr_ex.c ****       CLEAR_BIT(PWR->PDCRC, (GPIONumber & PWR_PORTC_AVAILABLE_PINS));
 500              		.loc 1 328 7 is_stmt 1 view .LVU97
 501 0048 5A6B     		ldr	r2, [r3, #52]
 502 004a 22EA0102 		bic	r2, r2, r1
 503 004e 5A63     		str	r2, [r3, #52]
 329:external/drivers/stm32wlxx/src/stm32wlxx_hal_pwr_ex.c ****       break;
 504              		.loc 1 329 7 view .LVU98
ARM GAS  /tmp/ccEyuVux.s 			page 39


 311:external/drivers/stm32wlxx/src/stm32wlxx_hal_pwr_ex.c **** 
 505              		.loc 1 311 21 is_stmt 0 view .LVU99
 506 0050 0020     		movs	r0, #0
 507              	.LVL29:
 508              		.loc 1 329 7 view .LVU100
 509 0052 7047     		bx	lr
 510              	.LVL30:
 511              	.L39:
 330:external/drivers/stm32wlxx/src/stm32wlxx_hal_pwr_ex.c ****     case PWR_GPIO_H:
 331:external/drivers/stm32wlxx/src/stm32wlxx_hal_pwr_ex.c ****       SET_BIT(PWR->PUCRH, (GPIONumber & PWR_PORTH_AVAILABLE_PINS));
 512              		.loc 1 331 7 is_stmt 1 view .LVU101
 513 0054 064B     		ldr	r3, .L45
 514 0056 9A6D     		ldr	r2, [r3, #88]
 515 0058 01F00801 		and	r1, r1, #8
 516              	.LVL31:
 517              		.loc 1 331 7 is_stmt 0 view .LVU102
 518 005c 0A43     		orrs	r2, r2, r1
 519 005e 9A65     		str	r2, [r3, #88]
 332:external/drivers/stm32wlxx/src/stm32wlxx_hal_pwr_ex.c ****       CLEAR_BIT(PWR->PDCRH, (GPIONumber & PWR_PORTH_AVAILABLE_PINS));
 520              		.loc 1 332 7 is_stmt 1 view .LVU103
 521 0060 DA6D     		ldr	r2, [r3, #92]
 522 0062 22EA0102 		bic	r2, r2, r1
 523 0066 DA65     		str	r2, [r3, #92]
 333:external/drivers/stm32wlxx/src/stm32wlxx_hal_pwr_ex.c ****       break;
 524              		.loc 1 333 7 view .LVU104
 311:external/drivers/stm32wlxx/src/stm32wlxx_hal_pwr_ex.c **** 
 525              		.loc 1 311 21 is_stmt 0 view .LVU105
 526 0068 0020     		movs	r0, #0
 527              	.LVL32:
 528              		.loc 1 333 7 view .LVU106
 529 006a 7047     		bx	lr
 530              	.LVL33:
 531              	.L44:
 316:external/drivers/stm32wlxx/src/stm32wlxx_hal_pwr_ex.c ****   {
 532              		.loc 1 316 3 view .LVU107
 533 006c 0120     		movs	r0, #1
 534              	.LVL34:
 334:external/drivers/stm32wlxx/src/stm32wlxx_hal_pwr_ex.c ****     default:
 335:external/drivers/stm32wlxx/src/stm32wlxx_hal_pwr_ex.c ****       status = HAL_ERROR;
 336:external/drivers/stm32wlxx/src/stm32wlxx_hal_pwr_ex.c ****       break;
 337:external/drivers/stm32wlxx/src/stm32wlxx_hal_pwr_ex.c ****   }
 338:external/drivers/stm32wlxx/src/stm32wlxx_hal_pwr_ex.c **** 
 339:external/drivers/stm32wlxx/src/stm32wlxx_hal_pwr_ex.c ****   return status;
 535              		.loc 1 339 3 is_stmt 1 view .LVU108
 340:external/drivers/stm32wlxx/src/stm32wlxx_hal_pwr_ex.c **** }
 536              		.loc 1 340 1 is_stmt 0 view .LVU109
 537 006e 7047     		bx	lr
 538              	.L46:
 539              		.align	2
 540              	.L45:
 541 0070 00040058 		.word	1476396032
 542              		.cfi_endproc
 543              	.LFE853:
 545              		.section	.text.HAL_PWREx_DisableGPIOPullUp,"ax",%progbits
 546              		.align	1
 547              		.global	HAL_PWREx_DisableGPIOPullUp
 548              		.syntax unified
ARM GAS  /tmp/ccEyuVux.s 			page 40


 549              		.thumb
 550              		.thumb_func
 552              	HAL_PWREx_DisableGPIOPullUp:
 553              	.LVL35:
 554              	.LFB854:
 341:external/drivers/stm32wlxx/src/stm32wlxx_hal_pwr_ex.c **** 
 342:external/drivers/stm32wlxx/src/stm32wlxx_hal_pwr_ex.c **** /**
 343:external/drivers/stm32wlxx/src/stm32wlxx_hal_pwr_ex.c ****   * @brief Disable GPIO pull-up state in Standby mode and Shutdown modes.
 344:external/drivers/stm32wlxx/src/stm32wlxx_hal_pwr_ex.c ****   * @note  Reset the relevant PUy bits of PWR_PUCRx register used to configure the I/O
 345:external/drivers/stm32wlxx/src/stm32wlxx_hal_pwr_ex.c ****   *        in pull-up state in Standby and Shutdown modes.
 346:external/drivers/stm32wlxx/src/stm32wlxx_hal_pwr_ex.c ****   * @note  Even if a PUy bit to reset is reserved, the other PUy bits entered as input
 347:external/drivers/stm32wlxx/src/stm32wlxx_hal_pwr_ex.c ****   *        parameter at the same time are reset.
 348:external/drivers/stm32wlxx/src/stm32wlxx_hal_pwr_ex.c ****   * @param GPIO Specifies the IO port. This parameter can be PWR_GPIO_A, ..., PWR_GPIO_H
 349:external/drivers/stm32wlxx/src/stm32wlxx_hal_pwr_ex.c ****   *         to select the GPIO peripheral.
 350:external/drivers/stm32wlxx/src/stm32wlxx_hal_pwr_ex.c ****   * @param GPIONumber Specify the I/O pins numbers.
 351:external/drivers/stm32wlxx/src/stm32wlxx_hal_pwr_ex.c ****   *         This parameter can be one of the following values:
 352:external/drivers/stm32wlxx/src/stm32wlxx_hal_pwr_ex.c ****   *         PWR_GPIO_BIT_0, ..., PWR_GPIO_BIT_15 (except for PORTH where less
 353:external/drivers/stm32wlxx/src/stm32wlxx_hal_pwr_ex.c ****   *         I/O pins are available) or the logical OR of several of them to reset
 354:external/drivers/stm32wlxx/src/stm32wlxx_hal_pwr_ex.c ****   *         several bits for a given port in a single API call.
 355:external/drivers/stm32wlxx/src/stm32wlxx_hal_pwr_ex.c ****   * @retval HAL Status
 356:external/drivers/stm32wlxx/src/stm32wlxx_hal_pwr_ex.c ****   */
 357:external/drivers/stm32wlxx/src/stm32wlxx_hal_pwr_ex.c **** HAL_StatusTypeDef HAL_PWREx_DisableGPIOPullUp(uint32_t GPIO, uint32_t GPIONumber)
 358:external/drivers/stm32wlxx/src/stm32wlxx_hal_pwr_ex.c **** {
 555              		.loc 1 358 1 is_stmt 1 view -0
 556              		.cfi_startproc
 557              		@ args = 0, pretend = 0, frame = 0
 558              		@ frame_needed = 0, uses_anonymous_args = 0
 559              		@ link register save eliminated.
 359:external/drivers/stm32wlxx/src/stm32wlxx_hal_pwr_ex.c ****   HAL_StatusTypeDef status = HAL_OK;
 560              		.loc 1 359 3 view .LVU111
 360:external/drivers/stm32wlxx/src/stm32wlxx_hal_pwr_ex.c **** 
 361:external/drivers/stm32wlxx/src/stm32wlxx_hal_pwr_ex.c ****   assert_param(IS_PWR_GPIO(GPIO));
 561              		.loc 1 361 3 view .LVU112
 362:external/drivers/stm32wlxx/src/stm32wlxx_hal_pwr_ex.c ****   assert_param(IS_PWR_GPIO_BIT_NUMBER(GPIONumber));
 562              		.loc 1 362 3 view .LVU113
 363:external/drivers/stm32wlxx/src/stm32wlxx_hal_pwr_ex.c **** 
 364:external/drivers/stm32wlxx/src/stm32wlxx_hal_pwr_ex.c ****   switch (GPIO)
 563              		.loc 1 364 3 view .LVU114
 564 0000 0728     		cmp	r0, #7
 565 0002 27D8     		bhi	.L54
 566 0004 DFE800F0 		tbb	[pc, r0]
 567              	.L50:
 568 0008 04       		.byte	(.L53-.L50)/2
 569 0009 0B       		.byte	(.L52-.L50)/2
 570 000a 12       		.byte	(.L51-.L50)/2
 571 000b 26       		.byte	(.L54-.L50)/2
 572 000c 26       		.byte	(.L54-.L50)/2
 573 000d 26       		.byte	(.L54-.L50)/2
 574 000e 26       		.byte	(.L54-.L50)/2
 575 000f 1D       		.byte	(.L49-.L50)/2
 576              		.p2align 1
 577              	.L53:
 365:external/drivers/stm32wlxx/src/stm32wlxx_hal_pwr_ex.c ****   {
 366:external/drivers/stm32wlxx/src/stm32wlxx_hal_pwr_ex.c ****     case PWR_GPIO_A:
 367:external/drivers/stm32wlxx/src/stm32wlxx_hal_pwr_ex.c ****       CLEAR_BIT(PWR->PUCRA, GPIONumber);
 578              		.loc 1 367 7 view .LVU115
 579 0010 114A     		ldr	r2, .L55
ARM GAS  /tmp/ccEyuVux.s 			page 41


 580 0012 136A     		ldr	r3, [r2, #32]
 581 0014 23EA0103 		bic	r3, r3, r1
 582 0018 1362     		str	r3, [r2, #32]
 368:external/drivers/stm32wlxx/src/stm32wlxx_hal_pwr_ex.c ****       break;
 583              		.loc 1 368 7 view .LVU116
 359:external/drivers/stm32wlxx/src/stm32wlxx_hal_pwr_ex.c **** 
 584              		.loc 1 359 21 is_stmt 0 view .LVU117
 585 001a 0020     		movs	r0, #0
 586              	.LVL36:
 587              		.loc 1 368 7 view .LVU118
 588 001c 7047     		bx	lr
 589              	.LVL37:
 590              	.L52:
 369:external/drivers/stm32wlxx/src/stm32wlxx_hal_pwr_ex.c ****     case PWR_GPIO_B:
 370:external/drivers/stm32wlxx/src/stm32wlxx_hal_pwr_ex.c ****       CLEAR_BIT(PWR->PUCRB, GPIONumber);
 591              		.loc 1 370 7 is_stmt 1 view .LVU119
 592 001e 0E4A     		ldr	r2, .L55
 593 0020 936A     		ldr	r3, [r2, #40]
 594 0022 23EA0103 		bic	r3, r3, r1
 595 0026 9362     		str	r3, [r2, #40]
 371:external/drivers/stm32wlxx/src/stm32wlxx_hal_pwr_ex.c ****       break;
 596              		.loc 1 371 7 view .LVU120
 359:external/drivers/stm32wlxx/src/stm32wlxx_hal_pwr_ex.c **** 
 597              		.loc 1 359 21 is_stmt 0 view .LVU121
 598 0028 0020     		movs	r0, #0
 599              	.LVL38:
 600              		.loc 1 371 7 view .LVU122
 601 002a 7047     		bx	lr
 602              	.LVL39:
 603              	.L51:
 372:external/drivers/stm32wlxx/src/stm32wlxx_hal_pwr_ex.c ****     case PWR_GPIO_C:
 373:external/drivers/stm32wlxx/src/stm32wlxx_hal_pwr_ex.c ****       CLEAR_BIT(PWR->PUCRC, (GPIONumber & PWR_PORTC_AVAILABLE_PINS));
 604              		.loc 1 373 7 is_stmt 1 view .LVU123
 605 002c 0A4A     		ldr	r2, .L55
 606 002e 136B     		ldr	r3, [r2, #48]
 607 0030 21F4FC51 		bic	r1, r1, #8064
 608              	.LVL40:
 609              		.loc 1 373 7 is_stmt 0 view .LVU124
 610 0034 0904     		lsls	r1, r1, #16
 611 0036 090C     		lsrs	r1, r1, #16
 612 0038 23EA0103 		bic	r3, r3, r1
 613 003c 1363     		str	r3, [r2, #48]
 374:external/drivers/stm32wlxx/src/stm32wlxx_hal_pwr_ex.c ****       break;
 614              		.loc 1 374 7 is_stmt 1 view .LVU125
 359:external/drivers/stm32wlxx/src/stm32wlxx_hal_pwr_ex.c **** 
 615              		.loc 1 359 21 is_stmt 0 view .LVU126
 616 003e 0020     		movs	r0, #0
 617              	.LVL41:
 618              		.loc 1 374 7 view .LVU127
 619 0040 7047     		bx	lr
 620              	.LVL42:
 621              	.L49:
 375:external/drivers/stm32wlxx/src/stm32wlxx_hal_pwr_ex.c ****     case PWR_GPIO_H:
 376:external/drivers/stm32wlxx/src/stm32wlxx_hal_pwr_ex.c ****       CLEAR_BIT(PWR->PUCRH, (GPIONumber & PWR_PORTH_AVAILABLE_PINS));
 622              		.loc 1 376 7 is_stmt 1 view .LVU128
 623 0042 054A     		ldr	r2, .L55
 624 0044 936D     		ldr	r3, [r2, #88]
ARM GAS  /tmp/ccEyuVux.s 			page 42


 625 0046 01F00801 		and	r1, r1, #8
 626              	.LVL43:
 627              		.loc 1 376 7 is_stmt 0 view .LVU129
 628 004a 23EA0103 		bic	r3, r3, r1
 629 004e 9365     		str	r3, [r2, #88]
 377:external/drivers/stm32wlxx/src/stm32wlxx_hal_pwr_ex.c ****       break;
 630              		.loc 1 377 7 is_stmt 1 view .LVU130
 359:external/drivers/stm32wlxx/src/stm32wlxx_hal_pwr_ex.c **** 
 631              		.loc 1 359 21 is_stmt 0 view .LVU131
 632 0050 0020     		movs	r0, #0
 633              	.LVL44:
 634              		.loc 1 377 7 view .LVU132
 635 0052 7047     		bx	lr
 636              	.LVL45:
 637              	.L54:
 364:external/drivers/stm32wlxx/src/stm32wlxx_hal_pwr_ex.c ****   {
 638              		.loc 1 364 3 view .LVU133
 639 0054 0120     		movs	r0, #1
 640              	.LVL46:
 378:external/drivers/stm32wlxx/src/stm32wlxx_hal_pwr_ex.c ****     default:
 379:external/drivers/stm32wlxx/src/stm32wlxx_hal_pwr_ex.c ****       status = HAL_ERROR;
 380:external/drivers/stm32wlxx/src/stm32wlxx_hal_pwr_ex.c ****       break;
 381:external/drivers/stm32wlxx/src/stm32wlxx_hal_pwr_ex.c ****   }
 382:external/drivers/stm32wlxx/src/stm32wlxx_hal_pwr_ex.c **** 
 383:external/drivers/stm32wlxx/src/stm32wlxx_hal_pwr_ex.c ****   return status;
 641              		.loc 1 383 3 is_stmt 1 view .LVU134
 384:external/drivers/stm32wlxx/src/stm32wlxx_hal_pwr_ex.c **** }
 642              		.loc 1 384 1 is_stmt 0 view .LVU135
 643 0056 7047     		bx	lr
 644              	.L56:
 645              		.align	2
 646              	.L55:
 647 0058 00040058 		.word	1476396032
 648              		.cfi_endproc
 649              	.LFE854:
 651              		.section	.text.HAL_PWREx_EnableGPIOPullDown,"ax",%progbits
 652              		.align	1
 653              		.global	HAL_PWREx_EnableGPIOPullDown
 654              		.syntax unified
 655              		.thumb
 656              		.thumb_func
 658              	HAL_PWREx_EnableGPIOPullDown:
 659              	.LVL47:
 660              	.LFB855:
 385:external/drivers/stm32wlxx/src/stm32wlxx_hal_pwr_ex.c **** 
 386:external/drivers/stm32wlxx/src/stm32wlxx_hal_pwr_ex.c **** /**
 387:external/drivers/stm32wlxx/src/stm32wlxx_hal_pwr_ex.c ****   * @brief Enable GPIO pull-down state in Standby and Shutdown modes.
 388:external/drivers/stm32wlxx/src/stm32wlxx_hal_pwr_ex.c ****   * @note  Set the relevant PDy bits of PWR_PDCRx register to configure the I/O in
 389:external/drivers/stm32wlxx/src/stm32wlxx_hal_pwr_ex.c ****   *        pull-down state in Standby and Shutdown modes.
 390:external/drivers/stm32wlxx/src/stm32wlxx_hal_pwr_ex.c ****   * @note  This state is effective in Standby and Shutdown modes only if APC bit
 391:external/drivers/stm32wlxx/src/stm32wlxx_hal_pwr_ex.c ****   *        is set through HAL_PWREx_EnablePullUpPullDownConfig() API.
 392:external/drivers/stm32wlxx/src/stm32wlxx_hal_pwr_ex.c ****   * @note  The configuration is lost when exiting the Shutdown mode due to the
 393:external/drivers/stm32wlxx/src/stm32wlxx_hal_pwr_ex.c ****   *        power-on reset, maintained when exiting the Standby mode.
 394:external/drivers/stm32wlxx/src/stm32wlxx_hal_pwr_ex.c ****   * @note  To avoid any conflict at Standby and Shutdown modes exits, the corresponding
 395:external/drivers/stm32wlxx/src/stm32wlxx_hal_pwr_ex.c ****   *        PUy bit of PWR_PUCRx register is cleared unless it is reserved.
 396:external/drivers/stm32wlxx/src/stm32wlxx_hal_pwr_ex.c ****   * @note  Even if a PDy bit to set is reserved, the other PDy bits entered as input
 397:external/drivers/stm32wlxx/src/stm32wlxx_hal_pwr_ex.c ****   *        parameter at the same time are set.
ARM GAS  /tmp/ccEyuVux.s 			page 43


 398:external/drivers/stm32wlxx/src/stm32wlxx_hal_pwr_ex.c ****   * @param GPIO Specify the IO port. This parameter can be PWR_GPIO_A..PWR_GPIO_H
 399:external/drivers/stm32wlxx/src/stm32wlxx_hal_pwr_ex.c ****   *         to select the GPIO peripheral.
 400:external/drivers/stm32wlxx/src/stm32wlxx_hal_pwr_ex.c ****   * @param GPIONumber Specify the I/O pins numbers.
 401:external/drivers/stm32wlxx/src/stm32wlxx_hal_pwr_ex.c ****   *         This parameter can be one of the following values:
 402:external/drivers/stm32wlxx/src/stm32wlxx_hal_pwr_ex.c ****   *         PWR_GPIO_BIT_0, ..., PWR_GPIO_BIT_15 (except for PORTH where less
 403:external/drivers/stm32wlxx/src/stm32wlxx_hal_pwr_ex.c ****   *         I/O pins are available) or the logical OR of several of them to set
 404:external/drivers/stm32wlxx/src/stm32wlxx_hal_pwr_ex.c ****   *         several bits for a given port in a single API call.
 405:external/drivers/stm32wlxx/src/stm32wlxx_hal_pwr_ex.c ****   * @retval HAL Status
 406:external/drivers/stm32wlxx/src/stm32wlxx_hal_pwr_ex.c ****   */
 407:external/drivers/stm32wlxx/src/stm32wlxx_hal_pwr_ex.c **** HAL_StatusTypeDef HAL_PWREx_EnableGPIOPullDown(uint32_t GPIO, uint32_t GPIONumber)
 408:external/drivers/stm32wlxx/src/stm32wlxx_hal_pwr_ex.c **** {
 661              		.loc 1 408 1 is_stmt 1 view -0
 662              		.cfi_startproc
 663              		@ args = 0, pretend = 0, frame = 0
 664              		@ frame_needed = 0, uses_anonymous_args = 0
 665              		@ link register save eliminated.
 409:external/drivers/stm32wlxx/src/stm32wlxx_hal_pwr_ex.c ****   HAL_StatusTypeDef status = HAL_OK;
 666              		.loc 1 409 3 view .LVU137
 410:external/drivers/stm32wlxx/src/stm32wlxx_hal_pwr_ex.c **** 
 411:external/drivers/stm32wlxx/src/stm32wlxx_hal_pwr_ex.c ****   assert_param(IS_PWR_GPIO(GPIO));
 667              		.loc 1 411 3 view .LVU138
 412:external/drivers/stm32wlxx/src/stm32wlxx_hal_pwr_ex.c ****   assert_param(IS_PWR_GPIO_BIT_NUMBER(GPIONumber));
 668              		.loc 1 412 3 view .LVU139
 413:external/drivers/stm32wlxx/src/stm32wlxx_hal_pwr_ex.c **** 
 414:external/drivers/stm32wlxx/src/stm32wlxx_hal_pwr_ex.c ****   switch (GPIO)
 669              		.loc 1 414 3 view .LVU140
 670 0000 0728     		cmp	r0, #7
 671 0002 33D8     		bhi	.L64
 672 0004 DFE800F0 		tbb	[pc, r0]
 673              	.L60:
 674 0008 04       		.byte	(.L63-.L60)/2
 675 0009 0E       		.byte	(.L62-.L60)/2
 676 000a 18       		.byte	(.L61-.L60)/2
 677 000b 32       		.byte	(.L64-.L60)/2
 678 000c 32       		.byte	(.L64-.L60)/2
 679 000d 32       		.byte	(.L64-.L60)/2
 680 000e 32       		.byte	(.L64-.L60)/2
 681 000f 26       		.byte	(.L59-.L60)/2
 682              		.p2align 1
 683              	.L63:
 415:external/drivers/stm32wlxx/src/stm32wlxx_hal_pwr_ex.c ****   {
 416:external/drivers/stm32wlxx/src/stm32wlxx_hal_pwr_ex.c ****     case PWR_GPIO_A:
 417:external/drivers/stm32wlxx/src/stm32wlxx_hal_pwr_ex.c ****       SET_BIT(PWR->PDCRA, GPIONumber);
 684              		.loc 1 417 7 view .LVU141
 685 0010 174B     		ldr	r3, .L65
 686 0012 5A6A     		ldr	r2, [r3, #36]
 687 0014 0A43     		orrs	r2, r2, r1
 688 0016 5A62     		str	r2, [r3, #36]
 418:external/drivers/stm32wlxx/src/stm32wlxx_hal_pwr_ex.c ****       CLEAR_BIT(PWR->PUCRA, GPIONumber);
 689              		.loc 1 418 7 view .LVU142
 690 0018 1A6A     		ldr	r2, [r3, #32]
 691 001a 22EA0102 		bic	r2, r2, r1
 692 001e 1A62     		str	r2, [r3, #32]
 419:external/drivers/stm32wlxx/src/stm32wlxx_hal_pwr_ex.c ****       break;
 693              		.loc 1 419 7 view .LVU143
 409:external/drivers/stm32wlxx/src/stm32wlxx_hal_pwr_ex.c **** 
 694              		.loc 1 409 21 is_stmt 0 view .LVU144
ARM GAS  /tmp/ccEyuVux.s 			page 44


 695 0020 0020     		movs	r0, #0
 696              	.LVL48:
 697              		.loc 1 419 7 view .LVU145
 698 0022 7047     		bx	lr
 699              	.LVL49:
 700              	.L62:
 420:external/drivers/stm32wlxx/src/stm32wlxx_hal_pwr_ex.c ****     case PWR_GPIO_B:
 421:external/drivers/stm32wlxx/src/stm32wlxx_hal_pwr_ex.c ****       SET_BIT(PWR->PDCRB, GPIONumber);
 701              		.loc 1 421 7 is_stmt 1 view .LVU146
 702 0024 124B     		ldr	r3, .L65
 703 0026 DA6A     		ldr	r2, [r3, #44]
 704 0028 0A43     		orrs	r2, r2, r1
 705 002a DA62     		str	r2, [r3, #44]
 422:external/drivers/stm32wlxx/src/stm32wlxx_hal_pwr_ex.c ****       CLEAR_BIT(PWR->PUCRB, GPIONumber);
 706              		.loc 1 422 7 view .LVU147
 707 002c 9A6A     		ldr	r2, [r3, #40]
 708 002e 22EA0102 		bic	r2, r2, r1
 709 0032 9A62     		str	r2, [r3, #40]
 423:external/drivers/stm32wlxx/src/stm32wlxx_hal_pwr_ex.c ****       break;
 710              		.loc 1 423 7 view .LVU148
 409:external/drivers/stm32wlxx/src/stm32wlxx_hal_pwr_ex.c **** 
 711              		.loc 1 409 21 is_stmt 0 view .LVU149
 712 0034 0020     		movs	r0, #0
 713              	.LVL50:
 714              		.loc 1 423 7 view .LVU150
 715 0036 7047     		bx	lr
 716              	.LVL51:
 717              	.L61:
 424:external/drivers/stm32wlxx/src/stm32wlxx_hal_pwr_ex.c ****     case PWR_GPIO_C:
 425:external/drivers/stm32wlxx/src/stm32wlxx_hal_pwr_ex.c ****       SET_BIT(PWR->PDCRC, (GPIONumber & PWR_PORTC_AVAILABLE_PINS));
 718              		.loc 1 425 7 is_stmt 1 view .LVU151
 719 0038 0D4B     		ldr	r3, .L65
 720 003a 5A6B     		ldr	r2, [r3, #52]
 721 003c 21F4FC51 		bic	r1, r1, #8064
 722              	.LVL52:
 723              		.loc 1 425 7 is_stmt 0 view .LVU152
 724 0040 0904     		lsls	r1, r1, #16
 725 0042 090C     		lsrs	r1, r1, #16
 726 0044 0A43     		orrs	r2, r2, r1
 727 0046 5A63     		str	r2, [r3, #52]
 426:external/drivers/stm32wlxx/src/stm32wlxx_hal_pwr_ex.c ****       CLEAR_BIT(PWR->PUCRC, (GPIONumber & PWR_PORTC_AVAILABLE_PINS));
 728              		.loc 1 426 7 is_stmt 1 view .LVU153
 729 0048 1A6B     		ldr	r2, [r3, #48]
 730 004a 22EA0102 		bic	r2, r2, r1
 731 004e 1A63     		str	r2, [r3, #48]
 427:external/drivers/stm32wlxx/src/stm32wlxx_hal_pwr_ex.c ****       break;
 732              		.loc 1 427 7 view .LVU154
 409:external/drivers/stm32wlxx/src/stm32wlxx_hal_pwr_ex.c **** 
 733              		.loc 1 409 21 is_stmt 0 view .LVU155
 734 0050 0020     		movs	r0, #0
 735              	.LVL53:
 736              		.loc 1 427 7 view .LVU156
 737 0052 7047     		bx	lr
 738              	.LVL54:
 739              	.L59:
 428:external/drivers/stm32wlxx/src/stm32wlxx_hal_pwr_ex.c ****     case PWR_GPIO_H:
 429:external/drivers/stm32wlxx/src/stm32wlxx_hal_pwr_ex.c ****       SET_BIT(PWR->PDCRH, (GPIONumber & PWR_PORTH_AVAILABLE_PINS));
ARM GAS  /tmp/ccEyuVux.s 			page 45


 740              		.loc 1 429 7 is_stmt 1 view .LVU157
 741 0054 064B     		ldr	r3, .L65
 742 0056 DA6D     		ldr	r2, [r3, #92]
 743 0058 01F00801 		and	r1, r1, #8
 744              	.LVL55:
 745              		.loc 1 429 7 is_stmt 0 view .LVU158
 746 005c 0A43     		orrs	r2, r2, r1
 747 005e DA65     		str	r2, [r3, #92]
 430:external/drivers/stm32wlxx/src/stm32wlxx_hal_pwr_ex.c ****       CLEAR_BIT(PWR->PUCRH, (GPIONumber & PWR_PORTH_AVAILABLE_PINS));
 748              		.loc 1 430 7 is_stmt 1 view .LVU159
 749 0060 9A6D     		ldr	r2, [r3, #88]
 750 0062 22EA0102 		bic	r2, r2, r1
 751 0066 9A65     		str	r2, [r3, #88]
 431:external/drivers/stm32wlxx/src/stm32wlxx_hal_pwr_ex.c ****       break;
 752              		.loc 1 431 7 view .LVU160
 409:external/drivers/stm32wlxx/src/stm32wlxx_hal_pwr_ex.c **** 
 753              		.loc 1 409 21 is_stmt 0 view .LVU161
 754 0068 0020     		movs	r0, #0
 755              	.LVL56:
 756              		.loc 1 431 7 view .LVU162
 757 006a 7047     		bx	lr
 758              	.LVL57:
 759              	.L64:
 414:external/drivers/stm32wlxx/src/stm32wlxx_hal_pwr_ex.c ****   {
 760              		.loc 1 414 3 view .LVU163
 761 006c 0120     		movs	r0, #1
 762              	.LVL58:
 432:external/drivers/stm32wlxx/src/stm32wlxx_hal_pwr_ex.c ****     default:
 433:external/drivers/stm32wlxx/src/stm32wlxx_hal_pwr_ex.c ****       status = HAL_ERROR;
 434:external/drivers/stm32wlxx/src/stm32wlxx_hal_pwr_ex.c ****       break;
 435:external/drivers/stm32wlxx/src/stm32wlxx_hal_pwr_ex.c ****   }
 436:external/drivers/stm32wlxx/src/stm32wlxx_hal_pwr_ex.c **** 
 437:external/drivers/stm32wlxx/src/stm32wlxx_hal_pwr_ex.c ****   return status;
 763              		.loc 1 437 3 is_stmt 1 view .LVU164
 438:external/drivers/stm32wlxx/src/stm32wlxx_hal_pwr_ex.c **** }
 764              		.loc 1 438 1 is_stmt 0 view .LVU165
 765 006e 7047     		bx	lr
 766              	.L66:
 767              		.align	2
 768              	.L65:
 769 0070 00040058 		.word	1476396032
 770              		.cfi_endproc
 771              	.LFE855:
 773              		.section	.text.HAL_PWREx_DisableGPIOPullDown,"ax",%progbits
 774              		.align	1
 775              		.global	HAL_PWREx_DisableGPIOPullDown
 776              		.syntax unified
 777              		.thumb
 778              		.thumb_func
 780              	HAL_PWREx_DisableGPIOPullDown:
 781              	.LVL59:
 782              	.LFB856:
 439:external/drivers/stm32wlxx/src/stm32wlxx_hal_pwr_ex.c **** 
 440:external/drivers/stm32wlxx/src/stm32wlxx_hal_pwr_ex.c **** /**
 441:external/drivers/stm32wlxx/src/stm32wlxx_hal_pwr_ex.c ****   * @brief Disable GPIO pull-down state in Standby and Shutdown modes.
 442:external/drivers/stm32wlxx/src/stm32wlxx_hal_pwr_ex.c ****   * @note  Reset the relevant PDy bits of PWR_PDCRx register used to configure the I/O
 443:external/drivers/stm32wlxx/src/stm32wlxx_hal_pwr_ex.c ****   *        in pull-down state in Standby and Shutdown modes.
ARM GAS  /tmp/ccEyuVux.s 			page 46


 444:external/drivers/stm32wlxx/src/stm32wlxx_hal_pwr_ex.c ****   * @note  Even if a PDy bit to reset is reserved, the other PDy bits entered as input
 445:external/drivers/stm32wlxx/src/stm32wlxx_hal_pwr_ex.c ****   *        parameter at the same time are reset.
 446:external/drivers/stm32wlxx/src/stm32wlxx_hal_pwr_ex.c ****   * @param GPIO Specifies the IO port. This parameter can be PWR_GPIO_A..PWR_GPIO_H
 447:external/drivers/stm32wlxx/src/stm32wlxx_hal_pwr_ex.c ****   *         to select the GPIO peripheral.
 448:external/drivers/stm32wlxx/src/stm32wlxx_hal_pwr_ex.c ****   * @param GPIONumber Specify the I/O pins numbers.
 449:external/drivers/stm32wlxx/src/stm32wlxx_hal_pwr_ex.c ****   *         This parameter can be one of the following values:
 450:external/drivers/stm32wlxx/src/stm32wlxx_hal_pwr_ex.c ****   *         PWR_GPIO_BIT_0, ..., PWR_GPIO_BIT_15 (except for PORTH where less
 451:external/drivers/stm32wlxx/src/stm32wlxx_hal_pwr_ex.c ****   *         I/O pins are available) or the logical OR of several of them to reset
 452:external/drivers/stm32wlxx/src/stm32wlxx_hal_pwr_ex.c ****   *         several bits for a given port in a single API call.
 453:external/drivers/stm32wlxx/src/stm32wlxx_hal_pwr_ex.c ****   * @retval HAL Status
 454:external/drivers/stm32wlxx/src/stm32wlxx_hal_pwr_ex.c ****   */
 455:external/drivers/stm32wlxx/src/stm32wlxx_hal_pwr_ex.c **** HAL_StatusTypeDef HAL_PWREx_DisableGPIOPullDown(uint32_t GPIO, uint32_t GPIONumber)
 456:external/drivers/stm32wlxx/src/stm32wlxx_hal_pwr_ex.c **** {
 783              		.loc 1 456 1 is_stmt 1 view -0
 784              		.cfi_startproc
 785              		@ args = 0, pretend = 0, frame = 0
 786              		@ frame_needed = 0, uses_anonymous_args = 0
 787              		@ link register save eliminated.
 457:external/drivers/stm32wlxx/src/stm32wlxx_hal_pwr_ex.c ****   HAL_StatusTypeDef status = HAL_OK;
 788              		.loc 1 457 3 view .LVU167
 458:external/drivers/stm32wlxx/src/stm32wlxx_hal_pwr_ex.c **** 
 459:external/drivers/stm32wlxx/src/stm32wlxx_hal_pwr_ex.c ****   assert_param(IS_PWR_GPIO(GPIO));
 789              		.loc 1 459 3 view .LVU168
 460:external/drivers/stm32wlxx/src/stm32wlxx_hal_pwr_ex.c ****   assert_param(IS_PWR_GPIO_BIT_NUMBER(GPIONumber));
 790              		.loc 1 460 3 view .LVU169
 461:external/drivers/stm32wlxx/src/stm32wlxx_hal_pwr_ex.c **** 
 462:external/drivers/stm32wlxx/src/stm32wlxx_hal_pwr_ex.c ****   switch (GPIO)
 791              		.loc 1 462 3 view .LVU170
 792 0000 0728     		cmp	r0, #7
 793 0002 27D8     		bhi	.L74
 794 0004 DFE800F0 		tbb	[pc, r0]
 795              	.L70:
 796 0008 04       		.byte	(.L73-.L70)/2
 797 0009 0B       		.byte	(.L72-.L70)/2
 798 000a 12       		.byte	(.L71-.L70)/2
 799 000b 26       		.byte	(.L74-.L70)/2
 800 000c 26       		.byte	(.L74-.L70)/2
 801 000d 26       		.byte	(.L74-.L70)/2
 802 000e 26       		.byte	(.L74-.L70)/2
 803 000f 1D       		.byte	(.L69-.L70)/2
 804              		.p2align 1
 805              	.L73:
 463:external/drivers/stm32wlxx/src/stm32wlxx_hal_pwr_ex.c ****   {
 464:external/drivers/stm32wlxx/src/stm32wlxx_hal_pwr_ex.c ****     case PWR_GPIO_A:
 465:external/drivers/stm32wlxx/src/stm32wlxx_hal_pwr_ex.c ****       CLEAR_BIT(PWR->PDCRA, GPIONumber);
 806              		.loc 1 465 7 view .LVU171
 807 0010 114A     		ldr	r2, .L75
 808 0012 536A     		ldr	r3, [r2, #36]
 809 0014 23EA0103 		bic	r3, r3, r1
 810 0018 5362     		str	r3, [r2, #36]
 466:external/drivers/stm32wlxx/src/stm32wlxx_hal_pwr_ex.c ****       break;
 811              		.loc 1 466 7 view .LVU172
 457:external/drivers/stm32wlxx/src/stm32wlxx_hal_pwr_ex.c **** 
 812              		.loc 1 457 21 is_stmt 0 view .LVU173
 813 001a 0020     		movs	r0, #0
 814              	.LVL60:
 815              		.loc 1 466 7 view .LVU174
ARM GAS  /tmp/ccEyuVux.s 			page 47


 816 001c 7047     		bx	lr
 817              	.LVL61:
 818              	.L72:
 467:external/drivers/stm32wlxx/src/stm32wlxx_hal_pwr_ex.c ****     case PWR_GPIO_B:
 468:external/drivers/stm32wlxx/src/stm32wlxx_hal_pwr_ex.c ****       CLEAR_BIT(PWR->PDCRB, GPIONumber);
 819              		.loc 1 468 7 is_stmt 1 view .LVU175
 820 001e 0E4A     		ldr	r2, .L75
 821 0020 D36A     		ldr	r3, [r2, #44]
 822 0022 23EA0103 		bic	r3, r3, r1
 823 0026 D362     		str	r3, [r2, #44]
 469:external/drivers/stm32wlxx/src/stm32wlxx_hal_pwr_ex.c ****       break;
 824              		.loc 1 469 7 view .LVU176
 457:external/drivers/stm32wlxx/src/stm32wlxx_hal_pwr_ex.c **** 
 825              		.loc 1 457 21 is_stmt 0 view .LVU177
 826 0028 0020     		movs	r0, #0
 827              	.LVL62:
 828              		.loc 1 469 7 view .LVU178
 829 002a 7047     		bx	lr
 830              	.LVL63:
 831              	.L71:
 470:external/drivers/stm32wlxx/src/stm32wlxx_hal_pwr_ex.c ****     case PWR_GPIO_C:
 471:external/drivers/stm32wlxx/src/stm32wlxx_hal_pwr_ex.c ****       CLEAR_BIT(PWR->PDCRC, (GPIONumber & PWR_PORTC_AVAILABLE_PINS));
 832              		.loc 1 471 7 is_stmt 1 view .LVU179
 833 002c 0A4A     		ldr	r2, .L75
 834 002e 536B     		ldr	r3, [r2, #52]
 835 0030 21F4FC51 		bic	r1, r1, #8064
 836              	.LVL64:
 837              		.loc 1 471 7 is_stmt 0 view .LVU180
 838 0034 0904     		lsls	r1, r1, #16
 839 0036 090C     		lsrs	r1, r1, #16
 840 0038 23EA0103 		bic	r3, r3, r1
 841 003c 5363     		str	r3, [r2, #52]
 472:external/drivers/stm32wlxx/src/stm32wlxx_hal_pwr_ex.c ****       break;
 842              		.loc 1 472 7 is_stmt 1 view .LVU181
 457:external/drivers/stm32wlxx/src/stm32wlxx_hal_pwr_ex.c **** 
 843              		.loc 1 457 21 is_stmt 0 view .LVU182
 844 003e 0020     		movs	r0, #0
 845              	.LVL65:
 846              		.loc 1 472 7 view .LVU183
 847 0040 7047     		bx	lr
 848              	.LVL66:
 849              	.L69:
 473:external/drivers/stm32wlxx/src/stm32wlxx_hal_pwr_ex.c ****     case PWR_GPIO_H:
 474:external/drivers/stm32wlxx/src/stm32wlxx_hal_pwr_ex.c ****       CLEAR_BIT(PWR->PDCRH, (GPIONumber & PWR_PORTH_AVAILABLE_PINS));
 850              		.loc 1 474 7 is_stmt 1 view .LVU184
 851 0042 054A     		ldr	r2, .L75
 852 0044 D36D     		ldr	r3, [r2, #92]
 853 0046 01F00801 		and	r1, r1, #8
 854              	.LVL67:
 855              		.loc 1 474 7 is_stmt 0 view .LVU185
 856 004a 23EA0103 		bic	r3, r3, r1
 857 004e D365     		str	r3, [r2, #92]
 475:external/drivers/stm32wlxx/src/stm32wlxx_hal_pwr_ex.c ****       break;
 858              		.loc 1 475 7 is_stmt 1 view .LVU186
 457:external/drivers/stm32wlxx/src/stm32wlxx_hal_pwr_ex.c **** 
 859              		.loc 1 457 21 is_stmt 0 view .LVU187
 860 0050 0020     		movs	r0, #0
ARM GAS  /tmp/ccEyuVux.s 			page 48


 861              	.LVL68:
 862              		.loc 1 475 7 view .LVU188
 863 0052 7047     		bx	lr
 864              	.LVL69:
 865              	.L74:
 462:external/drivers/stm32wlxx/src/stm32wlxx_hal_pwr_ex.c ****   {
 866              		.loc 1 462 3 view .LVU189
 867 0054 0120     		movs	r0, #1
 868              	.LVL70:
 476:external/drivers/stm32wlxx/src/stm32wlxx_hal_pwr_ex.c ****     default:
 477:external/drivers/stm32wlxx/src/stm32wlxx_hal_pwr_ex.c ****       status = HAL_ERROR;
 478:external/drivers/stm32wlxx/src/stm32wlxx_hal_pwr_ex.c ****       break;
 479:external/drivers/stm32wlxx/src/stm32wlxx_hal_pwr_ex.c ****   }
 480:external/drivers/stm32wlxx/src/stm32wlxx_hal_pwr_ex.c **** 
 481:external/drivers/stm32wlxx/src/stm32wlxx_hal_pwr_ex.c ****   return status;
 869              		.loc 1 481 3 is_stmt 1 view .LVU190
 482:external/drivers/stm32wlxx/src/stm32wlxx_hal_pwr_ex.c **** }
 870              		.loc 1 482 1 is_stmt 0 view .LVU191
 871 0056 7047     		bx	lr
 872              	.L76:
 873              		.align	2
 874              	.L75:
 875 0058 00040058 		.word	1476396032
 876              		.cfi_endproc
 877              	.LFE856:
 879              		.section	.text.HAL_PWREx_EnablePullUpPullDownConfig,"ax",%progbits
 880              		.align	1
 881              		.global	HAL_PWREx_EnablePullUpPullDownConfig
 882              		.syntax unified
 883              		.thumb
 884              		.thumb_func
 886              	HAL_PWREx_EnablePullUpPullDownConfig:
 887              	.LFB857:
 483:external/drivers/stm32wlxx/src/stm32wlxx_hal_pwr_ex.c **** 
 484:external/drivers/stm32wlxx/src/stm32wlxx_hal_pwr_ex.c **** /**
 485:external/drivers/stm32wlxx/src/stm32wlxx_hal_pwr_ex.c ****   * @brief Enable pull-up and pull-down configuration.
 486:external/drivers/stm32wlxx/src/stm32wlxx_hal_pwr_ex.c ****   * @note  When APC bit is set, the I/O pull-up and pull-down configurations defined in
 487:external/drivers/stm32wlxx/src/stm32wlxx_hal_pwr_ex.c ****   *        PWR_PUCRx and PWR_PDCRx registers are applied in Standby and Shutdown modes.
 488:external/drivers/stm32wlxx/src/stm32wlxx_hal_pwr_ex.c ****   * @note  Pull-up set by PUy bit of PWR_PUCRx register is not activated if the corresponding
 489:external/drivers/stm32wlxx/src/stm32wlxx_hal_pwr_ex.c ****   *        PDy bit of PWR_PDCRx register is also set (pull-down configuration priority is higher).
 490:external/drivers/stm32wlxx/src/stm32wlxx_hal_pwr_ex.c ****   *        HAL_PWREx_EnableGPIOPullUp() and HAL_PWREx_EnableGPIOPullDown() API's ensure there
 491:external/drivers/stm32wlxx/src/stm32wlxx_hal_pwr_ex.c ****   *        is no conflict when setting PUy or PDy bit.
 492:external/drivers/stm32wlxx/src/stm32wlxx_hal_pwr_ex.c ****   * @retval None
 493:external/drivers/stm32wlxx/src/stm32wlxx_hal_pwr_ex.c ****   */
 494:external/drivers/stm32wlxx/src/stm32wlxx_hal_pwr_ex.c **** void HAL_PWREx_EnablePullUpPullDownConfig(void)
 495:external/drivers/stm32wlxx/src/stm32wlxx_hal_pwr_ex.c **** {
 888              		.loc 1 495 1 is_stmt 1 view -0
 889              		.cfi_startproc
 890              		@ args = 0, pretend = 0, frame = 0
 891              		@ frame_needed = 0, uses_anonymous_args = 0
 892              		@ link register save eliminated.
 496:external/drivers/stm32wlxx/src/stm32wlxx_hal_pwr_ex.c **** #ifdef CORE_CM0PLUS
 497:external/drivers/stm32wlxx/src/stm32wlxx_hal_pwr_ex.c ****   SET_BIT(PWR->C2CR3, PWR_C2CR3_APC);
 498:external/drivers/stm32wlxx/src/stm32wlxx_hal_pwr_ex.c **** #else
 499:external/drivers/stm32wlxx/src/stm32wlxx_hal_pwr_ex.c ****   SET_BIT(PWR->CR3, PWR_CR3_APC);
 893              		.loc 1 499 3 view .LVU193
 894 0000 024A     		ldr	r2, .L78
ARM GAS  /tmp/ccEyuVux.s 			page 49


 895 0002 9368     		ldr	r3, [r2, #8]
 896 0004 43F48063 		orr	r3, r3, #1024
 897 0008 9360     		str	r3, [r2, #8]
 500:external/drivers/stm32wlxx/src/stm32wlxx_hal_pwr_ex.c **** #endif /* CORE_CM0PLUS */
 501:external/drivers/stm32wlxx/src/stm32wlxx_hal_pwr_ex.c **** }
 898              		.loc 1 501 1 is_stmt 0 view .LVU194
 899 000a 7047     		bx	lr
 900              	.L79:
 901              		.align	2
 902              	.L78:
 903 000c 00040058 		.word	1476396032
 904              		.cfi_endproc
 905              	.LFE857:
 907              		.section	.text.HAL_PWREx_DisablePullUpPullDownConfig,"ax",%progbits
 908              		.align	1
 909              		.global	HAL_PWREx_DisablePullUpPullDownConfig
 910              		.syntax unified
 911              		.thumb
 912              		.thumb_func
 914              	HAL_PWREx_DisablePullUpPullDownConfig:
 915              	.LFB858:
 502:external/drivers/stm32wlxx/src/stm32wlxx_hal_pwr_ex.c **** 
 503:external/drivers/stm32wlxx/src/stm32wlxx_hal_pwr_ex.c **** /**
 504:external/drivers/stm32wlxx/src/stm32wlxx_hal_pwr_ex.c ****   * @brief Disable pull-up and pull-down configuration.
 505:external/drivers/stm32wlxx/src/stm32wlxx_hal_pwr_ex.c ****   * @note  When APC bit is cleared, the I/O pull-up and pull-down configurations defined in
 506:external/drivers/stm32wlxx/src/stm32wlxx_hal_pwr_ex.c ****   *        PWR_PUCRx and PWR_PDCRx registers are not applied in Standby and Shutdown modes.
 507:external/drivers/stm32wlxx/src/stm32wlxx_hal_pwr_ex.c ****   * @retval None
 508:external/drivers/stm32wlxx/src/stm32wlxx_hal_pwr_ex.c ****   */
 509:external/drivers/stm32wlxx/src/stm32wlxx_hal_pwr_ex.c **** void HAL_PWREx_DisablePullUpPullDownConfig(void)
 510:external/drivers/stm32wlxx/src/stm32wlxx_hal_pwr_ex.c **** {
 916              		.loc 1 510 1 is_stmt 1 view -0
 917              		.cfi_startproc
 918              		@ args = 0, pretend = 0, frame = 0
 919              		@ frame_needed = 0, uses_anonymous_args = 0
 920              		@ link register save eliminated.
 511:external/drivers/stm32wlxx/src/stm32wlxx_hal_pwr_ex.c **** #ifdef CORE_CM0PLUS
 512:external/drivers/stm32wlxx/src/stm32wlxx_hal_pwr_ex.c ****   CLEAR_BIT(PWR->C2CR3, PWR_C2CR3_APC);
 513:external/drivers/stm32wlxx/src/stm32wlxx_hal_pwr_ex.c **** #else
 514:external/drivers/stm32wlxx/src/stm32wlxx_hal_pwr_ex.c ****   CLEAR_BIT(PWR->CR3, PWR_CR3_APC);
 921              		.loc 1 514 3 view .LVU196
 922 0000 024A     		ldr	r2, .L81
 923 0002 9368     		ldr	r3, [r2, #8]
 924 0004 23F48063 		bic	r3, r3, #1024
 925 0008 9360     		str	r3, [r2, #8]
 515:external/drivers/stm32wlxx/src/stm32wlxx_hal_pwr_ex.c **** #endif /* CORE_CM0PLUS */
 516:external/drivers/stm32wlxx/src/stm32wlxx_hal_pwr_ex.c **** }
 926              		.loc 1 516 1 is_stmt 0 view .LVU197
 927 000a 7047     		bx	lr
 928              	.L82:
 929              		.align	2
 930              	.L81:
 931 000c 00040058 		.word	1476396032
 932              		.cfi_endproc
 933              	.LFE858:
 935              		.section	.text.HAL_PWREx_EnableSRAMRetention,"ax",%progbits
 936              		.align	1
 937              		.global	HAL_PWREx_EnableSRAMRetention
ARM GAS  /tmp/ccEyuVux.s 			page 50


 938              		.syntax unified
 939              		.thumb
 940              		.thumb_func
 942              	HAL_PWREx_EnableSRAMRetention:
 943              	.LFB859:
 517:external/drivers/stm32wlxx/src/stm32wlxx_hal_pwr_ex.c **** 
 518:external/drivers/stm32wlxx/src/stm32wlxx_hal_pwr_ex.c **** /****************************************************************************/
 519:external/drivers/stm32wlxx/src/stm32wlxx_hal_pwr_ex.c **** 
 520:external/drivers/stm32wlxx/src/stm32wlxx_hal_pwr_ex.c **** #if defined(DUAL_CORE)
 521:external/drivers/stm32wlxx/src/stm32wlxx_hal_pwr_ex.c **** /**
 522:external/drivers/stm32wlxx/src/stm32wlxx_hal_pwr_ex.c ****   * @brief  Hold CPU and allocated peripherals after reset or wakeup from Stop or Standby.
 523:external/drivers/stm32wlxx/src/stm32wlxx_hal_pwr_ex.c ****   * @param  CPU Specifies the core to be held.
 524:external/drivers/stm32wlxx/src/stm32wlxx_hal_pwr_ex.c ****   *             This parameter can be one of the following values:
 525:external/drivers/stm32wlxx/src/stm32wlxx_hal_pwr_ex.c ****   *             @arg PWR_CORE_CPU2: Hold CPU2.
 526:external/drivers/stm32wlxx/src/stm32wlxx_hal_pwr_ex.c ****   * @note   Hold CPU2 with CPU1 as master by default.
 527:external/drivers/stm32wlxx/src/stm32wlxx_hal_pwr_ex.c ****   * @retval None
 528:external/drivers/stm32wlxx/src/stm32wlxx_hal_pwr_ex.c ****   */
 529:external/drivers/stm32wlxx/src/stm32wlxx_hal_pwr_ex.c **** void HAL_PWREx_HoldCore(uint32_t CPU)
 530:external/drivers/stm32wlxx/src/stm32wlxx_hal_pwr_ex.c **** {
 531:external/drivers/stm32wlxx/src/stm32wlxx_hal_pwr_ex.c ****   /* Check the parameters */
 532:external/drivers/stm32wlxx/src/stm32wlxx_hal_pwr_ex.c ****   assert_param(IS_PWR_CORE_HOLD_RELEASE(CPU));
 533:external/drivers/stm32wlxx/src/stm32wlxx_hal_pwr_ex.c **** 
 534:external/drivers/stm32wlxx/src/stm32wlxx_hal_pwr_ex.c ****   LL_PWR_DisableBootC2();
 535:external/drivers/stm32wlxx/src/stm32wlxx_hal_pwr_ex.c **** }
 536:external/drivers/stm32wlxx/src/stm32wlxx_hal_pwr_ex.c **** 
 537:external/drivers/stm32wlxx/src/stm32wlxx_hal_pwr_ex.c **** /**
 538:external/drivers/stm32wlxx/src/stm32wlxx_hal_pwr_ex.c ****   * @brief  Release CPU and allocated peripherals after reset or wakeup from Stop or Standby.
 539:external/drivers/stm32wlxx/src/stm32wlxx_hal_pwr_ex.c ****   * @param  CPU Specifies the core to be released.
 540:external/drivers/stm32wlxx/src/stm32wlxx_hal_pwr_ex.c ****   *             This parameter can be one of the following values:
 541:external/drivers/stm32wlxx/src/stm32wlxx_hal_pwr_ex.c ****   *             @arg PWR_CORE_CPU2: Release the CPU2 from holding.
 542:external/drivers/stm32wlxx/src/stm32wlxx_hal_pwr_ex.c ****   * @retval None
 543:external/drivers/stm32wlxx/src/stm32wlxx_hal_pwr_ex.c ****   */
 544:external/drivers/stm32wlxx/src/stm32wlxx_hal_pwr_ex.c **** void HAL_PWREx_ReleaseCore(uint32_t CPU)
 545:external/drivers/stm32wlxx/src/stm32wlxx_hal_pwr_ex.c **** {
 546:external/drivers/stm32wlxx/src/stm32wlxx_hal_pwr_ex.c ****   /* Check the parameters */
 547:external/drivers/stm32wlxx/src/stm32wlxx_hal_pwr_ex.c ****   assert_param(IS_PWR_CORE_HOLD_RELEASE(CPU));
 548:external/drivers/stm32wlxx/src/stm32wlxx_hal_pwr_ex.c **** 
 549:external/drivers/stm32wlxx/src/stm32wlxx_hal_pwr_ex.c ****   LL_PWR_EnableBootC2();
 550:external/drivers/stm32wlxx/src/stm32wlxx_hal_pwr_ex.c **** }
 551:external/drivers/stm32wlxx/src/stm32wlxx_hal_pwr_ex.c **** 
 552:external/drivers/stm32wlxx/src/stm32wlxx_hal_pwr_ex.c **** /****************************************************************************/
 553:external/drivers/stm32wlxx/src/stm32wlxx_hal_pwr_ex.c **** #ifdef CORE_CM0PLUS
 554:external/drivers/stm32wlxx/src/stm32wlxx_hal_pwr_ex.c **** /**
 555:external/drivers/stm32wlxx/src/stm32wlxx_hal_pwr_ex.c ****   * @brief  Enable CPU2 wake-up from low-power mode on illegal access occurrence
 556:external/drivers/stm32wlxx/src/stm32wlxx_hal_pwr_ex.c ****   * @note   Can be configured from CPU2 only
 557:external/drivers/stm32wlxx/src/stm32wlxx_hal_pwr_ex.c ****   * @retval None
 558:external/drivers/stm32wlxx/src/stm32wlxx_hal_pwr_ex.c ****   */
 559:external/drivers/stm32wlxx/src/stm32wlxx_hal_pwr_ex.c **** void HAL_PWREx_EnableWakeUp_ILAC(void)
 560:external/drivers/stm32wlxx/src/stm32wlxx_hal_pwr_ex.c **** {
 561:external/drivers/stm32wlxx/src/stm32wlxx_hal_pwr_ex.c ****   LL_PWR_C2_EnableWakeUp_ILAC();
 562:external/drivers/stm32wlxx/src/stm32wlxx_hal_pwr_ex.c **** }
 563:external/drivers/stm32wlxx/src/stm32wlxx_hal_pwr_ex.c **** 
 564:external/drivers/stm32wlxx/src/stm32wlxx_hal_pwr_ex.c **** /**
 565:external/drivers/stm32wlxx/src/stm32wlxx_hal_pwr_ex.c ****   * @brief  Disable CPU2 wake-up from low-power mode on illegal access occurrence
 566:external/drivers/stm32wlxx/src/stm32wlxx_hal_pwr_ex.c ****   * @note   Can be configured from CPU2 only
 567:external/drivers/stm32wlxx/src/stm32wlxx_hal_pwr_ex.c ****   * @retval None
 568:external/drivers/stm32wlxx/src/stm32wlxx_hal_pwr_ex.c ****   */
ARM GAS  /tmp/ccEyuVux.s 			page 51


 569:external/drivers/stm32wlxx/src/stm32wlxx_hal_pwr_ex.c **** void HAL_PWREx_DisableWakeUp_ILAC(void)
 570:external/drivers/stm32wlxx/src/stm32wlxx_hal_pwr_ex.c **** {
 571:external/drivers/stm32wlxx/src/stm32wlxx_hal_pwr_ex.c ****   LL_PWR_C2_DisableWakeUp_ILAC();
 572:external/drivers/stm32wlxx/src/stm32wlxx_hal_pwr_ex.c **** }
 573:external/drivers/stm32wlxx/src/stm32wlxx_hal_pwr_ex.c **** 
 574:external/drivers/stm32wlxx/src/stm32wlxx_hal_pwr_ex.c **** /**
 575:external/drivers/stm32wlxx/src/stm32wlxx_hal_pwr_ex.c ****   * @brief  Check if bit to wake-up CPU2 from low-power mode on illegal access
 576:external/drivers/stm32wlxx/src/stm32wlxx_hal_pwr_ex.c ****   *         occurrence is set
 577:external/drivers/stm32wlxx/src/stm32wlxx_hal_pwr_ex.c ****   * @note   Can be used from CPU2 only
 578:external/drivers/stm32wlxx/src/stm32wlxx_hal_pwr_ex.c ****   * @retval State of bit (1 or 0)
 579:external/drivers/stm32wlxx/src/stm32wlxx_hal_pwr_ex.c ****   */
 580:external/drivers/stm32wlxx/src/stm32wlxx_hal_pwr_ex.c **** uint32_t HAL_PWREx_IsEnabledWakeUp_ILAC(void)
 581:external/drivers/stm32wlxx/src/stm32wlxx_hal_pwr_ex.c **** {
 582:external/drivers/stm32wlxx/src/stm32wlxx_hal_pwr_ex.c ****   return LL_PWR_C2_IsEnabledWakeUp_ILAC();
 583:external/drivers/stm32wlxx/src/stm32wlxx_hal_pwr_ex.c **** }
 584:external/drivers/stm32wlxx/src/stm32wlxx_hal_pwr_ex.c **** #endif /* CORE_CM0PLUS */
 585:external/drivers/stm32wlxx/src/stm32wlxx_hal_pwr_ex.c **** #endif /* DUAL_CORE */
 586:external/drivers/stm32wlxx/src/stm32wlxx_hal_pwr_ex.c **** 
 587:external/drivers/stm32wlxx/src/stm32wlxx_hal_pwr_ex.c **** /****************************************************************************/
 588:external/drivers/stm32wlxx/src/stm32wlxx_hal_pwr_ex.c **** /**
 589:external/drivers/stm32wlxx/src/stm32wlxx_hal_pwr_ex.c ****   * @brief Enable SRAM2 content retention in Standby mode.
 590:external/drivers/stm32wlxx/src/stm32wlxx_hal_pwr_ex.c ****   * @note  When RRS bit is set, SRAM is powered by the low-power regulator in
 591:external/drivers/stm32wlxx/src/stm32wlxx_hal_pwr_ex.c ****   *         Standby mode and its content is kept.
 592:external/drivers/stm32wlxx/src/stm32wlxx_hal_pwr_ex.c ****   * @retval None
 593:external/drivers/stm32wlxx/src/stm32wlxx_hal_pwr_ex.c ****   */
 594:external/drivers/stm32wlxx/src/stm32wlxx_hal_pwr_ex.c **** void HAL_PWREx_EnableSRAMRetention(void)
 595:external/drivers/stm32wlxx/src/stm32wlxx_hal_pwr_ex.c **** {
 944              		.loc 1 595 1 is_stmt 1 view -0
 945              		.cfi_startproc
 946              		@ args = 0, pretend = 0, frame = 0
 947              		@ frame_needed = 0, uses_anonymous_args = 0
 948              		@ link register save eliminated.
 596:external/drivers/stm32wlxx/src/stm32wlxx_hal_pwr_ex.c ****   LL_PWR_EnableSRAM2Retention();
 949              		.loc 1 596 3 view .LVU199
 950              	.LBB44:
 951              	.LBI44:
 705:external/drivers/stm32wlxx/include/stm32wlxx_ll_pwr.h **** {
 952              		.loc 2 705 22 view .LVU200
 953              	.LBB45:
 707:external/drivers/stm32wlxx/include/stm32wlxx_ll_pwr.h **** }
 954              		.loc 2 707 3 view .LVU201
 955 0000 024A     		ldr	r2, .L84
 956 0002 9368     		ldr	r3, [r2, #8]
 957 0004 43F40073 		orr	r3, r3, #512
 958 0008 9360     		str	r3, [r2, #8]
 959              	.LBE45:
 960              	.LBE44:
 597:external/drivers/stm32wlxx/src/stm32wlxx_hal_pwr_ex.c **** }
 961              		.loc 1 597 1 is_stmt 0 view .LVU202
 962 000a 7047     		bx	lr
 963              	.L85:
 964              		.align	2
 965              	.L84:
 966 000c 00040058 		.word	1476396032
 967              		.cfi_endproc
 968              	.LFE859:
 970              		.section	.text.HAL_PWREx_DisableSRAMRetention,"ax",%progbits
ARM GAS  /tmp/ccEyuVux.s 			page 52


 971              		.align	1
 972              		.global	HAL_PWREx_DisableSRAMRetention
 973              		.syntax unified
 974              		.thumb
 975              		.thumb_func
 977              	HAL_PWREx_DisableSRAMRetention:
 978              	.LFB860:
 598:external/drivers/stm32wlxx/src/stm32wlxx_hal_pwr_ex.c **** 
 599:external/drivers/stm32wlxx/src/stm32wlxx_hal_pwr_ex.c **** /**
 600:external/drivers/stm32wlxx/src/stm32wlxx_hal_pwr_ex.c ****   * @brief Disable SRAM2 content retention in Standby mode.
 601:external/drivers/stm32wlxx/src/stm32wlxx_hal_pwr_ex.c ****   * @note  When RRS bit is reset, SRAM is powered off in Standby mode
 602:external/drivers/stm32wlxx/src/stm32wlxx_hal_pwr_ex.c ****   *        and its content is lost.
 603:external/drivers/stm32wlxx/src/stm32wlxx_hal_pwr_ex.c ****   * @retval None
 604:external/drivers/stm32wlxx/src/stm32wlxx_hal_pwr_ex.c ****   */
 605:external/drivers/stm32wlxx/src/stm32wlxx_hal_pwr_ex.c **** void HAL_PWREx_DisableSRAMRetention(void)
 606:external/drivers/stm32wlxx/src/stm32wlxx_hal_pwr_ex.c **** {
 979              		.loc 1 606 1 is_stmt 1 view -0
 980              		.cfi_startproc
 981              		@ args = 0, pretend = 0, frame = 0
 982              		@ frame_needed = 0, uses_anonymous_args = 0
 983              		@ link register save eliminated.
 607:external/drivers/stm32wlxx/src/stm32wlxx_hal_pwr_ex.c ****   LL_PWR_DisableSRAM2Retention();
 984              		.loc 1 607 3 view .LVU204
 985              	.LBB46:
 986              	.LBI46:
 715:external/drivers/stm32wlxx/include/stm32wlxx_ll_pwr.h **** {
 987              		.loc 2 715 22 view .LVU205
 988              	.LBB47:
 717:external/drivers/stm32wlxx/include/stm32wlxx_ll_pwr.h **** }
 989              		.loc 2 717 3 view .LVU206
 990 0000 024A     		ldr	r2, .L87
 991 0002 9368     		ldr	r3, [r2, #8]
 992 0004 23F40073 		bic	r3, r3, #512
 993 0008 9360     		str	r3, [r2, #8]
 994              	.LBE47:
 995              	.LBE46:
 608:external/drivers/stm32wlxx/src/stm32wlxx_hal_pwr_ex.c **** }
 996              		.loc 1 608 1 is_stmt 0 view .LVU207
 997 000a 7047     		bx	lr
 998              	.L88:
 999              		.align	2
 1000              	.L87:
 1001 000c 00040058 		.word	1476396032
 1002              		.cfi_endproc
 1003              	.LFE860:
 1005              		.section	.text.HAL_PWREx_EnableFlashPowerDown,"ax",%progbits
 1006              		.align	1
 1007              		.global	HAL_PWREx_EnableFlashPowerDown
 1008              		.syntax unified
 1009              		.thumb
 1010              		.thumb_func
 1012              	HAL_PWREx_EnableFlashPowerDown:
 1013              	.LVL71:
 1014              	.LFB861:
 609:external/drivers/stm32wlxx/src/stm32wlxx_hal_pwr_ex.c **** 
 610:external/drivers/stm32wlxx/src/stm32wlxx_hal_pwr_ex.c **** /****************************************************************************/
 611:external/drivers/stm32wlxx/src/stm32wlxx_hal_pwr_ex.c **** /**
ARM GAS  /tmp/ccEyuVux.s 			page 53


 612:external/drivers/stm32wlxx/src/stm32wlxx_hal_pwr_ex.c ****   * @brief  Enable Flash Power Down.
 613:external/drivers/stm32wlxx/src/stm32wlxx_hal_pwr_ex.c ****   * @note   This API allows to enable flash power down capabilities in low power
 614:external/drivers/stm32wlxx/src/stm32wlxx_hal_pwr_ex.c ****   *         run and low power sleep modes.
 615:external/drivers/stm32wlxx/src/stm32wlxx_hal_pwr_ex.c ****   * @note   This configuration is effective when both CPU have selected it.
 616:external/drivers/stm32wlxx/src/stm32wlxx_hal_pwr_ex.c ****   * @param  PowerMode this can be a combination of following values:
 617:external/drivers/stm32wlxx/src/stm32wlxx_hal_pwr_ex.c ****   *           @arg @ref PWR_FLASHPD_LPRUN
 618:external/drivers/stm32wlxx/src/stm32wlxx_hal_pwr_ex.c ****   *           @arg @ref PWR_FLASHPD_LPSLEEP
 619:external/drivers/stm32wlxx/src/stm32wlxx_hal_pwr_ex.c ****   * @retval None
 620:external/drivers/stm32wlxx/src/stm32wlxx_hal_pwr_ex.c ****   */
 621:external/drivers/stm32wlxx/src/stm32wlxx_hal_pwr_ex.c **** void HAL_PWREx_EnableFlashPowerDown(uint32_t PowerMode)
 622:external/drivers/stm32wlxx/src/stm32wlxx_hal_pwr_ex.c **** {
 1015              		.loc 1 622 1 is_stmt 1 view -0
 1016              		.cfi_startproc
 1017              		@ args = 0, pretend = 0, frame = 0
 1018              		@ frame_needed = 0, uses_anonymous_args = 0
 1019              		@ link register save eliminated.
 623:external/drivers/stm32wlxx/src/stm32wlxx_hal_pwr_ex.c ****   assert_param(IS_PWR_FLASH_POWERDOWN(PowerMode));
 1020              		.loc 1 623 3 view .LVU209
 624:external/drivers/stm32wlxx/src/stm32wlxx_hal_pwr_ex.c **** 
 625:external/drivers/stm32wlxx/src/stm32wlxx_hal_pwr_ex.c **** #ifdef CORE_CM0PLUS
 626:external/drivers/stm32wlxx/src/stm32wlxx_hal_pwr_ex.c ****   if ((PowerMode & PWR_FLASHPD_LPRUN) != 0U)
 627:external/drivers/stm32wlxx/src/stm32wlxx_hal_pwr_ex.c ****   {
 628:external/drivers/stm32wlxx/src/stm32wlxx_hal_pwr_ex.c ****     /* Unlock bit FPDR */
 629:external/drivers/stm32wlxx/src/stm32wlxx_hal_pwr_ex.c ****     WRITE_REG(PWR->C2CR1, PWR_FLASH_POWER_MODE_UNLOCK_CODE);
 630:external/drivers/stm32wlxx/src/stm32wlxx_hal_pwr_ex.c ****   }
 631:external/drivers/stm32wlxx/src/stm32wlxx_hal_pwr_ex.c **** 
 632:external/drivers/stm32wlxx/src/stm32wlxx_hal_pwr_ex.c ****   /* Set flash power down mode */
 633:external/drivers/stm32wlxx/src/stm32wlxx_hal_pwr_ex.c ****   SET_BIT(PWR->C2CR1, PowerMode);
 634:external/drivers/stm32wlxx/src/stm32wlxx_hal_pwr_ex.c **** #else
 635:external/drivers/stm32wlxx/src/stm32wlxx_hal_pwr_ex.c ****   if ((PowerMode & PWR_FLASHPD_LPRUN) != 0U)
 1021              		.loc 1 635 3 view .LVU210
 1022              		.loc 1 635 6 is_stmt 0 view .LVU211
 1023 0000 10F0100F 		tst	r0, #16
 1024 0004 03D0     		beq	.L90
 636:external/drivers/stm32wlxx/src/stm32wlxx_hal_pwr_ex.c ****   {
 637:external/drivers/stm32wlxx/src/stm32wlxx_hal_pwr_ex.c ****     /* Unlock bit FPDR */
 638:external/drivers/stm32wlxx/src/stm32wlxx_hal_pwr_ex.c ****     WRITE_REG(PWR->CR1, PWR_FLASH_POWER_MODE_UNLOCK_CODE);
 1025              		.loc 1 638 5 is_stmt 1 view .LVU212
 1026 0006 044B     		ldr	r3, .L91
 1027 0008 4CF2B012 		movw	r2, #49584
 1028 000c 1A60     		str	r2, [r3]
 1029              	.L90:
 639:external/drivers/stm32wlxx/src/stm32wlxx_hal_pwr_ex.c ****   }
 640:external/drivers/stm32wlxx/src/stm32wlxx_hal_pwr_ex.c **** 
 641:external/drivers/stm32wlxx/src/stm32wlxx_hal_pwr_ex.c ****   /* Set flash power down mode */
 642:external/drivers/stm32wlxx/src/stm32wlxx_hal_pwr_ex.c ****   SET_BIT(PWR->CR1, PowerMode);
 1030              		.loc 1 642 3 view .LVU213
 1031 000e 024A     		ldr	r2, .L91
 1032 0010 1368     		ldr	r3, [r2]
 1033 0012 0343     		orrs	r3, r3, r0
 1034 0014 1360     		str	r3, [r2]
 643:external/drivers/stm32wlxx/src/stm32wlxx_hal_pwr_ex.c **** #endif /* CORE_CM0PLUS */
 644:external/drivers/stm32wlxx/src/stm32wlxx_hal_pwr_ex.c **** }
 1035              		.loc 1 644 1 is_stmt 0 view .LVU214
 1036 0016 7047     		bx	lr
 1037              	.L92:
 1038              		.align	2
ARM GAS  /tmp/ccEyuVux.s 			page 54


 1039              	.L91:
 1040 0018 00040058 		.word	1476396032
 1041              		.cfi_endproc
 1042              	.LFE861:
 1044              		.section	.text.HAL_PWREx_DisableFlashPowerDown,"ax",%progbits
 1045              		.align	1
 1046              		.global	HAL_PWREx_DisableFlashPowerDown
 1047              		.syntax unified
 1048              		.thumb
 1049              		.thumb_func
 1051              	HAL_PWREx_DisableFlashPowerDown:
 1052              	.LVL72:
 1053              	.LFB862:
 645:external/drivers/stm32wlxx/src/stm32wlxx_hal_pwr_ex.c **** 
 646:external/drivers/stm32wlxx/src/stm32wlxx_hal_pwr_ex.c **** /**
 647:external/drivers/stm32wlxx/src/stm32wlxx_hal_pwr_ex.c ****   * @brief  Disable Flash Power Down.
 648:external/drivers/stm32wlxx/src/stm32wlxx_hal_pwr_ex.c ****   * @note   This API allows to disable flash power down capabilities in low power
 649:external/drivers/stm32wlxx/src/stm32wlxx_hal_pwr_ex.c ****   *         run and low power sleep modes.
 650:external/drivers/stm32wlxx/src/stm32wlxx_hal_pwr_ex.c ****   * @note   This configuration is effective when both CPU have selected it.
 651:external/drivers/stm32wlxx/src/stm32wlxx_hal_pwr_ex.c ****   * @param  PowerMode this can be a combination of following values:
 652:external/drivers/stm32wlxx/src/stm32wlxx_hal_pwr_ex.c ****   *           @arg @ref PWR_FLASHPD_LPRUN
 653:external/drivers/stm32wlxx/src/stm32wlxx_hal_pwr_ex.c ****   *           @arg @ref PWR_FLASHPD_LPSLEEP
 654:external/drivers/stm32wlxx/src/stm32wlxx_hal_pwr_ex.c ****   * @retval None
 655:external/drivers/stm32wlxx/src/stm32wlxx_hal_pwr_ex.c ****   */
 656:external/drivers/stm32wlxx/src/stm32wlxx_hal_pwr_ex.c **** void HAL_PWREx_DisableFlashPowerDown(uint32_t PowerMode)
 657:external/drivers/stm32wlxx/src/stm32wlxx_hal_pwr_ex.c **** {
 1054              		.loc 1 657 1 is_stmt 1 view -0
 1055              		.cfi_startproc
 1056              		@ args = 0, pretend = 0, frame = 0
 1057              		@ frame_needed = 0, uses_anonymous_args = 0
 1058              		@ link register save eliminated.
 658:external/drivers/stm32wlxx/src/stm32wlxx_hal_pwr_ex.c ****   assert_param(IS_PWR_FLASH_POWERDOWN(PowerMode));
 1059              		.loc 1 658 3 view .LVU216
 659:external/drivers/stm32wlxx/src/stm32wlxx_hal_pwr_ex.c **** 
 660:external/drivers/stm32wlxx/src/stm32wlxx_hal_pwr_ex.c **** #ifdef CORE_CM0PLUS
 661:external/drivers/stm32wlxx/src/stm32wlxx_hal_pwr_ex.c ****   /* Set flash power down mode */
 662:external/drivers/stm32wlxx/src/stm32wlxx_hal_pwr_ex.c ****   CLEAR_BIT(PWR->C2CR1, PowerMode);
 663:external/drivers/stm32wlxx/src/stm32wlxx_hal_pwr_ex.c **** #else
 664:external/drivers/stm32wlxx/src/stm32wlxx_hal_pwr_ex.c ****   /* Set flash power down mode */
 665:external/drivers/stm32wlxx/src/stm32wlxx_hal_pwr_ex.c ****   CLEAR_BIT(PWR->CR1, PowerMode);
 1060              		.loc 1 665 3 view .LVU217
 1061 0000 024A     		ldr	r2, .L94
 1062 0002 1368     		ldr	r3, [r2]
 1063 0004 23EA0003 		bic	r3, r3, r0
 1064 0008 1360     		str	r3, [r2]
 666:external/drivers/stm32wlxx/src/stm32wlxx_hal_pwr_ex.c **** #endif /* CORE_CM0PLUS */
 667:external/drivers/stm32wlxx/src/stm32wlxx_hal_pwr_ex.c **** }
 1065              		.loc 1 667 1 is_stmt 0 view .LVU218
 1066 000a 7047     		bx	lr
 1067              	.L95:
 1068              		.align	2
 1069              	.L94:
 1070 000c 00040058 		.word	1476396032
 1071              		.cfi_endproc
 1072              	.LFE862:
 1074              		.section	.text.HAL_PWREx_EnableWPVD,"ax",%progbits
 1075              		.align	1
ARM GAS  /tmp/ccEyuVux.s 			page 55


 1076              		.global	HAL_PWREx_EnableWPVD
 1077              		.syntax unified
 1078              		.thumb
 1079              		.thumb_func
 1081              	HAL_PWREx_EnableWPVD:
 1082              	.LFB863:
 668:external/drivers/stm32wlxx/src/stm32wlxx_hal_pwr_ex.c **** 
 669:external/drivers/stm32wlxx/src/stm32wlxx_hal_pwr_ex.c **** /****************************************************************************/
 670:external/drivers/stm32wlxx/src/stm32wlxx_hal_pwr_ex.c **** /**
 671:external/drivers/stm32wlxx/src/stm32wlxx_hal_pwr_ex.c ****   * @brief  Enable wake-up power voltage detection
 672:external/drivers/stm32wlxx/src/stm32wlxx_hal_pwr_ex.c ****   * @note   Wake-up power voltage detection status can be checked
 673:external/drivers/stm32wlxx/src/stm32wlxx_hal_pwr_ex.c ****   *         using flag @ref PWR_FLAG_WPVD.
 674:external/drivers/stm32wlxx/src/stm32wlxx_hal_pwr_ex.c ****   * @retval None
 675:external/drivers/stm32wlxx/src/stm32wlxx_hal_pwr_ex.c ****   */
 676:external/drivers/stm32wlxx/src/stm32wlxx_hal_pwr_ex.c **** void HAL_PWREx_EnableWPVD(void)
 677:external/drivers/stm32wlxx/src/stm32wlxx_hal_pwr_ex.c **** {
 1083              		.loc 1 677 1 is_stmt 1 view -0
 1084              		.cfi_startproc
 1085              		@ args = 0, pretend = 0, frame = 0
 1086              		@ frame_needed = 0, uses_anonymous_args = 0
 1087              		@ link register save eliminated.
 678:external/drivers/stm32wlxx/src/stm32wlxx_hal_pwr_ex.c **** #ifdef CORE_CM0PLUS
 679:external/drivers/stm32wlxx/src/stm32wlxx_hal_pwr_ex.c ****   LL_C2_PWR_EnableWPVD();
 680:external/drivers/stm32wlxx/src/stm32wlxx_hal_pwr_ex.c **** #else
 681:external/drivers/stm32wlxx/src/stm32wlxx_hal_pwr_ex.c ****   LL_PWR_EnableWPVD();
 1088              		.loc 1 681 3 view .LVU220
 1089              	.LBB48:
 1090              	.LBI48:
 737:external/drivers/stm32wlxx/include/stm32wlxx_ll_pwr.h **** {
 1091              		.loc 2 737 22 view .LVU221
 1092              	.LBB49:
 739:external/drivers/stm32wlxx/include/stm32wlxx_ll_pwr.h **** }
 1093              		.loc 2 739 3 view .LVU222
 1094 0000 024A     		ldr	r2, .L97
 1095 0002 9368     		ldr	r3, [r2, #8]
 1096 0004 43F48073 		orr	r3, r3, #256
 1097 0008 9360     		str	r3, [r2, #8]
 1098              	.LBE49:
 1099              	.LBE48:
 682:external/drivers/stm32wlxx/src/stm32wlxx_hal_pwr_ex.c **** #endif /* CORE_CM0PLUS */
 683:external/drivers/stm32wlxx/src/stm32wlxx_hal_pwr_ex.c **** }
 1100              		.loc 1 683 1 is_stmt 0 view .LVU223
 1101 000a 7047     		bx	lr
 1102              	.L98:
 1103              		.align	2
 1104              	.L97:
 1105 000c 00040058 		.word	1476396032
 1106              		.cfi_endproc
 1107              	.LFE863:
 1109              		.section	.text.HAL_PWREx_DisableWPVD,"ax",%progbits
 1110              		.align	1
 1111              		.global	HAL_PWREx_DisableWPVD
 1112              		.syntax unified
 1113              		.thumb
 1114              		.thumb_func
 1116              	HAL_PWREx_DisableWPVD:
 1117              	.LFB864:
ARM GAS  /tmp/ccEyuVux.s 			page 56


 684:external/drivers/stm32wlxx/src/stm32wlxx_hal_pwr_ex.c **** 
 685:external/drivers/stm32wlxx/src/stm32wlxx_hal_pwr_ex.c **** /**
 686:external/drivers/stm32wlxx/src/stm32wlxx_hal_pwr_ex.c ****   * @brief  Disable wake-up power voltage detection
 687:external/drivers/stm32wlxx/src/stm32wlxx_hal_pwr_ex.c ****   * @retval None
 688:external/drivers/stm32wlxx/src/stm32wlxx_hal_pwr_ex.c ****   */
 689:external/drivers/stm32wlxx/src/stm32wlxx_hal_pwr_ex.c **** void HAL_PWREx_DisableWPVD(void)
 690:external/drivers/stm32wlxx/src/stm32wlxx_hal_pwr_ex.c **** {
 1118              		.loc 1 690 1 is_stmt 1 view -0
 1119              		.cfi_startproc
 1120              		@ args = 0, pretend = 0, frame = 0
 1121              		@ frame_needed = 0, uses_anonymous_args = 0
 1122              		@ link register save eliminated.
 691:external/drivers/stm32wlxx/src/stm32wlxx_hal_pwr_ex.c **** #ifdef CORE_CM0PLUS
 692:external/drivers/stm32wlxx/src/stm32wlxx_hal_pwr_ex.c ****   LL_C2_PWR_DisableWPVD();
 693:external/drivers/stm32wlxx/src/stm32wlxx_hal_pwr_ex.c **** #else
 694:external/drivers/stm32wlxx/src/stm32wlxx_hal_pwr_ex.c ****   LL_PWR_DisableWPVD();
 1123              		.loc 1 694 3 view .LVU225
 1124              	.LBB50:
 1125              	.LBI50:
 747:external/drivers/stm32wlxx/include/stm32wlxx_ll_pwr.h **** {
 1126              		.loc 2 747 22 view .LVU226
 1127              	.LBB51:
 749:external/drivers/stm32wlxx/include/stm32wlxx_ll_pwr.h **** }
 1128              		.loc 2 749 3 view .LVU227
 1129 0000 024A     		ldr	r2, .L100
 1130 0002 9368     		ldr	r3, [r2, #8]
 1131 0004 23F48073 		bic	r3, r3, #256
 1132 0008 9360     		str	r3, [r2, #8]
 1133              	.LBE51:
 1134              	.LBE50:
 695:external/drivers/stm32wlxx/src/stm32wlxx_hal_pwr_ex.c **** #endif /* CORE_CM0PLUS */
 696:external/drivers/stm32wlxx/src/stm32wlxx_hal_pwr_ex.c **** }
 1135              		.loc 1 696 1 is_stmt 0 view .LVU228
 1136 000a 7047     		bx	lr
 1137              	.L101:
 1138              		.align	2
 1139              	.L100:
 1140 000c 00040058 		.word	1476396032
 1141              		.cfi_endproc
 1142              	.LFE864:
 1144              		.section	.text.HAL_PWREx_EnableBORPVD_ULP,"ax",%progbits
 1145              		.align	1
 1146              		.global	HAL_PWREx_EnableBORPVD_ULP
 1147              		.syntax unified
 1148              		.thumb
 1149              		.thumb_func
 1151              	HAL_PWREx_EnableBORPVD_ULP:
 1152              	.LFB865:
 697:external/drivers/stm32wlxx/src/stm32wlxx_hal_pwr_ex.c **** 
 698:external/drivers/stm32wlxx/src/stm32wlxx_hal_pwr_ex.c **** /**
 699:external/drivers/stm32wlxx/src/stm32wlxx_hal_pwr_ex.c ****   * @brief  Enable periodical sampling of supply voltage in Stop and Standby
 700:external/drivers/stm32wlxx/src/stm32wlxx_hal_pwr_ex.c ****   *         modes for detecting condition of PDR and BOR reset.
 701:external/drivers/stm32wlxx/src/stm32wlxx_hal_pwr_ex.c ****   * @note   Caution: When enabled, and if the supply voltage drops below
 702:external/drivers/stm32wlxx/src/stm32wlxx_hal_pwr_ex.c ****   *         the minimum operating condition between two supply voltage samples,
 703:external/drivers/stm32wlxx/src/stm32wlxx_hal_pwr_ex.c ****   *         the reset condition is missed and no reset is generated.
 704:external/drivers/stm32wlxx/src/stm32wlxx_hal_pwr_ex.c ****   * @retval None
 705:external/drivers/stm32wlxx/src/stm32wlxx_hal_pwr_ex.c ****   */
ARM GAS  /tmp/ccEyuVux.s 			page 57


 706:external/drivers/stm32wlxx/src/stm32wlxx_hal_pwr_ex.c **** void HAL_PWREx_EnableBORPVD_ULP(void)
 707:external/drivers/stm32wlxx/src/stm32wlxx_hal_pwr_ex.c **** {
 1153              		.loc 1 707 1 is_stmt 1 view -0
 1154              		.cfi_startproc
 1155              		@ args = 0, pretend = 0, frame = 0
 1156              		@ frame_needed = 0, uses_anonymous_args = 0
 1157              		@ link register save eliminated.
 708:external/drivers/stm32wlxx/src/stm32wlxx_hal_pwr_ex.c ****   SET_BIT(PWR->CR3, PWR_CR3_ULPEN);
 1158              		.loc 1 708 3 view .LVU230
 1159 0000 024A     		ldr	r2, .L103
 1160 0002 9368     		ldr	r3, [r2, #8]
 1161 0004 43F08003 		orr	r3, r3, #128
 1162 0008 9360     		str	r3, [r2, #8]
 709:external/drivers/stm32wlxx/src/stm32wlxx_hal_pwr_ex.c **** }
 1163              		.loc 1 709 1 is_stmt 0 view .LVU231
 1164 000a 7047     		bx	lr
 1165              	.L104:
