ARM GAS  /tmp/ccWP2owg.s 			page 1


   1              		.cpu cortex-m4
   2              		.arch armv7e-m
   3              		.fpu softvfp
   4              		.eabi_attribute 20, 1
   5              		.eabi_attribute 21, 1
   6              		.eabi_attribute 23, 3
   7              		.eabi_attribute 24, 1
   8              		.eabi_attribute 25, 1
   9              		.eabi_attribute 26, 1
  10              		.eabi_attribute 30, 1
  11              		.eabi_attribute 34, 1
  12              		.eabi_attribute 18, 4
  13              		.file	"stm32wlxx_hal_pwr.c"
  14              		.text
  15              	.Ltext0:
  16              		.cfi_sections	.debug_frame
  17              		.file 1 "external/drivers/stm32wlxx/src/stm32wlxx_hal_pwr.c"
  18              		.section	.text.HAL_PWR_DeInit,"ax",%progbits
  19              		.align	1
  20              		.global	HAL_PWR_DeInit
  21              		.syntax unified
  22              		.thumb
  23              		.thumb_func
  25              	HAL_PWR_DeInit:
  26              	.LFB844:
   1:external/drivers/stm32wlxx/src/stm32wlxx_hal_pwr.c **** /**
   2:external/drivers/stm32wlxx/src/stm32wlxx_hal_pwr.c ****   ******************************************************************************
   3:external/drivers/stm32wlxx/src/stm32wlxx_hal_pwr.c ****   * @file    stm32wlxx_hal_pwr.c
   4:external/drivers/stm32wlxx/src/stm32wlxx_hal_pwr.c ****   * @author  MCD Application Team
   5:external/drivers/stm32wlxx/src/stm32wlxx_hal_pwr.c ****   * @brief   PWR HAL module driver.
   6:external/drivers/stm32wlxx/src/stm32wlxx_hal_pwr.c ****   *          This file provides firmware functions to manage the following
   7:external/drivers/stm32wlxx/src/stm32wlxx_hal_pwr.c ****   *          functionalities of the Power Controller (PWR) peripheral:
   8:external/drivers/stm32wlxx/src/stm32wlxx_hal_pwr.c ****   *           + Initialization/de-initialization functions
   9:external/drivers/stm32wlxx/src/stm32wlxx_hal_pwr.c ****   *           + Peripheral Control functions
  10:external/drivers/stm32wlxx/src/stm32wlxx_hal_pwr.c ****   ******************************************************************************
  11:external/drivers/stm32wlxx/src/stm32wlxx_hal_pwr.c ****   * @attention
  12:external/drivers/stm32wlxx/src/stm32wlxx_hal_pwr.c ****   *
  13:external/drivers/stm32wlxx/src/stm32wlxx_hal_pwr.c ****   * Copyright (c) 2020 STMicroelectronics.
  14:external/drivers/stm32wlxx/src/stm32wlxx_hal_pwr.c ****   * All rights reserved.
  15:external/drivers/stm32wlxx/src/stm32wlxx_hal_pwr.c ****   *
  16:external/drivers/stm32wlxx/src/stm32wlxx_hal_pwr.c ****   * This software is licensed under terms that can be found in the LICENSE file
  17:external/drivers/stm32wlxx/src/stm32wlxx_hal_pwr.c ****   * in the root directory of this software component.
  18:external/drivers/stm32wlxx/src/stm32wlxx_hal_pwr.c ****   * If no LICENSE file comes with this software, it is provided AS-IS.
  19:external/drivers/stm32wlxx/src/stm32wlxx_hal_pwr.c ****   *
  20:external/drivers/stm32wlxx/src/stm32wlxx_hal_pwr.c ****   ******************************************************************************
  21:external/drivers/stm32wlxx/src/stm32wlxx_hal_pwr.c ****   */
  22:external/drivers/stm32wlxx/src/stm32wlxx_hal_pwr.c **** 
  23:external/drivers/stm32wlxx/src/stm32wlxx_hal_pwr.c **** /* Includes ------------------------------------------------------------------*/
  24:external/drivers/stm32wlxx/src/stm32wlxx_hal_pwr.c **** #include "stm32wlxx_hal.h"
  25:external/drivers/stm32wlxx/src/stm32wlxx_hal_pwr.c **** 
  26:external/drivers/stm32wlxx/src/stm32wlxx_hal_pwr.c **** /** @addtogroup STM32WLxx_HAL_Driver
  27:external/drivers/stm32wlxx/src/stm32wlxx_hal_pwr.c ****   * @{
  28:external/drivers/stm32wlxx/src/stm32wlxx_hal_pwr.c ****   */
  29:external/drivers/stm32wlxx/src/stm32wlxx_hal_pwr.c **** 
  30:external/drivers/stm32wlxx/src/stm32wlxx_hal_pwr.c **** /** @addtogroup PWR
  31:external/drivers/stm32wlxx/src/stm32wlxx_hal_pwr.c ****   * @{
  32:external/drivers/stm32wlxx/src/stm32wlxx_hal_pwr.c ****   */
ARM GAS  /tmp/ccWP2owg.s 			page 2


  33:external/drivers/stm32wlxx/src/stm32wlxx_hal_pwr.c **** 
  34:external/drivers/stm32wlxx/src/stm32wlxx_hal_pwr.c **** #ifdef HAL_PWR_MODULE_ENABLED
  35:external/drivers/stm32wlxx/src/stm32wlxx_hal_pwr.c **** 
  36:external/drivers/stm32wlxx/src/stm32wlxx_hal_pwr.c **** /* Private typedef -----------------------------------------------------------*/
  37:external/drivers/stm32wlxx/src/stm32wlxx_hal_pwr.c **** /* Private define ------------------------------------------------------------*/
  38:external/drivers/stm32wlxx/src/stm32wlxx_hal_pwr.c **** /* Private macro -------------------------------------------------------------*/
  39:external/drivers/stm32wlxx/src/stm32wlxx_hal_pwr.c **** /* Private variables ---------------------------------------------------------*/
  40:external/drivers/stm32wlxx/src/stm32wlxx_hal_pwr.c **** /* Private constants ---------------------------------------------------------*/
  41:external/drivers/stm32wlxx/src/stm32wlxx_hal_pwr.c **** 
  42:external/drivers/stm32wlxx/src/stm32wlxx_hal_pwr.c **** /** @addtogroup PWR_Private_Constants PWR Private Constants
  43:external/drivers/stm32wlxx/src/stm32wlxx_hal_pwr.c ****   * @{
  44:external/drivers/stm32wlxx/src/stm32wlxx_hal_pwr.c ****   */
  45:external/drivers/stm32wlxx/src/stm32wlxx_hal_pwr.c **** /* Definitions of PWR registers reset value */
  46:external/drivers/stm32wlxx/src/stm32wlxx_hal_pwr.c **** #define PWR_CR1_RESET_VALUE   (0x00000200)
  47:external/drivers/stm32wlxx/src/stm32wlxx_hal_pwr.c **** #define PWR_CR2_RESET_VALUE   (0x00000000)
  48:external/drivers/stm32wlxx/src/stm32wlxx_hal_pwr.c **** #define PWR_CR3_RESET_VALUE   (PWR_CR3_EIWUL)
  49:external/drivers/stm32wlxx/src/stm32wlxx_hal_pwr.c **** #define PWR_CR4_RESET_VALUE   (0x00000000)
  50:external/drivers/stm32wlxx/src/stm32wlxx_hal_pwr.c **** #define PWR_CR5_RESET_VALUE   (0x00000000)
  51:external/drivers/stm32wlxx/src/stm32wlxx_hal_pwr.c **** #define PWR_PUCRA_RESET_VALUE (0x00000000)
  52:external/drivers/stm32wlxx/src/stm32wlxx_hal_pwr.c **** #define PWR_PDCRA_RESET_VALUE (0x00000000)
  53:external/drivers/stm32wlxx/src/stm32wlxx_hal_pwr.c **** #define PWR_PUCRB_RESET_VALUE (0x00000000)
  54:external/drivers/stm32wlxx/src/stm32wlxx_hal_pwr.c **** #define PWR_PDCRB_RESET_VALUE (0x00000000)
  55:external/drivers/stm32wlxx/src/stm32wlxx_hal_pwr.c **** #define PWR_PUCRC_RESET_VALUE (0x00000000)
  56:external/drivers/stm32wlxx/src/stm32wlxx_hal_pwr.c **** #define PWR_PDCRC_RESET_VALUE (0x00000000)
  57:external/drivers/stm32wlxx/src/stm32wlxx_hal_pwr.c **** #define PWR_PUCRH_RESET_VALUE (0x00000000)
  58:external/drivers/stm32wlxx/src/stm32wlxx_hal_pwr.c **** #define PWR_PDCRH_RESET_VALUE (0x00000000)
  59:external/drivers/stm32wlxx/src/stm32wlxx_hal_pwr.c **** #if defined(DUAL_CORE)
  60:external/drivers/stm32wlxx/src/stm32wlxx_hal_pwr.c **** #define PWR_C2CR1_RESET_VALUE (PWR_C2CR1_LPMS_2 | PWR_C2CR1_LPMS_1 | PWR_C2CR1_LPMS_0)
  61:external/drivers/stm32wlxx/src/stm32wlxx_hal_pwr.c **** #define PWR_C2CR3_RESET_VALUE (0x00000000)
  62:external/drivers/stm32wlxx/src/stm32wlxx_hal_pwr.c **** #endif /* DUAL_CORE */
  63:external/drivers/stm32wlxx/src/stm32wlxx_hal_pwr.c **** /**
  64:external/drivers/stm32wlxx/src/stm32wlxx_hal_pwr.c ****   * @}
  65:external/drivers/stm32wlxx/src/stm32wlxx_hal_pwr.c ****   */
  66:external/drivers/stm32wlxx/src/stm32wlxx_hal_pwr.c **** 
  67:external/drivers/stm32wlxx/src/stm32wlxx_hal_pwr.c **** /* Private function prototypes -----------------------------------------------*/
  68:external/drivers/stm32wlxx/src/stm32wlxx_hal_pwr.c **** /* Exported functions --------------------------------------------------------*/
  69:external/drivers/stm32wlxx/src/stm32wlxx_hal_pwr.c **** /** @addtogroup PWR_Exported_Functions  PWR Exported Functions
  70:external/drivers/stm32wlxx/src/stm32wlxx_hal_pwr.c ****   * @{
  71:external/drivers/stm32wlxx/src/stm32wlxx_hal_pwr.c ****   */
  72:external/drivers/stm32wlxx/src/stm32wlxx_hal_pwr.c **** 
  73:external/drivers/stm32wlxx/src/stm32wlxx_hal_pwr.c **** /** @addtogroup PWR_Exported_Functions_Group1  Initialization and de-initialization functions
  74:external/drivers/stm32wlxx/src/stm32wlxx_hal_pwr.c ****   * @brief  Initialization and de-initialization functions
  75:external/drivers/stm32wlxx/src/stm32wlxx_hal_pwr.c ****   *
  76:external/drivers/stm32wlxx/src/stm32wlxx_hal_pwr.c **** @verbatim
  77:external/drivers/stm32wlxx/src/stm32wlxx_hal_pwr.c ****  ===============================================================================
  78:external/drivers/stm32wlxx/src/stm32wlxx_hal_pwr.c ****               ##### Initialization and de-initialization functions #####
  79:external/drivers/stm32wlxx/src/stm32wlxx_hal_pwr.c ****  ===============================================================================
  80:external/drivers/stm32wlxx/src/stm32wlxx_hal_pwr.c ****     [..]
  81:external/drivers/stm32wlxx/src/stm32wlxx_hal_pwr.c **** 
  82:external/drivers/stm32wlxx/src/stm32wlxx_hal_pwr.c **** @endverbatim
  83:external/drivers/stm32wlxx/src/stm32wlxx_hal_pwr.c ****   * @{
  84:external/drivers/stm32wlxx/src/stm32wlxx_hal_pwr.c ****   */
  85:external/drivers/stm32wlxx/src/stm32wlxx_hal_pwr.c **** 
  86:external/drivers/stm32wlxx/src/stm32wlxx_hal_pwr.c **** /**
  87:external/drivers/stm32wlxx/src/stm32wlxx_hal_pwr.c ****   * @brief  Deinitialize the HAL PWR peripheral registers to their default reset values.
  88:external/drivers/stm32wlxx/src/stm32wlxx_hal_pwr.c ****   * @retval None
  89:external/drivers/stm32wlxx/src/stm32wlxx_hal_pwr.c ****   */
ARM GAS  /tmp/ccWP2owg.s 			page 3


  90:external/drivers/stm32wlxx/src/stm32wlxx_hal_pwr.c **** void HAL_PWR_DeInit(void)
  91:external/drivers/stm32wlxx/src/stm32wlxx_hal_pwr.c **** {
  27              		.loc 1 91 1 view -0
  28              		.cfi_startproc
  29              		@ args = 0, pretend = 0, frame = 0
  30              		@ frame_needed = 0, uses_anonymous_args = 0
  31              		@ link register save eliminated.
  92:external/drivers/stm32wlxx/src/stm32wlxx_hal_pwr.c ****   /* Apply reset values to all PWR registers */
  93:external/drivers/stm32wlxx/src/stm32wlxx_hal_pwr.c ****   /* Note: Update of each register required since PWR global reset is not     */
  94:external/drivers/stm32wlxx/src/stm32wlxx_hal_pwr.c ****   /*       available at RCC level on this STM32 series.                        */
  95:external/drivers/stm32wlxx/src/stm32wlxx_hal_pwr.c ****   LL_PWR_WriteReg(CR1, PWR_CR1_RESET_VALUE);
  32              		.loc 1 95 3 view .LVU1
  33 0000 0C4B     		ldr	r3, .L2
  34 0002 4FF40072 		mov	r2, #512
  35 0006 1A60     		str	r2, [r3]
  96:external/drivers/stm32wlxx/src/stm32wlxx_hal_pwr.c ****   LL_PWR_WriteReg(CR2, PWR_CR2_RESET_VALUE);
  36              		.loc 1 96 3 view .LVU2
  37 0008 0022     		movs	r2, #0
  38 000a 5A60     		str	r2, [r3, #4]
  97:external/drivers/stm32wlxx/src/stm32wlxx_hal_pwr.c ****   LL_PWR_WriteReg(CR3, PWR_CR3_RESET_VALUE);
  39              		.loc 1 97 3 view .LVU3
  40 000c 4FF40041 		mov	r1, #32768
  41 0010 9960     		str	r1, [r3, #8]
  98:external/drivers/stm32wlxx/src/stm32wlxx_hal_pwr.c ****   LL_PWR_WriteReg(CR4, PWR_CR4_RESET_VALUE);
  42              		.loc 1 98 3 view .LVU4
  43 0012 DA60     		str	r2, [r3, #12]
  99:external/drivers/stm32wlxx/src/stm32wlxx_hal_pwr.c ****   LL_PWR_WriteReg(CR5, PWR_CR5_RESET_VALUE);
  44              		.loc 1 99 3 view .LVU5
  45 0014 DA61     		str	r2, [r3, #28]
 100:external/drivers/stm32wlxx/src/stm32wlxx_hal_pwr.c ****   LL_PWR_WriteReg(PUCRA, PWR_PUCRA_RESET_VALUE);
  46              		.loc 1 100 3 view .LVU6
  47 0016 1A62     		str	r2, [r3, #32]
 101:external/drivers/stm32wlxx/src/stm32wlxx_hal_pwr.c ****   LL_PWR_WriteReg(PDCRA, PWR_PDCRA_RESET_VALUE);
  48              		.loc 1 101 3 view .LVU7
  49 0018 5A62     		str	r2, [r3, #36]
 102:external/drivers/stm32wlxx/src/stm32wlxx_hal_pwr.c ****   LL_PWR_WriteReg(PUCRB, PWR_PUCRB_RESET_VALUE);
  50              		.loc 1 102 3 view .LVU8
  51 001a 9A62     		str	r2, [r3, #40]
 103:external/drivers/stm32wlxx/src/stm32wlxx_hal_pwr.c ****   LL_PWR_WriteReg(PDCRB, PWR_PDCRB_RESET_VALUE);
  52              		.loc 1 103 3 view .LVU9
  53 001c DA62     		str	r2, [r3, #44]
 104:external/drivers/stm32wlxx/src/stm32wlxx_hal_pwr.c ****   LL_PWR_WriteReg(PUCRC, PWR_PUCRC_RESET_VALUE);
  54              		.loc 1 104 3 view .LVU10
  55 001e 1A63     		str	r2, [r3, #48]
 105:external/drivers/stm32wlxx/src/stm32wlxx_hal_pwr.c ****   LL_PWR_WriteReg(PDCRC, PWR_PDCRC_RESET_VALUE);
  56              		.loc 1 105 3 view .LVU11
  57 0020 5A63     		str	r2, [r3, #52]
 106:external/drivers/stm32wlxx/src/stm32wlxx_hal_pwr.c ****   LL_PWR_WriteReg(PUCRH, PWR_PUCRH_RESET_VALUE);
  58              		.loc 1 106 3 view .LVU12
  59 0022 9A65     		str	r2, [r3, #88]
 107:external/drivers/stm32wlxx/src/stm32wlxx_hal_pwr.c ****   LL_PWR_WriteReg(PDCRH, PWR_PDCRH_RESET_VALUE);
  60              		.loc 1 107 3 view .LVU13
  61 0024 DA65     		str	r2, [r3, #92]
 108:external/drivers/stm32wlxx/src/stm32wlxx_hal_pwr.c **** #ifdef CORE_CM0PLUS
 109:external/drivers/stm32wlxx/src/stm32wlxx_hal_pwr.c ****   LL_PWR_WriteReg(C2CR1, PWR_C2CR1_RESET_VALUE);
 110:external/drivers/stm32wlxx/src/stm32wlxx_hal_pwr.c ****   LL_PWR_WriteReg(C2CR3, PWR_C2CR3_RESET_VALUE);
 111:external/drivers/stm32wlxx/src/stm32wlxx_hal_pwr.c **** #endif /* CORE_CM0PLUS */
ARM GAS  /tmp/ccWP2owg.s 			page 4


 112:external/drivers/stm32wlxx/src/stm32wlxx_hal_pwr.c **** 
 113:external/drivers/stm32wlxx/src/stm32wlxx_hal_pwr.c ****   /* Clear all flags */
 114:external/drivers/stm32wlxx/src/stm32wlxx_hal_pwr.c **** #if defined(DUAL_CORE)
 115:external/drivers/stm32wlxx/src/stm32wlxx_hal_pwr.c ****   LL_PWR_WriteReg(SCR,
 116:external/drivers/stm32wlxx/src/stm32wlxx_hal_pwr.c ****                   LL_PWR_SCR_CWUF
 117:external/drivers/stm32wlxx/src/stm32wlxx_hal_pwr.c ****                   | LL_PWR_SCR_CWRFBUSYF
 118:external/drivers/stm32wlxx/src/stm32wlxx_hal_pwr.c ****                   | LL_PWR_SCR_CWPVDF
 119:external/drivers/stm32wlxx/src/stm32wlxx_hal_pwr.c ****                   | LL_PWR_SCR_CC2HF
 120:external/drivers/stm32wlxx/src/stm32wlxx_hal_pwr.c ****                  );
 121:external/drivers/stm32wlxx/src/stm32wlxx_hal_pwr.c **** #else
 122:external/drivers/stm32wlxx/src/stm32wlxx_hal_pwr.c ****   LL_PWR_WriteReg(SCR,
  62              		.loc 1 122 3 view .LVU14
  63 0026 40F60712 		movw	r2, #2311
  64 002a 9A61     		str	r2, [r3, #24]
 123:external/drivers/stm32wlxx/src/stm32wlxx_hal_pwr.c ****                   LL_PWR_SCR_CWUF
 124:external/drivers/stm32wlxx/src/stm32wlxx_hal_pwr.c ****                   | LL_PWR_SCR_CWRFBUSYF
 125:external/drivers/stm32wlxx/src/stm32wlxx_hal_pwr.c ****                   | LL_PWR_SCR_CWPVDF
 126:external/drivers/stm32wlxx/src/stm32wlxx_hal_pwr.c ****                  );
 127:external/drivers/stm32wlxx/src/stm32wlxx_hal_pwr.c **** #endif /* DUAL_CORE */
 128:external/drivers/stm32wlxx/src/stm32wlxx_hal_pwr.c **** 
 129:external/drivers/stm32wlxx/src/stm32wlxx_hal_pwr.c **** #ifdef CORE_CM0PLUS
 130:external/drivers/stm32wlxx/src/stm32wlxx_hal_pwr.c ****   LL_PWR_WriteReg(EXTSCR, LL_PWR_EXTSCR_C2CSSF);
 131:external/drivers/stm32wlxx/src/stm32wlxx_hal_pwr.c **** #else
 132:external/drivers/stm32wlxx/src/stm32wlxx_hal_pwr.c ****   LL_PWR_WriteReg(EXTSCR, LL_PWR_EXTSCR_C1CSSF);
  65              		.loc 1 132 3 view .LVU15
  66 002c 0122     		movs	r2, #1
  67 002e C3F88820 		str	r2, [r3, #136]
 133:external/drivers/stm32wlxx/src/stm32wlxx_hal_pwr.c **** #endif /* CORE_CM0PLUS */
 134:external/drivers/stm32wlxx/src/stm32wlxx_hal_pwr.c **** }
  68              		.loc 1 134 1 is_stmt 0 view .LVU16
  69 0032 7047     		bx	lr
  70              	.L3:
  71              		.align	2
  72              	.L2:
  73 0034 00040058 		.word	1476396032
  74              		.cfi_endproc
  75              	.LFE844:
  77              		.section	.text.HAL_PWR_EnableBkUpAccess,"ax",%progbits
  78              		.align	1
  79              		.global	HAL_PWR_EnableBkUpAccess
  80              		.syntax unified
  81              		.thumb
  82              		.thumb_func
  84              	HAL_PWR_EnableBkUpAccess:
  85              	.LFB845:
 135:external/drivers/stm32wlxx/src/stm32wlxx_hal_pwr.c **** 
 136:external/drivers/stm32wlxx/src/stm32wlxx_hal_pwr.c **** 
 137:external/drivers/stm32wlxx/src/stm32wlxx_hal_pwr.c **** /**
 138:external/drivers/stm32wlxx/src/stm32wlxx_hal_pwr.c ****   * @brief  Enable access to the backup domain
 139:external/drivers/stm32wlxx/src/stm32wlxx_hal_pwr.c ****   *         (RTC registers, RTC backup data registers).
 140:external/drivers/stm32wlxx/src/stm32wlxx_hal_pwr.c ****   * @note   After reset, the backup domain is protected against
 141:external/drivers/stm32wlxx/src/stm32wlxx_hal_pwr.c ****   *         possible unwanted write accesses.
 142:external/drivers/stm32wlxx/src/stm32wlxx_hal_pwr.c ****   * @note   RTCSEL that sets the RTC clock source selection is in the RTC backup domain.
 143:external/drivers/stm32wlxx/src/stm32wlxx_hal_pwr.c ****   *         In order to set or modify the RTC clock, the backup domain access must be
 144:external/drivers/stm32wlxx/src/stm32wlxx_hal_pwr.c ****   *         disabled.
 145:external/drivers/stm32wlxx/src/stm32wlxx_hal_pwr.c ****   * @note   LSEON bit that switches on and off the LSE crystal belongs as well to the
 146:external/drivers/stm32wlxx/src/stm32wlxx_hal_pwr.c ****   *         backup domain.
ARM GAS  /tmp/ccWP2owg.s 			page 5


 147:external/drivers/stm32wlxx/src/stm32wlxx_hal_pwr.c ****   * @retval None
 148:external/drivers/stm32wlxx/src/stm32wlxx_hal_pwr.c ****   */
 149:external/drivers/stm32wlxx/src/stm32wlxx_hal_pwr.c **** void HAL_PWR_EnableBkUpAccess(void)
 150:external/drivers/stm32wlxx/src/stm32wlxx_hal_pwr.c **** {
  86              		.loc 1 150 1 is_stmt 1 view -0
  87              		.cfi_startproc
  88              		@ args = 0, pretend = 0, frame = 0
  89              		@ frame_needed = 0, uses_anonymous_args = 0
  90              		@ link register save eliminated.
 151:external/drivers/stm32wlxx/src/stm32wlxx_hal_pwr.c ****   SET_BIT(PWR->CR1, PWR_CR1_DBP);
  91              		.loc 1 151 3 view .LVU18
  92 0000 024A     		ldr	r2, .L5
  93 0002 1368     		ldr	r3, [r2]
  94 0004 43F48073 		orr	r3, r3, #256
  95 0008 1360     		str	r3, [r2]
 152:external/drivers/stm32wlxx/src/stm32wlxx_hal_pwr.c **** }
  96              		.loc 1 152 1 is_stmt 0 view .LVU19
  97 000a 7047     		bx	lr
  98              	.L6:
  99              		.align	2
 100              	.L5:
 101 000c 00040058 		.word	1476396032
 102              		.cfi_endproc
 103              	.LFE845:
 105              		.section	.text.HAL_PWR_DisableBkUpAccess,"ax",%progbits
 106              		.align	1
 107              		.global	HAL_PWR_DisableBkUpAccess
 108              		.syntax unified
 109              		.thumb
 110              		.thumb_func
 112              	HAL_PWR_DisableBkUpAccess:
 113              	.LFB846:
 153:external/drivers/stm32wlxx/src/stm32wlxx_hal_pwr.c **** 
 154:external/drivers/stm32wlxx/src/stm32wlxx_hal_pwr.c **** /**
 155:external/drivers/stm32wlxx/src/stm32wlxx_hal_pwr.c ****   * @brief  Disable access to the backup domain
 156:external/drivers/stm32wlxx/src/stm32wlxx_hal_pwr.c ****   *         (RTC registers, RTC backup data registers).
 157:external/drivers/stm32wlxx/src/stm32wlxx_hal_pwr.c ****   * @retval None
 158:external/drivers/stm32wlxx/src/stm32wlxx_hal_pwr.c ****   */
 159:external/drivers/stm32wlxx/src/stm32wlxx_hal_pwr.c **** void HAL_PWR_DisableBkUpAccess(void)
 160:external/drivers/stm32wlxx/src/stm32wlxx_hal_pwr.c **** {
 114              		.loc 1 160 1 is_stmt 1 view -0
 115              		.cfi_startproc
 116              		@ args = 0, pretend = 0, frame = 0
 117              		@ frame_needed = 0, uses_anonymous_args = 0
 118              		@ link register save eliminated.
 161:external/drivers/stm32wlxx/src/stm32wlxx_hal_pwr.c ****   CLEAR_BIT(PWR->CR1, PWR_CR1_DBP);
 119              		.loc 1 161 3 view .LVU21
 120 0000 024A     		ldr	r2, .L8
 121 0002 1368     		ldr	r3, [r2]
 122 0004 23F48073 		bic	r3, r3, #256
 123 0008 1360     		str	r3, [r2]
 162:external/drivers/stm32wlxx/src/stm32wlxx_hal_pwr.c **** }
 124              		.loc 1 162 1 is_stmt 0 view .LVU22
 125 000a 7047     		bx	lr
 126              	.L9:
 127              		.align	2
 128              	.L8:
ARM GAS  /tmp/ccWP2owg.s 			page 6


 129 000c 00040058 		.word	1476396032
 130              		.cfi_endproc
 131              	.LFE846:
 133              		.section	.text.HAL_PWR_ConfigPVD,"ax",%progbits
 134              		.align	1
 135              		.global	HAL_PWR_ConfigPVD
 136              		.syntax unified
 137              		.thumb
 138              		.thumb_func
 140              	HAL_PWR_ConfigPVD:
 141              	.LVL0:
 142              	.LFB847:
 163:external/drivers/stm32wlxx/src/stm32wlxx_hal_pwr.c **** 
 164:external/drivers/stm32wlxx/src/stm32wlxx_hal_pwr.c **** /**
 165:external/drivers/stm32wlxx/src/stm32wlxx_hal_pwr.c ****   * @}
 166:external/drivers/stm32wlxx/src/stm32wlxx_hal_pwr.c ****   */
 167:external/drivers/stm32wlxx/src/stm32wlxx_hal_pwr.c **** 
 168:external/drivers/stm32wlxx/src/stm32wlxx_hal_pwr.c **** 
 169:external/drivers/stm32wlxx/src/stm32wlxx_hal_pwr.c **** /** @addtogroup PWR_Exported_Functions_Group2  Peripheral Control functions
 170:external/drivers/stm32wlxx/src/stm32wlxx_hal_pwr.c ****   *  @brief Low Power modes configuration functions
 171:external/drivers/stm32wlxx/src/stm32wlxx_hal_pwr.c ****   *
 172:external/drivers/stm32wlxx/src/stm32wlxx_hal_pwr.c **** @verbatim
 173:external/drivers/stm32wlxx/src/stm32wlxx_hal_pwr.c **** 
 174:external/drivers/stm32wlxx/src/stm32wlxx_hal_pwr.c ****  ===============================================================================
 175:external/drivers/stm32wlxx/src/stm32wlxx_hal_pwr.c ****                  ##### Peripheral Control functions #####
 176:external/drivers/stm32wlxx/src/stm32wlxx_hal_pwr.c ****  ===============================================================================
 177:external/drivers/stm32wlxx/src/stm32wlxx_hal_pwr.c **** 
 178:external/drivers/stm32wlxx/src/stm32wlxx_hal_pwr.c ****     [..]
 179:external/drivers/stm32wlxx/src/stm32wlxx_hal_pwr.c ****      *** PVD configuration ***
 180:external/drivers/stm32wlxx/src/stm32wlxx_hal_pwr.c ****     =========================
 181:external/drivers/stm32wlxx/src/stm32wlxx_hal_pwr.c ****     [..]
 182:external/drivers/stm32wlxx/src/stm32wlxx_hal_pwr.c ****       (+) The PVD is used to monitor the VDD power supply by comparing it to a
 183:external/drivers/stm32wlxx/src/stm32wlxx_hal_pwr.c ****           threshold selected by the PVD Level (PLS[2:0] bits in PWR_CR2 register).
 184:external/drivers/stm32wlxx/src/stm32wlxx_hal_pwr.c ****       (+) PVDO flag is available to indicate if VDD/VDDA is higher or lower
 185:external/drivers/stm32wlxx/src/stm32wlxx_hal_pwr.c ****           than the PVD threshold. This event is internally connected to the EXTI
 186:external/drivers/stm32wlxx/src/stm32wlxx_hal_pwr.c ****           line16 and can generate an interrupt if enabled. This is done through
 187:external/drivers/stm32wlxx/src/stm32wlxx_hal_pwr.c ****           __HAL_PVD_EXTI_ENABLE_IT() macro.
 188:external/drivers/stm32wlxx/src/stm32wlxx_hal_pwr.c ****       (+) The PVD is stopped in Standby mode.
 189:external/drivers/stm32wlxx/src/stm32wlxx_hal_pwr.c **** 
 190:external/drivers/stm32wlxx/src/stm32wlxx_hal_pwr.c ****     *** WakeUp pin configuration ***
 191:external/drivers/stm32wlxx/src/stm32wlxx_hal_pwr.c ****     ================================
 192:external/drivers/stm32wlxx/src/stm32wlxx_hal_pwr.c ****     [..]
 193:external/drivers/stm32wlxx/src/stm32wlxx_hal_pwr.c ****       (+) WakeUp pins are used to wakeup the system from Standby mode or Shutdown mode.
 194:external/drivers/stm32wlxx/src/stm32wlxx_hal_pwr.c ****           The polarity of these pins can be set to configure event detection on high
 195:external/drivers/stm32wlxx/src/stm32wlxx_hal_pwr.c ****           level (rising edge) or low level (falling edge).
 196:external/drivers/stm32wlxx/src/stm32wlxx_hal_pwr.c **** 
 197:external/drivers/stm32wlxx/src/stm32wlxx_hal_pwr.c ****     *** Low Power modes configuration ***
 198:external/drivers/stm32wlxx/src/stm32wlxx_hal_pwr.c ****     =====================================
 199:external/drivers/stm32wlxx/src/stm32wlxx_hal_pwr.c ****     [..]
 200:external/drivers/stm32wlxx/src/stm32wlxx_hal_pwr.c ****       The devices feature 8 low-power modes:
 201:external/drivers/stm32wlxx/src/stm32wlxx_hal_pwr.c **** 
 202:external/drivers/stm32wlxx/src/stm32wlxx_hal_pwr.c ****       (+) Low-power Run mode: core and peripherals are running, main regulator off, low power regul
 203:external/drivers/stm32wlxx/src/stm32wlxx_hal_pwr.c **** 
 204:external/drivers/stm32wlxx/src/stm32wlxx_hal_pwr.c ****       (+) Sleep mode: Cortex-M4 core stopped, peripherals kept running, main and low power regulato
 205:external/drivers/stm32wlxx/src/stm32wlxx_hal_pwr.c ****       (+) Low-power Sleep mode: Cortex-M4 core stopped, peripherals kept running, main regulator of
 206:external/drivers/stm32wlxx/src/stm32wlxx_hal_pwr.c **** 
 207:external/drivers/stm32wlxx/src/stm32wlxx_hal_pwr.c ****       (+) Stop 0 mode: all clocks are stopped except LSI and LSE, main and low power regulators on.
ARM GAS  /tmp/ccWP2owg.s 			page 7


 208:external/drivers/stm32wlxx/src/stm32wlxx_hal_pwr.c ****       (+) Stop 1 mode: all clocks are stopped except LSI and LSE, main regulator off, low power reg
 209:external/drivers/stm32wlxx/src/stm32wlxx_hal_pwr.c ****       (+) Stop 2 mode: all clocks are stopped except LSI and LSE, main regulator off, low power reg
 210:external/drivers/stm32wlxx/src/stm32wlxx_hal_pwr.c **** 
 211:external/drivers/stm32wlxx/src/stm32wlxx_hal_pwr.c ****       (+) Standby mode with SRAM2: all clocks are stopped except LSI and LSE, SRAM2 content preserv
 212:external/drivers/stm32wlxx/src/stm32wlxx_hal_pwr.c ****       (+) Standby mode without SRAM2: all clocks are stopped except LSI and LSE, main and low power
 213:external/drivers/stm32wlxx/src/stm32wlxx_hal_pwr.c **** 
 214:external/drivers/stm32wlxx/src/stm32wlxx_hal_pwr.c ****       (+) Shutdown mode: all clocks are stopped except LSE, main and low power regulators off.
 215:external/drivers/stm32wlxx/src/stm32wlxx_hal_pwr.c **** 
 216:external/drivers/stm32wlxx/src/stm32wlxx_hal_pwr.c ****       (+) Note: system power mode depends on each sub-system (CPU1, CPU2, radio) power modes.
 217:external/drivers/stm32wlxx/src/stm32wlxx_hal_pwr.c ****                 Each CPU request to enter in a low-power mode will make system enter in the equival
 218:external/drivers/stm32wlxx/src/stm32wlxx_hal_pwr.c ****                 if all other sub-systems are aligned.
 219:external/drivers/stm32wlxx/src/stm32wlxx_hal_pwr.c **** 
 220:external/drivers/stm32wlxx/src/stm32wlxx_hal_pwr.c ****    *** Low-power run mode ***
 221:external/drivers/stm32wlxx/src/stm32wlxx_hal_pwr.c ****    ==========================
 222:external/drivers/stm32wlxx/src/stm32wlxx_hal_pwr.c ****     [..]
 223:external/drivers/stm32wlxx/src/stm32wlxx_hal_pwr.c ****       (+) Entry: (from main run mode)
 224:external/drivers/stm32wlxx/src/stm32wlxx_hal_pwr.c ****           (++) set LPR bit with HAL_PWREx_EnableLowPowerRunMode() API after having decreased the sy
 225:external/drivers/stm32wlxx/src/stm32wlxx_hal_pwr.c ****       (+) Exit:
 226:external/drivers/stm32wlxx/src/stm32wlxx_hal_pwr.c ****           (++) clear LPR bit then wait for REGLP bit to be reset with HAL_PWREx_DisableLowPowerRunM
 227:external/drivers/stm32wlxx/src/stm32wlxx_hal_pwr.c ****                then can the system clock frequency be increased above 2 MHz.
 228:external/drivers/stm32wlxx/src/stm32wlxx_hal_pwr.c **** 
 229:external/drivers/stm32wlxx/src/stm32wlxx_hal_pwr.c ****    *** Sleep mode / Low-power sleep mode ***
 230:external/drivers/stm32wlxx/src/stm32wlxx_hal_pwr.c ****    =========================================
 231:external/drivers/stm32wlxx/src/stm32wlxx_hal_pwr.c ****     [..]
 232:external/drivers/stm32wlxx/src/stm32wlxx_hal_pwr.c ****       (+) Entry:
 233:external/drivers/stm32wlxx/src/stm32wlxx_hal_pwr.c ****           The Sleep mode / Low-power Sleep mode is entered through HAL_PWR_EnterSLEEPMode() API
 234:external/drivers/stm32wlxx/src/stm32wlxx_hal_pwr.c ****           in specifying whether or not the regulator is forced to low-power mode and if exit is int
 235:external/drivers/stm32wlxx/src/stm32wlxx_hal_pwr.c ****           (++) PWR_MAINREGULATOR_ON: Sleep mode (regulator in main mode).
 236:external/drivers/stm32wlxx/src/stm32wlxx_hal_pwr.c ****           (++) PWR_LOWPOWERREGULATOR_ON: Low-power sleep (regulator in low power mode).
 237:external/drivers/stm32wlxx/src/stm32wlxx_hal_pwr.c ****           In the latter case, the system clock frequency must have been decreased below 2 MHz befor
 238:external/drivers/stm32wlxx/src/stm32wlxx_hal_pwr.c ****           (++) PWR_SLEEPENTRY_WFI: enter SLEEP mode with WFI instruction
 239:external/drivers/stm32wlxx/src/stm32wlxx_hal_pwr.c ****           (++) PWR_SLEEPENTRY_WFE: enter SLEEP mode with WFE instruction
 240:external/drivers/stm32wlxx/src/stm32wlxx_hal_pwr.c **** 
 241:external/drivers/stm32wlxx/src/stm32wlxx_hal_pwr.c ****       (+) WFI Exit:
 242:external/drivers/stm32wlxx/src/stm32wlxx_hal_pwr.c ****         (++) Any peripheral interrupt acknowledged by the nested vectored interrupt
 243:external/drivers/stm32wlxx/src/stm32wlxx_hal_pwr.c ****              controller (NVIC) or any wake-up event.
 244:external/drivers/stm32wlxx/src/stm32wlxx_hal_pwr.c **** 
 245:external/drivers/stm32wlxx/src/stm32wlxx_hal_pwr.c ****       (+) WFE Exit:
 246:external/drivers/stm32wlxx/src/stm32wlxx_hal_pwr.c ****         (++) Any wake-up event such as an EXTI line configured in event mode.
 247:external/drivers/stm32wlxx/src/stm32wlxx_hal_pwr.c **** 
 248:external/drivers/stm32wlxx/src/stm32wlxx_hal_pwr.c ****     [..]  When exiting the Low-power sleep mode by issuing an interrupt or a wakeup event,
 249:external/drivers/stm32wlxx/src/stm32wlxx_hal_pwr.c ****           the MCU is in Low-power Run mode.
 250:external/drivers/stm32wlxx/src/stm32wlxx_hal_pwr.c **** 
 251:external/drivers/stm32wlxx/src/stm32wlxx_hal_pwr.c ****    *** Stop 0, Stop 1 and Stop 2 modes ***
 252:external/drivers/stm32wlxx/src/stm32wlxx_hal_pwr.c ****    ===============================
 253:external/drivers/stm32wlxx/src/stm32wlxx_hal_pwr.c ****     [..]
 254:external/drivers/stm32wlxx/src/stm32wlxx_hal_pwr.c ****       (+) Entry:
 255:external/drivers/stm32wlxx/src/stm32wlxx_hal_pwr.c ****           The Stop 0, Stop 1 or Stop 2 modes are entered through the following API's:
 256:external/drivers/stm32wlxx/src/stm32wlxx_hal_pwr.c ****           (++) HAL_PWREx_EnterSTOP0Mode() for mode 0, HAL_PWREx_EnterSTOP1Mode() for mode 1, HAL_PW
 257:external/drivers/stm32wlxx/src/stm32wlxx_hal_pwr.c ****                or for porting reasons HAL_PWR_EnterSTOPMode().
 258:external/drivers/stm32wlxx/src/stm32wlxx_hal_pwr.c **** 
 259:external/drivers/stm32wlxx/src/stm32wlxx_hal_pwr.c ****       (+) Regulator setting (applicable to HAL_PWR_EnterSTOPMode() only):
 260:external/drivers/stm32wlxx/src/stm32wlxx_hal_pwr.c ****           (++) PWR_MAINREGULATOR_ON: Regulator in main mode (STOP0 mode)
 261:external/drivers/stm32wlxx/src/stm32wlxx_hal_pwr.c ****           (++) PWR_LOWPOWERREGULATOR_ON: Regulator in low-power mode (STOP1 mode)
 262:external/drivers/stm32wlxx/src/stm32wlxx_hal_pwr.c ****       (+) Exit (interrupt or event-triggered, specified when entering STOP mode):
 263:external/drivers/stm32wlxx/src/stm32wlxx_hal_pwr.c ****           (++) PWR_STOPENTRY_WFI: enter Stop mode with WFI instruction
 264:external/drivers/stm32wlxx/src/stm32wlxx_hal_pwr.c ****           (++) PWR_STOPENTRY_WFE: enter Stop mode with WFE instruction
ARM GAS  /tmp/ccWP2owg.s 			page 8


 265:external/drivers/stm32wlxx/src/stm32wlxx_hal_pwr.c ****       (+) WFI Exit:
 266:external/drivers/stm32wlxx/src/stm32wlxx_hal_pwr.c ****           (++) Any EXTI Line (Internal or External) configured in Interrupt mode.
 267:external/drivers/stm32wlxx/src/stm32wlxx_hal_pwr.c ****           (++) Some specific communication peripherals (USART, LPUART, I2C) interrupts
 268:external/drivers/stm32wlxx/src/stm32wlxx_hal_pwr.c ****                when programmed in wakeup mode.
 269:external/drivers/stm32wlxx/src/stm32wlxx_hal_pwr.c ****       (+) WFE Exit:
 270:external/drivers/stm32wlxx/src/stm32wlxx_hal_pwr.c ****           (++) Any EXTI Line (Internal or External) configured in Event mode.
 271:external/drivers/stm32wlxx/src/stm32wlxx_hal_pwr.c **** 
 272:external/drivers/stm32wlxx/src/stm32wlxx_hal_pwr.c ****        [..]
 273:external/drivers/stm32wlxx/src/stm32wlxx_hal_pwr.c ****           When exiting Stop 0 and Stop 1 modes, the MCU is either in Run mode or in Low-power Run m
 274:external/drivers/stm32wlxx/src/stm32wlxx_hal_pwr.c ****           depending on the LPR bit setting.
 275:external/drivers/stm32wlxx/src/stm32wlxx_hal_pwr.c ****           When exiting Stop 2 mode, the MCU is in Run mode.
 276:external/drivers/stm32wlxx/src/stm32wlxx_hal_pwr.c **** 
 277:external/drivers/stm32wlxx/src/stm32wlxx_hal_pwr.c ****    *** Standby mode ***
 278:external/drivers/stm32wlxx/src/stm32wlxx_hal_pwr.c ****    ====================
 279:external/drivers/stm32wlxx/src/stm32wlxx_hal_pwr.c ****     [..] The Standby mode offers two options:
 280:external/drivers/stm32wlxx/src/stm32wlxx_hal_pwr.c ****       (+) option a) all clocks off except LSI and LSE, RRS bit set (keeps voltage regulator in low 
 281:external/drivers/stm32wlxx/src/stm32wlxx_hal_pwr.c ****           SRAM and registers contents are lost except for the SRAM2 content, the RTC registers, RTC
 282:external/drivers/stm32wlxx/src/stm32wlxx_hal_pwr.c ****           and Standby circuitry.
 283:external/drivers/stm32wlxx/src/stm32wlxx_hal_pwr.c ****       (+) option b) all clocks off except LSI and LSE, RRS bit cleared (voltage regulator then disa
 284:external/drivers/stm32wlxx/src/stm32wlxx_hal_pwr.c ****           SRAM and register contents are lost except for the RTC registers, RTC backup registers
 285:external/drivers/stm32wlxx/src/stm32wlxx_hal_pwr.c ****           and Standby circuitry.
 286:external/drivers/stm32wlxx/src/stm32wlxx_hal_pwr.c **** 
 287:external/drivers/stm32wlxx/src/stm32wlxx_hal_pwr.c ****       (++) Entry:
 288:external/drivers/stm32wlxx/src/stm32wlxx_hal_pwr.c ****           (+++) The Standby mode is entered through HAL_PWR_EnterSTANDBYMode() API.
 289:external/drivers/stm32wlxx/src/stm32wlxx_hal_pwr.c ****                 SRAM1 and register contents are lost except for registers in the Backup domain and
 290:external/drivers/stm32wlxx/src/stm32wlxx_hal_pwr.c ****                 Standby circuitry. SRAM2 content can be preserved if the bit RRS is set in PWR_CR3 
 291:external/drivers/stm32wlxx/src/stm32wlxx_hal_pwr.c ****                 To enable this feature, the user can resort to HAL_PWREx_EnableSRAMRetention() API
 292:external/drivers/stm32wlxx/src/stm32wlxx_hal_pwr.c ****                 to set RRS bit.
 293:external/drivers/stm32wlxx/src/stm32wlxx_hal_pwr.c ****       (++) Exit:
 294:external/drivers/stm32wlxx/src/stm32wlxx_hal_pwr.c ****           (+++) WKUP pin rising edge, RTC alarm or wakeup, tamper event, time-stamp event,
 295:external/drivers/stm32wlxx/src/stm32wlxx_hal_pwr.c ****                 external reset in NRST pin, IWDG reset.
 296:external/drivers/stm32wlxx/src/stm32wlxx_hal_pwr.c ****     [..] After waking up from Standby mode, program execution restarts in the same way as after a R
 297:external/drivers/stm32wlxx/src/stm32wlxx_hal_pwr.c **** 
 298:external/drivers/stm32wlxx/src/stm32wlxx_hal_pwr.c **** 
 299:external/drivers/stm32wlxx/src/stm32wlxx_hal_pwr.c ****     *** Shutdown mode ***
 300:external/drivers/stm32wlxx/src/stm32wlxx_hal_pwr.c ****    ======================
 301:external/drivers/stm32wlxx/src/stm32wlxx_hal_pwr.c ****     [..]
 302:external/drivers/stm32wlxx/src/stm32wlxx_hal_pwr.c ****       In Shutdown mode,
 303:external/drivers/stm32wlxx/src/stm32wlxx_hal_pwr.c ****         voltage regulator is disabled, all clocks are off except LSE, RRS bit is cleared.
 304:external/drivers/stm32wlxx/src/stm32wlxx_hal_pwr.c ****         SRAM and registers contents are lost except for backup domain registers.
 305:external/drivers/stm32wlxx/src/stm32wlxx_hal_pwr.c ****       (+) Entry:
 306:external/drivers/stm32wlxx/src/stm32wlxx_hal_pwr.c ****           The Shutdown mode is entered through HAL_PWREx_EnterSHUTDOWNMode() API.
 307:external/drivers/stm32wlxx/src/stm32wlxx_hal_pwr.c ****       (+) Exit:
 308:external/drivers/stm32wlxx/src/stm32wlxx_hal_pwr.c ****           (++) WKUP pin rising edge, RTC alarm or wakeup, tamper event, time-stamp event,
 309:external/drivers/stm32wlxx/src/stm32wlxx_hal_pwr.c ****                external reset in NRST pin.
 310:external/drivers/stm32wlxx/src/stm32wlxx_hal_pwr.c ****     [..] After waking up from Shutdown mode, program execution restarts in the same way as after a 
 311:external/drivers/stm32wlxx/src/stm32wlxx_hal_pwr.c **** 
 312:external/drivers/stm32wlxx/src/stm32wlxx_hal_pwr.c **** 
 313:external/drivers/stm32wlxx/src/stm32wlxx_hal_pwr.c ****    *** Auto-wakeup (AWU) from low-power mode ***
 314:external/drivers/stm32wlxx/src/stm32wlxx_hal_pwr.c ****    =============================================
 315:external/drivers/stm32wlxx/src/stm32wlxx_hal_pwr.c ****     [..]
 316:external/drivers/stm32wlxx/src/stm32wlxx_hal_pwr.c ****       The MCU can be woken up from low-power mode by an RTC Alarm event, an RTC
 317:external/drivers/stm32wlxx/src/stm32wlxx_hal_pwr.c ****       Wakeup event, a tamper event or a time-stamp event, without depending on
 318:external/drivers/stm32wlxx/src/stm32wlxx_hal_pwr.c ****       an external interrupt (Auto-wakeup mode).
 319:external/drivers/stm32wlxx/src/stm32wlxx_hal_pwr.c **** 
 320:external/drivers/stm32wlxx/src/stm32wlxx_hal_pwr.c ****       (+) RTC auto-wakeup (AWU) from the Stop, Standby and Shutdown modes
 321:external/drivers/stm32wlxx/src/stm32wlxx_hal_pwr.c **** 
ARM GAS  /tmp/ccWP2owg.s 			page 9


 322:external/drivers/stm32wlxx/src/stm32wlxx_hal_pwr.c **** 
 323:external/drivers/stm32wlxx/src/stm32wlxx_hal_pwr.c ****         (++) To wake up from the Stop mode with an RTC alarm event, it is necessary to
 324:external/drivers/stm32wlxx/src/stm32wlxx_hal_pwr.c ****              configure the RTC to generate the RTC alarm using the HAL_RTC_SetAlarm_IT() function.
 325:external/drivers/stm32wlxx/src/stm32wlxx_hal_pwr.c **** 
 326:external/drivers/stm32wlxx/src/stm32wlxx_hal_pwr.c ****         (++) To wake up from the Stop mode with an RTC Tamper or time stamp event, it
 327:external/drivers/stm32wlxx/src/stm32wlxx_hal_pwr.c ****              is necessary to configure the RTC to detect the tamper or time stamp event using the
 328:external/drivers/stm32wlxx/src/stm32wlxx_hal_pwr.c ****              HAL_RTCEx_SetTimeStamp_IT() or HAL_RTCEx_SetTamper_IT() functions.
 329:external/drivers/stm32wlxx/src/stm32wlxx_hal_pwr.c **** 
 330:external/drivers/stm32wlxx/src/stm32wlxx_hal_pwr.c ****         (++) To wake up from the Stop mode with an RTC WakeUp event, it is necessary to
 331:external/drivers/stm32wlxx/src/stm32wlxx_hal_pwr.c ****               configure the RTC to generate the RTC WakeUp event using the HAL_RTCEx_SetWakeUpTimer
 332:external/drivers/stm32wlxx/src/stm32wlxx_hal_pwr.c **** 
 333:external/drivers/stm32wlxx/src/stm32wlxx_hal_pwr.c **** @endverbatim
 334:external/drivers/stm32wlxx/src/stm32wlxx_hal_pwr.c ****   * @{
 335:external/drivers/stm32wlxx/src/stm32wlxx_hal_pwr.c ****   */
 336:external/drivers/stm32wlxx/src/stm32wlxx_hal_pwr.c **** 
 337:external/drivers/stm32wlxx/src/stm32wlxx_hal_pwr.c **** /**
 338:external/drivers/stm32wlxx/src/stm32wlxx_hal_pwr.c ****   * @brief  Configure the voltage threshold detected by the Power Voltage Detector (PVD).
 339:external/drivers/stm32wlxx/src/stm32wlxx_hal_pwr.c ****   * @param sConfigPVD pointer to a PWR_PVDTypeDef structure that contains the PVD
 340:external/drivers/stm32wlxx/src/stm32wlxx_hal_pwr.c ****   *         configuration information.
 341:external/drivers/stm32wlxx/src/stm32wlxx_hal_pwr.c ****   * @note   Refer to the electrical characteristics of your device datasheet for
 342:external/drivers/stm32wlxx/src/stm32wlxx_hal_pwr.c ****   *         more details about the voltage thresholds corresponding to each
 343:external/drivers/stm32wlxx/src/stm32wlxx_hal_pwr.c ****   *         detection level.
 344:external/drivers/stm32wlxx/src/stm32wlxx_hal_pwr.c ****   * @note   For devices dual core: if "sConfigPVD->Mode" is set to PVD_MODE_IT,
 345:external/drivers/stm32wlxx/src/stm32wlxx_hal_pwr.c ****   *         wake-up target is set to wake-up the selected CPU.
 346:external/drivers/stm32wlxx/src/stm32wlxx_hal_pwr.c ****   * @retval HAL Status
 347:external/drivers/stm32wlxx/src/stm32wlxx_hal_pwr.c ****   */
 348:external/drivers/stm32wlxx/src/stm32wlxx_hal_pwr.c **** HAL_StatusTypeDef HAL_PWR_ConfigPVD(const PWR_PVDTypeDef *sConfigPVD)
 349:external/drivers/stm32wlxx/src/stm32wlxx_hal_pwr.c **** {
 143              		.loc 1 349 1 is_stmt 1 view -0
 144              		.cfi_startproc
 145              		@ args = 0, pretend = 0, frame = 0
 146              		@ frame_needed = 0, uses_anonymous_args = 0
 147              		@ link register save eliminated.
 350:external/drivers/stm32wlxx/src/stm32wlxx_hal_pwr.c ****   /* Check the parameters */
 351:external/drivers/stm32wlxx/src/stm32wlxx_hal_pwr.c ****   assert_param(IS_PWR_PVD_LEVEL(sConfigPVD->PVDLevel));
 148              		.loc 1 351 3 view .LVU24
 352:external/drivers/stm32wlxx/src/stm32wlxx_hal_pwr.c ****   assert_param(IS_PWR_PVD_MODE(sConfigPVD->Mode));
 149              		.loc 1 352 3 view .LVU25
 353:external/drivers/stm32wlxx/src/stm32wlxx_hal_pwr.c **** 
 354:external/drivers/stm32wlxx/src/stm32wlxx_hal_pwr.c ****   /* Set PLS bits according to PVDLevel value */
 355:external/drivers/stm32wlxx/src/stm32wlxx_hal_pwr.c ****   MODIFY_REG(PWR->CR2, PWR_CR2_PLS, sConfigPVD->PVDLevel);
 150              		.loc 1 355 3 view .LVU26
 151 0000 1A4A     		ldr	r2, .L14
 152 0002 5368     		ldr	r3, [r2, #4]
 153 0004 23F00E03 		bic	r3, r3, #14
 154 0008 0168     		ldr	r1, [r0]
 155 000a 0B43     		orrs	r3, r3, r1
 156 000c 5360     		str	r3, [r2, #4]
 356:external/drivers/stm32wlxx/src/stm32wlxx_hal_pwr.c **** 
 357:external/drivers/stm32wlxx/src/stm32wlxx_hal_pwr.c ****   /* Clear any previous config. Keep it clear if no event or IT mode is selected */
 358:external/drivers/stm32wlxx/src/stm32wlxx_hal_pwr.c **** 
 359:external/drivers/stm32wlxx/src/stm32wlxx_hal_pwr.c ****   /* Note: On STM32WL series, power PVD event is not available on EXTI lines   */
 360:external/drivers/stm32wlxx/src/stm32wlxx_hal_pwr.c ****   /*       (only interruption is available through EXTI line 16).             */
 361:external/drivers/stm32wlxx/src/stm32wlxx_hal_pwr.c ****   __HAL_PWR_PVD_EXTI_DISABLE_IT();
 157              		.loc 1 361 3 view .LVU27
 158              	.LVL1:
 159              	.LBB14:
ARM GAS  /tmp/ccWP2owg.s 			page 10


 160              	.LBI14:
 161              		.file 2 "external/drivers/stm32wlxx/include/stm32wlxx_ll_exti.h"
   1:external/drivers/stm32wlxx/include/stm32wlxx_ll_exti.h **** /**
   2:external/drivers/stm32wlxx/include/stm32wlxx_ll_exti.h ****   ******************************************************************************
   3:external/drivers/stm32wlxx/include/stm32wlxx_ll_exti.h ****   * @file    stm32wlxx_ll_exti.h
   4:external/drivers/stm32wlxx/include/stm32wlxx_ll_exti.h ****   * @author  MCD Application Team
   5:external/drivers/stm32wlxx/include/stm32wlxx_ll_exti.h ****   * @brief   Header file of EXTI LL module.
   6:external/drivers/stm32wlxx/include/stm32wlxx_ll_exti.h ****   ******************************************************************************
   7:external/drivers/stm32wlxx/include/stm32wlxx_ll_exti.h ****   * @attention
   8:external/drivers/stm32wlxx/include/stm32wlxx_ll_exti.h ****   *
   9:external/drivers/stm32wlxx/include/stm32wlxx_ll_exti.h ****   * Copyright (c) 2020 STMicroelectronics.
  10:external/drivers/stm32wlxx/include/stm32wlxx_ll_exti.h ****   * All rights reserved.
  11:external/drivers/stm32wlxx/include/stm32wlxx_ll_exti.h ****   *
  12:external/drivers/stm32wlxx/include/stm32wlxx_ll_exti.h ****   * This software is licensed under terms that can be found in the LICENSE file
  13:external/drivers/stm32wlxx/include/stm32wlxx_ll_exti.h ****   * in the root directory of this software component.
  14:external/drivers/stm32wlxx/include/stm32wlxx_ll_exti.h ****   * If no LICENSE file comes with this software, it is provided AS-IS.
  15:external/drivers/stm32wlxx/include/stm32wlxx_ll_exti.h ****   *
  16:external/drivers/stm32wlxx/include/stm32wlxx_ll_exti.h ****   ******************************************************************************
  17:external/drivers/stm32wlxx/include/stm32wlxx_ll_exti.h ****   */
  18:external/drivers/stm32wlxx/include/stm32wlxx_ll_exti.h **** 
  19:external/drivers/stm32wlxx/include/stm32wlxx_ll_exti.h **** /* Define to prevent recursive inclusion -------------------------------------*/
  20:external/drivers/stm32wlxx/include/stm32wlxx_ll_exti.h **** #ifndef __STM32WLxx_LL_EXTI_H
  21:external/drivers/stm32wlxx/include/stm32wlxx_ll_exti.h **** #define __STM32WLxx_LL_EXTI_H
  22:external/drivers/stm32wlxx/include/stm32wlxx_ll_exti.h **** 
  23:external/drivers/stm32wlxx/include/stm32wlxx_ll_exti.h **** #ifdef __cplusplus
  24:external/drivers/stm32wlxx/include/stm32wlxx_ll_exti.h **** extern "C" {
  25:external/drivers/stm32wlxx/include/stm32wlxx_ll_exti.h **** #endif
  26:external/drivers/stm32wlxx/include/stm32wlxx_ll_exti.h **** 
  27:external/drivers/stm32wlxx/include/stm32wlxx_ll_exti.h **** /* Includes ------------------------------------------------------------------*/
  28:external/drivers/stm32wlxx/include/stm32wlxx_ll_exti.h **** #include "stm32wlxx.h"
  29:external/drivers/stm32wlxx/include/stm32wlxx_ll_exti.h **** 
  30:external/drivers/stm32wlxx/include/stm32wlxx_ll_exti.h **** /** @addtogroup STM32WLxx_LL_Driver
  31:external/drivers/stm32wlxx/include/stm32wlxx_ll_exti.h ****   * @{
  32:external/drivers/stm32wlxx/include/stm32wlxx_ll_exti.h ****   */
  33:external/drivers/stm32wlxx/include/stm32wlxx_ll_exti.h **** 
  34:external/drivers/stm32wlxx/include/stm32wlxx_ll_exti.h **** #if defined (EXTI)
  35:external/drivers/stm32wlxx/include/stm32wlxx_ll_exti.h **** 
  36:external/drivers/stm32wlxx/include/stm32wlxx_ll_exti.h **** /** @defgroup EXTI_LL EXTI
  37:external/drivers/stm32wlxx/include/stm32wlxx_ll_exti.h ****   * @{
  38:external/drivers/stm32wlxx/include/stm32wlxx_ll_exti.h ****   */
  39:external/drivers/stm32wlxx/include/stm32wlxx_ll_exti.h **** 
  40:external/drivers/stm32wlxx/include/stm32wlxx_ll_exti.h **** /* Private types -------------------------------------------------------------*/
  41:external/drivers/stm32wlxx/include/stm32wlxx_ll_exti.h **** /* Private variables ---------------------------------------------------------*/
  42:external/drivers/stm32wlxx/include/stm32wlxx_ll_exti.h **** /* Private constants ---------------------------------------------------------*/
  43:external/drivers/stm32wlxx/include/stm32wlxx_ll_exti.h **** /* Private Macros ------------------------------------------------------------*/
  44:external/drivers/stm32wlxx/include/stm32wlxx_ll_exti.h **** #if defined(USE_FULL_LL_DRIVER)
  45:external/drivers/stm32wlxx/include/stm32wlxx_ll_exti.h **** /** @defgroup EXTI_LL_Private_Macros EXTI Private Macros
  46:external/drivers/stm32wlxx/include/stm32wlxx_ll_exti.h ****   * @{
  47:external/drivers/stm32wlxx/include/stm32wlxx_ll_exti.h ****   */
  48:external/drivers/stm32wlxx/include/stm32wlxx_ll_exti.h **** /**
  49:external/drivers/stm32wlxx/include/stm32wlxx_ll_exti.h ****   * @}
  50:external/drivers/stm32wlxx/include/stm32wlxx_ll_exti.h ****   */
  51:external/drivers/stm32wlxx/include/stm32wlxx_ll_exti.h **** #endif /*USE_FULL_LL_DRIVER*/
  52:external/drivers/stm32wlxx/include/stm32wlxx_ll_exti.h **** /* Exported types ------------------------------------------------------------*/
  53:external/drivers/stm32wlxx/include/stm32wlxx_ll_exti.h **** #if defined(USE_FULL_LL_DRIVER)
  54:external/drivers/stm32wlxx/include/stm32wlxx_ll_exti.h **** /** @defgroup EXTI_LL_ES_INIT EXTI Exported Init structure
  55:external/drivers/stm32wlxx/include/stm32wlxx_ll_exti.h ****   * @{
ARM GAS  /tmp/ccWP2owg.s 			page 11


  56:external/drivers/stm32wlxx/include/stm32wlxx_ll_exti.h ****   */
  57:external/drivers/stm32wlxx/include/stm32wlxx_ll_exti.h **** typedef struct
  58:external/drivers/stm32wlxx/include/stm32wlxx_ll_exti.h **** {
  59:external/drivers/stm32wlxx/include/stm32wlxx_ll_exti.h **** 
  60:external/drivers/stm32wlxx/include/stm32wlxx_ll_exti.h ****   uint32_t Line_0_31;           /*!< Specifies the EXTI lines to be enabled or disabled for Lines i
  61:external/drivers/stm32wlxx/include/stm32wlxx_ll_exti.h ****                                      This parameter can be any combination of @ref EXTI_LL_EC_LINE 
  62:external/drivers/stm32wlxx/include/stm32wlxx_ll_exti.h **** 
  63:external/drivers/stm32wlxx/include/stm32wlxx_ll_exti.h ****   uint32_t Line_32_63;          /*!< Specifies the EXTI lines to be enabled or disabled for Lines i
  64:external/drivers/stm32wlxx/include/stm32wlxx_ll_exti.h ****                                      This parameter can be any combination of @ref EXTI_LL_EC_LINE 
  65:external/drivers/stm32wlxx/include/stm32wlxx_ll_exti.h **** 
  66:external/drivers/stm32wlxx/include/stm32wlxx_ll_exti.h ****   FunctionalState LineCommand;  /*!< Specifies the new state of the selected EXTI lines.
  67:external/drivers/stm32wlxx/include/stm32wlxx_ll_exti.h ****                                      This parameter can be set either to ENABLE or DISABLE */
  68:external/drivers/stm32wlxx/include/stm32wlxx_ll_exti.h **** 
  69:external/drivers/stm32wlxx/include/stm32wlxx_ll_exti.h ****   uint8_t Mode;                 /*!< Specifies the mode for the EXTI lines.
  70:external/drivers/stm32wlxx/include/stm32wlxx_ll_exti.h ****                                      This parameter can be a value of @ref EXTI_LL_EC_MODE. */
  71:external/drivers/stm32wlxx/include/stm32wlxx_ll_exti.h **** 
  72:external/drivers/stm32wlxx/include/stm32wlxx_ll_exti.h ****   uint8_t Trigger;              /*!< Specifies the trigger signal active edge for the EXTI lines.
  73:external/drivers/stm32wlxx/include/stm32wlxx_ll_exti.h ****                                      This parameter can be a value of @ref EXTI_LL_EC_TRIGGER. */
  74:external/drivers/stm32wlxx/include/stm32wlxx_ll_exti.h **** } LL_EXTI_InitTypeDef;
  75:external/drivers/stm32wlxx/include/stm32wlxx_ll_exti.h **** 
  76:external/drivers/stm32wlxx/include/stm32wlxx_ll_exti.h **** /**
  77:external/drivers/stm32wlxx/include/stm32wlxx_ll_exti.h ****   * @}
  78:external/drivers/stm32wlxx/include/stm32wlxx_ll_exti.h ****   */
  79:external/drivers/stm32wlxx/include/stm32wlxx_ll_exti.h **** #endif /*USE_FULL_LL_DRIVER*/
  80:external/drivers/stm32wlxx/include/stm32wlxx_ll_exti.h **** 
  81:external/drivers/stm32wlxx/include/stm32wlxx_ll_exti.h **** /* Exported constants --------------------------------------------------------*/
  82:external/drivers/stm32wlxx/include/stm32wlxx_ll_exti.h **** /** @defgroup EXTI_LL_Exported_Constants EXTI Exported Constants
  83:external/drivers/stm32wlxx/include/stm32wlxx_ll_exti.h ****   * @{
  84:external/drivers/stm32wlxx/include/stm32wlxx_ll_exti.h ****   */
  85:external/drivers/stm32wlxx/include/stm32wlxx_ll_exti.h **** 
  86:external/drivers/stm32wlxx/include/stm32wlxx_ll_exti.h **** /** @defgroup EXTI_LL_EC_LINE LINE
  87:external/drivers/stm32wlxx/include/stm32wlxx_ll_exti.h ****   * @{
  88:external/drivers/stm32wlxx/include/stm32wlxx_ll_exti.h ****   */
  89:external/drivers/stm32wlxx/include/stm32wlxx_ll_exti.h **** #define LL_EXTI_LINE_0                  EXTI_IMR1_IM0    /*!< Extended line 0 */
  90:external/drivers/stm32wlxx/include/stm32wlxx_ll_exti.h **** #define LL_EXTI_LINE_1                  EXTI_IMR1_IM1    /*!< Extended line 1 */
  91:external/drivers/stm32wlxx/include/stm32wlxx_ll_exti.h **** #define LL_EXTI_LINE_2                  EXTI_IMR1_IM2    /*!< Extended line 2 */
  92:external/drivers/stm32wlxx/include/stm32wlxx_ll_exti.h **** #define LL_EXTI_LINE_3                  EXTI_IMR1_IM3    /*!< Extended line 3 */
  93:external/drivers/stm32wlxx/include/stm32wlxx_ll_exti.h **** #define LL_EXTI_LINE_4                  EXTI_IMR1_IM4    /*!< Extended line 4 */
  94:external/drivers/stm32wlxx/include/stm32wlxx_ll_exti.h **** #define LL_EXTI_LINE_5                  EXTI_IMR1_IM5    /*!< Extended line 5 */
  95:external/drivers/stm32wlxx/include/stm32wlxx_ll_exti.h **** #define LL_EXTI_LINE_6                  EXTI_IMR1_IM6    /*!< Extended line 6 */
  96:external/drivers/stm32wlxx/include/stm32wlxx_ll_exti.h **** #define LL_EXTI_LINE_7                  EXTI_IMR1_IM7    /*!< Extended line 7 */
  97:external/drivers/stm32wlxx/include/stm32wlxx_ll_exti.h **** #define LL_EXTI_LINE_8                  EXTI_IMR1_IM8    /*!< Extended line 8 */
  98:external/drivers/stm32wlxx/include/stm32wlxx_ll_exti.h **** #define LL_EXTI_LINE_9                  EXTI_IMR1_IM9    /*!< Extended line 9 */
  99:external/drivers/stm32wlxx/include/stm32wlxx_ll_exti.h **** #define LL_EXTI_LINE_10                 EXTI_IMR1_IM10   /*!< Extended line 10 */
 100:external/drivers/stm32wlxx/include/stm32wlxx_ll_exti.h **** #define LL_EXTI_LINE_11                 EXTI_IMR1_IM11   /*!< Extended line 11 */
 101:external/drivers/stm32wlxx/include/stm32wlxx_ll_exti.h **** #define LL_EXTI_LINE_12                 EXTI_IMR1_IM12   /*!< Extended line 12 */
 102:external/drivers/stm32wlxx/include/stm32wlxx_ll_exti.h **** #define LL_EXTI_LINE_13                 EXTI_IMR1_IM13   /*!< Extended line 13 */
 103:external/drivers/stm32wlxx/include/stm32wlxx_ll_exti.h **** #define LL_EXTI_LINE_14                 EXTI_IMR1_IM14   /*!< Extended line 14 */
 104:external/drivers/stm32wlxx/include/stm32wlxx_ll_exti.h **** #define LL_EXTI_LINE_15                 EXTI_IMR1_IM15   /*!< Extended line 15 */
 105:external/drivers/stm32wlxx/include/stm32wlxx_ll_exti.h **** #define LL_EXTI_LINE_16                 EXTI_IMR1_IM16   /*!< Extended line 16 */
 106:external/drivers/stm32wlxx/include/stm32wlxx_ll_exti.h **** #define LL_EXTI_LINE_17                 EXTI_IMR1_IM17   /*!< Extended line 17 */
 107:external/drivers/stm32wlxx/include/stm32wlxx_ll_exti.h **** #define LL_EXTI_LINE_18                 EXTI_IMR1_IM18   /*!< Extended line 18 */
 108:external/drivers/stm32wlxx/include/stm32wlxx_ll_exti.h **** #define LL_EXTI_LINE_19                 EXTI_IMR1_IM19   /*!< Extended line 19 */
 109:external/drivers/stm32wlxx/include/stm32wlxx_ll_exti.h **** #define LL_EXTI_LINE_20                 EXTI_IMR1_IM20   /*!< Extended line 20 */
 110:external/drivers/stm32wlxx/include/stm32wlxx_ll_exti.h **** #define LL_EXTI_LINE_21                 EXTI_IMR1_IM21   /*!< Extended line 21 */
 111:external/drivers/stm32wlxx/include/stm32wlxx_ll_exti.h **** #define LL_EXTI_LINE_22                 EXTI_IMR1_IM22   /*!< Extended line 22 */
 112:external/drivers/stm32wlxx/include/stm32wlxx_ll_exti.h **** #define LL_EXTI_LINE_23                 EXTI_IMR1_IM23   /*!< Extended line 23 */
ARM GAS  /tmp/ccWP2owg.s 			page 12


 113:external/drivers/stm32wlxx/include/stm32wlxx_ll_exti.h **** #define LL_EXTI_LINE_24                 EXTI_IMR1_IM24   /*!< Extended line 24 */
 114:external/drivers/stm32wlxx/include/stm32wlxx_ll_exti.h **** #define LL_EXTI_LINE_25                 EXTI_IMR1_IM25   /*!< Extended line 25 */
 115:external/drivers/stm32wlxx/include/stm32wlxx_ll_exti.h **** #define LL_EXTI_LINE_26                 EXTI_IMR1_IM26   /*!< Extended line 26 */
 116:external/drivers/stm32wlxx/include/stm32wlxx_ll_exti.h **** #define LL_EXTI_LINE_27                 EXTI_IMR1_IM27   /*!< Extended line 27 */
 117:external/drivers/stm32wlxx/include/stm32wlxx_ll_exti.h **** #define LL_EXTI_LINE_28                 EXTI_IMR1_IM28   /*!< Extended line 28 */
 118:external/drivers/stm32wlxx/include/stm32wlxx_ll_exti.h **** #define LL_EXTI_LINE_29                 EXTI_IMR1_IM29   /*!< Extended line 29 */
 119:external/drivers/stm32wlxx/include/stm32wlxx_ll_exti.h **** #define LL_EXTI_LINE_30                 EXTI_IMR1_IM30   /*!< Extended line 30 */
 120:external/drivers/stm32wlxx/include/stm32wlxx_ll_exti.h **** #define LL_EXTI_LINE_31                 EXTI_IMR1_IM31   /*!< Extended line 31 */
 121:external/drivers/stm32wlxx/include/stm32wlxx_ll_exti.h **** #define LL_EXTI_LINE_ALL_0_31           0xFFFFFFFFU      /*!< All Extended line not reserved*/
 122:external/drivers/stm32wlxx/include/stm32wlxx_ll_exti.h **** 
 123:external/drivers/stm32wlxx/include/stm32wlxx_ll_exti.h **** #define LL_EXTI_LINE_34                 EXTI_IMR2_IM34   /*!< Extended line 34 */
 124:external/drivers/stm32wlxx/include/stm32wlxx_ll_exti.h **** #if defined(DUAL_CORE)
 125:external/drivers/stm32wlxx/include/stm32wlxx_ll_exti.h **** #define LL_EXTI_LINE_36                 EXTI_IMR2_IM36   /*!< Extended line 36 */
 126:external/drivers/stm32wlxx/include/stm32wlxx_ll_exti.h **** #define LL_EXTI_LINE_37                 EXTI_IMR2_IM37   /*!< Extended line 37 */
 127:external/drivers/stm32wlxx/include/stm32wlxx_ll_exti.h **** #endif /* DUAL_CORE */
 128:external/drivers/stm32wlxx/include/stm32wlxx_ll_exti.h **** #define LL_EXTI_LINE_38                 EXTI_IMR2_IM38   /*!< Extended line 38 */
 129:external/drivers/stm32wlxx/include/stm32wlxx_ll_exti.h **** #if defined(DUAL_CORE)
 130:external/drivers/stm32wlxx/include/stm32wlxx_ll_exti.h **** #define LL_EXTI_LINE_39                 EXTI_IMR2_IM39   /*!< Extended line 39 */
 131:external/drivers/stm32wlxx/include/stm32wlxx_ll_exti.h **** #define LL_EXTI_LINE_40                 EXTI_IMR2_IM40   /*!< Extended line 40 */
 132:external/drivers/stm32wlxx/include/stm32wlxx_ll_exti.h **** #define LL_EXTI_LINE_41                 EXTI_IMR2_IM41   /*!< Extended line 41 */
 133:external/drivers/stm32wlxx/include/stm32wlxx_ll_exti.h **** #endif /* DUAL_CORE */
 134:external/drivers/stm32wlxx/include/stm32wlxx_ll_exti.h **** #define LL_EXTI_LINE_42                 EXTI_IMR2_IM42   /*!< Extended line 42 */
 135:external/drivers/stm32wlxx/include/stm32wlxx_ll_exti.h **** #define LL_EXTI_LINE_43                 EXTI_IMR2_IM43   /*!< Extended line 43 */
 136:external/drivers/stm32wlxx/include/stm32wlxx_ll_exti.h **** #define LL_EXTI_LINE_44                 EXTI_IMR2_IM44   /*!< Extended line 44 */
 137:external/drivers/stm32wlxx/include/stm32wlxx_ll_exti.h **** #define LL_EXTI_LINE_45                 EXTI_IMR2_IM45   /*!< Extended line 45 */
 138:external/drivers/stm32wlxx/include/stm32wlxx_ll_exti.h **** #define LL_EXTI_LINE_46                 EXTI_IMR2_IM46   /*!< Extended line 46 */
 139:external/drivers/stm32wlxx/include/stm32wlxx_ll_exti.h **** #if defined(DUAL_CORE)
 140:external/drivers/stm32wlxx/include/stm32wlxx_ll_exti.h **** #define LL_EXTI_LINE_ALL_32_63          (EXTI_IMR2_IM34 | EXTI_IMR2_IM36 | EXTI_IMR2_IM37 | \
 141:external/drivers/stm32wlxx/include/stm32wlxx_ll_exti.h ****                                          EXTI_IMR2_IM38 | EXTI_IMR2_IM39 | EXTI_IMR2_IM40 |  \
 142:external/drivers/stm32wlxx/include/stm32wlxx_ll_exti.h ****                                          EXTI_IMR2_IM41 | EXTI_IMR2_IM42 | EXTI_IMR2_IM43 |  \
 143:external/drivers/stm32wlxx/include/stm32wlxx_ll_exti.h ****                                          EXTI_IMR2_IM44 | EXTI_IMR2_IM45 | EXTI_IMR2_IM46) /*!< All
 144:external/drivers/stm32wlxx/include/stm32wlxx_ll_exti.h **** #else
 145:external/drivers/stm32wlxx/include/stm32wlxx_ll_exti.h **** #define LL_EXTI_LINE_ALL_32_63          (EXTI_IMR2_IM34 | EXTI_IMR2_IM38 | EXTI_IMR2_IM42 | \
 146:external/drivers/stm32wlxx/include/stm32wlxx_ll_exti.h ****                                          EXTI_IMR2_IM43 | EXTI_IMR2_IM44 | EXTI_IMR2_IM45 |  \
 147:external/drivers/stm32wlxx/include/stm32wlxx_ll_exti.h ****                                          EXTI_IMR2_IM46) /*!< All Extended line not reserved*/
 148:external/drivers/stm32wlxx/include/stm32wlxx_ll_exti.h **** #endif /* DUAL_CORE */
 149:external/drivers/stm32wlxx/include/stm32wlxx_ll_exti.h **** 
 150:external/drivers/stm32wlxx/include/stm32wlxx_ll_exti.h **** #if defined(USE_FULL_LL_DRIVER)
 151:external/drivers/stm32wlxx/include/stm32wlxx_ll_exti.h **** #define LL_EXTI_LINE_NONE              (0x00000000U)  /*!< None Extended line */
 152:external/drivers/stm32wlxx/include/stm32wlxx_ll_exti.h **** #endif /*USE_FULL_LL_DRIVER*/
 153:external/drivers/stm32wlxx/include/stm32wlxx_ll_exti.h **** 
 154:external/drivers/stm32wlxx/include/stm32wlxx_ll_exti.h **** /**
 155:external/drivers/stm32wlxx/include/stm32wlxx_ll_exti.h ****   * @}
 156:external/drivers/stm32wlxx/include/stm32wlxx_ll_exti.h ****   */
 157:external/drivers/stm32wlxx/include/stm32wlxx_ll_exti.h **** #if defined(USE_FULL_LL_DRIVER)
 158:external/drivers/stm32wlxx/include/stm32wlxx_ll_exti.h **** /** @defgroup EXTI_LL_EC_MODE Mode
 159:external/drivers/stm32wlxx/include/stm32wlxx_ll_exti.h ****   * @{
 160:external/drivers/stm32wlxx/include/stm32wlxx_ll_exti.h ****   */
 161:external/drivers/stm32wlxx/include/stm32wlxx_ll_exti.h **** #define LL_EXTI_MODE_IT                 ((uint8_t)0x00U) /*!< Interrupt Mode */
 162:external/drivers/stm32wlxx/include/stm32wlxx_ll_exti.h **** #define LL_EXTI_MODE_EVENT              ((uint8_t)0x01U) /*!< Event Mode */
 163:external/drivers/stm32wlxx/include/stm32wlxx_ll_exti.h **** #define LL_EXTI_MODE_IT_EVENT           ((uint8_t)0x02U) /*!< Interrupt & Event Mode */
 164:external/drivers/stm32wlxx/include/stm32wlxx_ll_exti.h **** /**
 165:external/drivers/stm32wlxx/include/stm32wlxx_ll_exti.h ****   * @}
 166:external/drivers/stm32wlxx/include/stm32wlxx_ll_exti.h ****   */
 167:external/drivers/stm32wlxx/include/stm32wlxx_ll_exti.h **** 
 168:external/drivers/stm32wlxx/include/stm32wlxx_ll_exti.h **** /** @defgroup EXTI_LL_EC_TRIGGER Edge Trigger
 169:external/drivers/stm32wlxx/include/stm32wlxx_ll_exti.h ****   * @{
ARM GAS  /tmp/ccWP2owg.s 			page 13


 170:external/drivers/stm32wlxx/include/stm32wlxx_ll_exti.h ****   */
 171:external/drivers/stm32wlxx/include/stm32wlxx_ll_exti.h **** #define LL_EXTI_TRIGGER_NONE            ((uint8_t)0x00U) /*!< No Trigger Mode */
 172:external/drivers/stm32wlxx/include/stm32wlxx_ll_exti.h **** #define LL_EXTI_TRIGGER_RISING          ((uint8_t)0x01U) /*!< Trigger Rising Mode */
 173:external/drivers/stm32wlxx/include/stm32wlxx_ll_exti.h **** #define LL_EXTI_TRIGGER_FALLING         ((uint8_t)0x02U) /*!< Trigger Falling Mode */
 174:external/drivers/stm32wlxx/include/stm32wlxx_ll_exti.h **** #define LL_EXTI_TRIGGER_RISING_FALLING  ((uint8_t)0x03U) /*!< Trigger Rising & Falling Mode */
 175:external/drivers/stm32wlxx/include/stm32wlxx_ll_exti.h **** /**
 176:external/drivers/stm32wlxx/include/stm32wlxx_ll_exti.h ****   * @}
 177:external/drivers/stm32wlxx/include/stm32wlxx_ll_exti.h ****   */
 178:external/drivers/stm32wlxx/include/stm32wlxx_ll_exti.h **** #endif /*USE_FULL_LL_DRIVER*/
 179:external/drivers/stm32wlxx/include/stm32wlxx_ll_exti.h **** 
 180:external/drivers/stm32wlxx/include/stm32wlxx_ll_exti.h **** /**
 181:external/drivers/stm32wlxx/include/stm32wlxx_ll_exti.h ****   * @}
 182:external/drivers/stm32wlxx/include/stm32wlxx_ll_exti.h ****   */
 183:external/drivers/stm32wlxx/include/stm32wlxx_ll_exti.h **** 
 184:external/drivers/stm32wlxx/include/stm32wlxx_ll_exti.h **** /* Exported macro ------------------------------------------------------------*/
 185:external/drivers/stm32wlxx/include/stm32wlxx_ll_exti.h **** /** @defgroup EXTI_LL_Exported_Macros EXTI Exported Macros
 186:external/drivers/stm32wlxx/include/stm32wlxx_ll_exti.h ****   * @{
 187:external/drivers/stm32wlxx/include/stm32wlxx_ll_exti.h ****   */
 188:external/drivers/stm32wlxx/include/stm32wlxx_ll_exti.h **** 
 189:external/drivers/stm32wlxx/include/stm32wlxx_ll_exti.h **** /** @defgroup EXTI_LL_EM_WRITE_READ Common Write and read registers Macros
 190:external/drivers/stm32wlxx/include/stm32wlxx_ll_exti.h ****   * @{
 191:external/drivers/stm32wlxx/include/stm32wlxx_ll_exti.h ****   */
 192:external/drivers/stm32wlxx/include/stm32wlxx_ll_exti.h **** 
 193:external/drivers/stm32wlxx/include/stm32wlxx_ll_exti.h **** /**
 194:external/drivers/stm32wlxx/include/stm32wlxx_ll_exti.h ****   * @brief  Write a value in EXTI register
 195:external/drivers/stm32wlxx/include/stm32wlxx_ll_exti.h ****   * @param  __REG__ Register to be written
 196:external/drivers/stm32wlxx/include/stm32wlxx_ll_exti.h ****   * @param  __VALUE__ Value to be written in the register
 197:external/drivers/stm32wlxx/include/stm32wlxx_ll_exti.h ****   * @retval None
 198:external/drivers/stm32wlxx/include/stm32wlxx_ll_exti.h ****   */
 199:external/drivers/stm32wlxx/include/stm32wlxx_ll_exti.h **** #define LL_EXTI_WriteReg(__REG__, __VALUE__) WRITE_REG(EXTI->__REG__, (__VALUE__))
 200:external/drivers/stm32wlxx/include/stm32wlxx_ll_exti.h **** 
 201:external/drivers/stm32wlxx/include/stm32wlxx_ll_exti.h **** /**
 202:external/drivers/stm32wlxx/include/stm32wlxx_ll_exti.h ****   * @brief  Read a value in EXTI register
 203:external/drivers/stm32wlxx/include/stm32wlxx_ll_exti.h ****   * @param  __REG__ Register to be read
 204:external/drivers/stm32wlxx/include/stm32wlxx_ll_exti.h ****   * @retval Register value
 205:external/drivers/stm32wlxx/include/stm32wlxx_ll_exti.h ****   */
 206:external/drivers/stm32wlxx/include/stm32wlxx_ll_exti.h **** #define LL_EXTI_ReadReg(__REG__) READ_REG(EXTI->__REG__)
 207:external/drivers/stm32wlxx/include/stm32wlxx_ll_exti.h **** /**
 208:external/drivers/stm32wlxx/include/stm32wlxx_ll_exti.h ****   * @}
 209:external/drivers/stm32wlxx/include/stm32wlxx_ll_exti.h ****   */
 210:external/drivers/stm32wlxx/include/stm32wlxx_ll_exti.h **** 
 211:external/drivers/stm32wlxx/include/stm32wlxx_ll_exti.h **** 
 212:external/drivers/stm32wlxx/include/stm32wlxx_ll_exti.h **** /**
 213:external/drivers/stm32wlxx/include/stm32wlxx_ll_exti.h ****   * @}
 214:external/drivers/stm32wlxx/include/stm32wlxx_ll_exti.h ****   */
 215:external/drivers/stm32wlxx/include/stm32wlxx_ll_exti.h **** 
 216:external/drivers/stm32wlxx/include/stm32wlxx_ll_exti.h **** 
 217:external/drivers/stm32wlxx/include/stm32wlxx_ll_exti.h **** 
 218:external/drivers/stm32wlxx/include/stm32wlxx_ll_exti.h **** /* Exported functions --------------------------------------------------------*/
 219:external/drivers/stm32wlxx/include/stm32wlxx_ll_exti.h **** /** @defgroup EXTI_LL_Exported_Functions EXTI Exported Functions
 220:external/drivers/stm32wlxx/include/stm32wlxx_ll_exti.h ****   * @{
 221:external/drivers/stm32wlxx/include/stm32wlxx_ll_exti.h ****   */
 222:external/drivers/stm32wlxx/include/stm32wlxx_ll_exti.h **** /** @defgroup EXTI_LL_EF_IT_Management IT_Management
 223:external/drivers/stm32wlxx/include/stm32wlxx_ll_exti.h ****   * @{
 224:external/drivers/stm32wlxx/include/stm32wlxx_ll_exti.h ****   */
 225:external/drivers/stm32wlxx/include/stm32wlxx_ll_exti.h **** 
 226:external/drivers/stm32wlxx/include/stm32wlxx_ll_exti.h **** /**
ARM GAS  /tmp/ccWP2owg.s 			page 14


 227:external/drivers/stm32wlxx/include/stm32wlxx_ll_exti.h ****   * @brief  Enable ExtiLine Interrupt request for Lines in range 0 to 31
 228:external/drivers/stm32wlxx/include/stm32wlxx_ll_exti.h ****   * @rmtoll IMR1         IMx           LL_EXTI_EnableIT_0_31
 229:external/drivers/stm32wlxx/include/stm32wlxx_ll_exti.h ****   * @param  ExtiLine This parameter can be one of the following values:
 230:external/drivers/stm32wlxx/include/stm32wlxx_ll_exti.h ****   *         @arg @ref LL_EXTI_LINE_0
 231:external/drivers/stm32wlxx/include/stm32wlxx_ll_exti.h ****   *         @arg @ref LL_EXTI_LINE_1
 232:external/drivers/stm32wlxx/include/stm32wlxx_ll_exti.h ****   *         @arg @ref LL_EXTI_LINE_2
 233:external/drivers/stm32wlxx/include/stm32wlxx_ll_exti.h ****   *         @arg @ref LL_EXTI_LINE_3
 234:external/drivers/stm32wlxx/include/stm32wlxx_ll_exti.h ****   *         @arg @ref LL_EXTI_LINE_4
 235:external/drivers/stm32wlxx/include/stm32wlxx_ll_exti.h ****   *         @arg @ref LL_EXTI_LINE_5
 236:external/drivers/stm32wlxx/include/stm32wlxx_ll_exti.h ****   *         @arg @ref LL_EXTI_LINE_6
 237:external/drivers/stm32wlxx/include/stm32wlxx_ll_exti.h ****   *         @arg @ref LL_EXTI_LINE_7
 238:external/drivers/stm32wlxx/include/stm32wlxx_ll_exti.h ****   *         @arg @ref LL_EXTI_LINE_8
 239:external/drivers/stm32wlxx/include/stm32wlxx_ll_exti.h ****   *         @arg @ref LL_EXTI_LINE_9
 240:external/drivers/stm32wlxx/include/stm32wlxx_ll_exti.h ****   *         @arg @ref LL_EXTI_LINE_10
 241:external/drivers/stm32wlxx/include/stm32wlxx_ll_exti.h ****   *         @arg @ref LL_EXTI_LINE_11
 242:external/drivers/stm32wlxx/include/stm32wlxx_ll_exti.h ****   *         @arg @ref LL_EXTI_LINE_12
 243:external/drivers/stm32wlxx/include/stm32wlxx_ll_exti.h ****   *         @arg @ref LL_EXTI_LINE_13
 244:external/drivers/stm32wlxx/include/stm32wlxx_ll_exti.h ****   *         @arg @ref LL_EXTI_LINE_14
 245:external/drivers/stm32wlxx/include/stm32wlxx_ll_exti.h ****   *         @arg @ref LL_EXTI_LINE_15
 246:external/drivers/stm32wlxx/include/stm32wlxx_ll_exti.h ****   *         @arg @ref LL_EXTI_LINE_16
 247:external/drivers/stm32wlxx/include/stm32wlxx_ll_exti.h ****   *         @arg @ref LL_EXTI_LINE_17
 248:external/drivers/stm32wlxx/include/stm32wlxx_ll_exti.h ****   *         @arg @ref LL_EXTI_LINE_18
 249:external/drivers/stm32wlxx/include/stm32wlxx_ll_exti.h ****   *         @arg @ref LL_EXTI_LINE_19
 250:external/drivers/stm32wlxx/include/stm32wlxx_ll_exti.h ****   *         @arg @ref LL_EXTI_LINE_20
 251:external/drivers/stm32wlxx/include/stm32wlxx_ll_exti.h ****   *         @arg @ref LL_EXTI_LINE_21
 252:external/drivers/stm32wlxx/include/stm32wlxx_ll_exti.h ****   *         @arg @ref LL_EXTI_LINE_22
 253:external/drivers/stm32wlxx/include/stm32wlxx_ll_exti.h ****   *         @arg @ref LL_EXTI_LINE_23
 254:external/drivers/stm32wlxx/include/stm32wlxx_ll_exti.h ****   *         @arg @ref LL_EXTI_LINE_24
 255:external/drivers/stm32wlxx/include/stm32wlxx_ll_exti.h ****   *         @arg @ref LL_EXTI_LINE_25
 256:external/drivers/stm32wlxx/include/stm32wlxx_ll_exti.h ****   *         @arg @ref LL_EXTI_LINE_26
 257:external/drivers/stm32wlxx/include/stm32wlxx_ll_exti.h ****   *         @arg @ref LL_EXTI_LINE_27
 258:external/drivers/stm32wlxx/include/stm32wlxx_ll_exti.h ****   *         @arg @ref LL_EXTI_LINE_28
 259:external/drivers/stm32wlxx/include/stm32wlxx_ll_exti.h ****   *         @arg @ref LL_EXTI_LINE_29
 260:external/drivers/stm32wlxx/include/stm32wlxx_ll_exti.h ****   *         @arg @ref LL_EXTI_LINE_30
 261:external/drivers/stm32wlxx/include/stm32wlxx_ll_exti.h ****   *         @arg @ref LL_EXTI_LINE_31
 262:external/drivers/stm32wlxx/include/stm32wlxx_ll_exti.h ****   *         @arg @ref LL_EXTI_LINE_ALL_0_31
 263:external/drivers/stm32wlxx/include/stm32wlxx_ll_exti.h ****   * @retval None
 264:external/drivers/stm32wlxx/include/stm32wlxx_ll_exti.h ****   */
 265:external/drivers/stm32wlxx/include/stm32wlxx_ll_exti.h **** __STATIC_INLINE void LL_EXTI_EnableIT_0_31(uint32_t ExtiLine)
 266:external/drivers/stm32wlxx/include/stm32wlxx_ll_exti.h **** {
 267:external/drivers/stm32wlxx/include/stm32wlxx_ll_exti.h ****   SET_BIT(EXTI->IMR1, ExtiLine);
 268:external/drivers/stm32wlxx/include/stm32wlxx_ll_exti.h **** }
 269:external/drivers/stm32wlxx/include/stm32wlxx_ll_exti.h **** 
 270:external/drivers/stm32wlxx/include/stm32wlxx_ll_exti.h **** #if defined(DUAL_CORE)
 271:external/drivers/stm32wlxx/include/stm32wlxx_ll_exti.h **** /**
 272:external/drivers/stm32wlxx/include/stm32wlxx_ll_exti.h ****   * @brief  Enable ExtiLine Interrupt request for Lines in range 0 to 31 for cpu2
 273:external/drivers/stm32wlxx/include/stm32wlxx_ll_exti.h ****   * @rmtoll C2IMR1         IMx           LL_C2_EXTI_EnableIT_0_31
 274:external/drivers/stm32wlxx/include/stm32wlxx_ll_exti.h ****   * @param  ExtiLine This parameter can be one of the following values:
 275:external/drivers/stm32wlxx/include/stm32wlxx_ll_exti.h ****   *         @arg @ref LL_EXTI_LINE_0
 276:external/drivers/stm32wlxx/include/stm32wlxx_ll_exti.h ****   *         @arg @ref LL_EXTI_LINE_1
 277:external/drivers/stm32wlxx/include/stm32wlxx_ll_exti.h ****   *         @arg @ref LL_EXTI_LINE_2
 278:external/drivers/stm32wlxx/include/stm32wlxx_ll_exti.h ****   *         @arg @ref LL_EXTI_LINE_3
 279:external/drivers/stm32wlxx/include/stm32wlxx_ll_exti.h ****   *         @arg @ref LL_EXTI_LINE_4
 280:external/drivers/stm32wlxx/include/stm32wlxx_ll_exti.h ****   *         @arg @ref LL_EXTI_LINE_5
 281:external/drivers/stm32wlxx/include/stm32wlxx_ll_exti.h ****   *         @arg @ref LL_EXTI_LINE_6
 282:external/drivers/stm32wlxx/include/stm32wlxx_ll_exti.h ****   *         @arg @ref LL_EXTI_LINE_7
 283:external/drivers/stm32wlxx/include/stm32wlxx_ll_exti.h ****   *         @arg @ref LL_EXTI_LINE_8
ARM GAS  /tmp/ccWP2owg.s 			page 15


 284:external/drivers/stm32wlxx/include/stm32wlxx_ll_exti.h ****   *         @arg @ref LL_EXTI_LINE_9
 285:external/drivers/stm32wlxx/include/stm32wlxx_ll_exti.h ****   *         @arg @ref LL_EXTI_LINE_10
 286:external/drivers/stm32wlxx/include/stm32wlxx_ll_exti.h ****   *         @arg @ref LL_EXTI_LINE_11
 287:external/drivers/stm32wlxx/include/stm32wlxx_ll_exti.h ****   *         @arg @ref LL_EXTI_LINE_12
 288:external/drivers/stm32wlxx/include/stm32wlxx_ll_exti.h ****   *         @arg @ref LL_EXTI_LINE_13
 289:external/drivers/stm32wlxx/include/stm32wlxx_ll_exti.h ****   *         @arg @ref LL_EXTI_LINE_14
 290:external/drivers/stm32wlxx/include/stm32wlxx_ll_exti.h ****   *         @arg @ref LL_EXTI_LINE_15
 291:external/drivers/stm32wlxx/include/stm32wlxx_ll_exti.h ****   *         @arg @ref LL_EXTI_LINE_16
 292:external/drivers/stm32wlxx/include/stm32wlxx_ll_exti.h ****   *         @arg @ref LL_EXTI_LINE_17
 293:external/drivers/stm32wlxx/include/stm32wlxx_ll_exti.h ****   *         @arg @ref LL_EXTI_LINE_18
 294:external/drivers/stm32wlxx/include/stm32wlxx_ll_exti.h ****   *         @arg @ref LL_EXTI_LINE_19
 295:external/drivers/stm32wlxx/include/stm32wlxx_ll_exti.h ****   *         @arg @ref LL_EXTI_LINE_20
 296:external/drivers/stm32wlxx/include/stm32wlxx_ll_exti.h ****   *         @arg @ref LL_EXTI_LINE_21
 297:external/drivers/stm32wlxx/include/stm32wlxx_ll_exti.h ****   *         @arg @ref LL_EXTI_LINE_22
 298:external/drivers/stm32wlxx/include/stm32wlxx_ll_exti.h ****   *         @arg @ref LL_EXTI_LINE_23
 299:external/drivers/stm32wlxx/include/stm32wlxx_ll_exti.h ****   *         @arg @ref LL_EXTI_LINE_24
 300:external/drivers/stm32wlxx/include/stm32wlxx_ll_exti.h ****   *         @arg @ref LL_EXTI_LINE_25
 301:external/drivers/stm32wlxx/include/stm32wlxx_ll_exti.h ****   *         @arg @ref LL_EXTI_LINE_26
 302:external/drivers/stm32wlxx/include/stm32wlxx_ll_exti.h ****   *         @arg @ref LL_EXTI_LINE_27
 303:external/drivers/stm32wlxx/include/stm32wlxx_ll_exti.h ****   *         @arg @ref LL_EXTI_LINE_28
 304:external/drivers/stm32wlxx/include/stm32wlxx_ll_exti.h ****   *         @arg @ref LL_EXTI_LINE_29
 305:external/drivers/stm32wlxx/include/stm32wlxx_ll_exti.h ****   *         @arg @ref LL_EXTI_LINE_30
 306:external/drivers/stm32wlxx/include/stm32wlxx_ll_exti.h ****   *         @arg @ref LL_EXTI_LINE_31
 307:external/drivers/stm32wlxx/include/stm32wlxx_ll_exti.h ****   *         @arg @ref LL_EXTI_LINE_ALL_0_31
 308:external/drivers/stm32wlxx/include/stm32wlxx_ll_exti.h ****   * @retval None
 309:external/drivers/stm32wlxx/include/stm32wlxx_ll_exti.h ****   */
 310:external/drivers/stm32wlxx/include/stm32wlxx_ll_exti.h **** __STATIC_INLINE void LL_C2_EXTI_EnableIT_0_31(uint32_t ExtiLine)
 311:external/drivers/stm32wlxx/include/stm32wlxx_ll_exti.h **** {
 312:external/drivers/stm32wlxx/include/stm32wlxx_ll_exti.h ****   SET_BIT(EXTI->C2IMR1, ExtiLine);
 313:external/drivers/stm32wlxx/include/stm32wlxx_ll_exti.h **** }
 314:external/drivers/stm32wlxx/include/stm32wlxx_ll_exti.h **** #endif /* DUAL_CORE */
 315:external/drivers/stm32wlxx/include/stm32wlxx_ll_exti.h **** 
 316:external/drivers/stm32wlxx/include/stm32wlxx_ll_exti.h **** /**
 317:external/drivers/stm32wlxx/include/stm32wlxx_ll_exti.h ****   * @brief  Enable ExtiLine Interrupt request for Lines in range 32 to 63
 318:external/drivers/stm32wlxx/include/stm32wlxx_ll_exti.h ****   * @rmtoll IMR2         IMx           LL_EXTI_EnableIT_32_63
 319:external/drivers/stm32wlxx/include/stm32wlxx_ll_exti.h ****   * @param  ExtiLine This parameter can be one of the following values:
 320:external/drivers/stm32wlxx/include/stm32wlxx_ll_exti.h ****   *         @arg @ref LL_EXTI_LINE_34
 321:external/drivers/stm32wlxx/include/stm32wlxx_ll_exti.h ****   *         @arg @ref LL_EXTI_LINE_36 (*)
 322:external/drivers/stm32wlxx/include/stm32wlxx_ll_exti.h ****   *         @arg @ref LL_EXTI_LINE_37 (*)
 323:external/drivers/stm32wlxx/include/stm32wlxx_ll_exti.h ****   *         @arg @ref LL_EXTI_LINE_38
 324:external/drivers/stm32wlxx/include/stm32wlxx_ll_exti.h ****   *         @arg @ref LL_EXTI_LINE_39 (*)
 325:external/drivers/stm32wlxx/include/stm32wlxx_ll_exti.h ****   *         @arg @ref LL_EXTI_LINE_40 (*)
 326:external/drivers/stm32wlxx/include/stm32wlxx_ll_exti.h ****   *         @arg @ref LL_EXTI_LINE_41 (*)
 327:external/drivers/stm32wlxx/include/stm32wlxx_ll_exti.h ****   *         @arg @ref LL_EXTI_LINE_42
 328:external/drivers/stm32wlxx/include/stm32wlxx_ll_exti.h ****   *         @arg @ref LL_EXTI_LINE_43
 329:external/drivers/stm32wlxx/include/stm32wlxx_ll_exti.h ****   *         @arg @ref LL_EXTI_LINE_44
 330:external/drivers/stm32wlxx/include/stm32wlxx_ll_exti.h ****   *         @arg @ref LL_EXTI_LINE_45
 331:external/drivers/stm32wlxx/include/stm32wlxx_ll_exti.h ****   *         @arg @ref LL_EXTI_LINE_46
 332:external/drivers/stm32wlxx/include/stm32wlxx_ll_exti.h ****   *         @arg @ref LL_EXTI_LINE_ALL_32_63
 333:external/drivers/stm32wlxx/include/stm32wlxx_ll_exti.h ****   *         (*) value not defined in all devices
 334:external/drivers/stm32wlxx/include/stm32wlxx_ll_exti.h ****   * @retval None
 335:external/drivers/stm32wlxx/include/stm32wlxx_ll_exti.h ****   */
 336:external/drivers/stm32wlxx/include/stm32wlxx_ll_exti.h **** __STATIC_INLINE void LL_EXTI_EnableIT_32_63(uint32_t ExtiLine)
 337:external/drivers/stm32wlxx/include/stm32wlxx_ll_exti.h **** {
 338:external/drivers/stm32wlxx/include/stm32wlxx_ll_exti.h ****   SET_BIT(EXTI->IMR2, ExtiLine);
 339:external/drivers/stm32wlxx/include/stm32wlxx_ll_exti.h **** }
 340:external/drivers/stm32wlxx/include/stm32wlxx_ll_exti.h **** 
ARM GAS  /tmp/ccWP2owg.s 			page 16


 341:external/drivers/stm32wlxx/include/stm32wlxx_ll_exti.h **** #if defined(DUAL_CORE)
 342:external/drivers/stm32wlxx/include/stm32wlxx_ll_exti.h **** /**
 343:external/drivers/stm32wlxx/include/stm32wlxx_ll_exti.h ****   * @brief  Enable ExtiLine Interrupt request for Lines in range 32 to 63 for cpu2
 344:external/drivers/stm32wlxx/include/stm32wlxx_ll_exti.h ****   * @rmtoll C2IMR2         IMx           LL_C2_EXTI_EnableIT_32_63
 345:external/drivers/stm32wlxx/include/stm32wlxx_ll_exti.h ****   * @param  ExtiLine This parameter can be one of the following values:
 346:external/drivers/stm32wlxx/include/stm32wlxx_ll_exti.h ****   *         @arg @ref LL_EXTI_LINE_34
 347:external/drivers/stm32wlxx/include/stm32wlxx_ll_exti.h ****   *         @arg @ref LL_EXTI_LINE_36 (*)
 348:external/drivers/stm32wlxx/include/stm32wlxx_ll_exti.h ****   *         @arg @ref LL_EXTI_LINE_37 (*)
 349:external/drivers/stm32wlxx/include/stm32wlxx_ll_exti.h ****   *         @arg @ref LL_EXTI_LINE_38
 350:external/drivers/stm32wlxx/include/stm32wlxx_ll_exti.h ****   *         @arg @ref LL_EXTI_LINE_39 (*)
 351:external/drivers/stm32wlxx/include/stm32wlxx_ll_exti.h ****   *         @arg @ref LL_EXTI_LINE_40 (*)
 352:external/drivers/stm32wlxx/include/stm32wlxx_ll_exti.h ****   *         @arg @ref LL_EXTI_LINE_41 (*)
 353:external/drivers/stm32wlxx/include/stm32wlxx_ll_exti.h ****   *         @arg @ref LL_EXTI_LINE_42
 354:external/drivers/stm32wlxx/include/stm32wlxx_ll_exti.h ****   *         @arg @ref LL_EXTI_LINE_43
 355:external/drivers/stm32wlxx/include/stm32wlxx_ll_exti.h ****   *         @arg @ref LL_EXTI_LINE_44
 356:external/drivers/stm32wlxx/include/stm32wlxx_ll_exti.h ****   *         @arg @ref LL_EXTI_LINE_45
 357:external/drivers/stm32wlxx/include/stm32wlxx_ll_exti.h ****   *         @arg @ref LL_EXTI_LINE_46
 358:external/drivers/stm32wlxx/include/stm32wlxx_ll_exti.h ****   *         @arg @ref LL_EXTI_LINE_ALL_32_63
 359:external/drivers/stm32wlxx/include/stm32wlxx_ll_exti.h ****   *         (*) value not defined in all devices
 360:external/drivers/stm32wlxx/include/stm32wlxx_ll_exti.h ****   * @retval None
 361:external/drivers/stm32wlxx/include/stm32wlxx_ll_exti.h ****   */
 362:external/drivers/stm32wlxx/include/stm32wlxx_ll_exti.h **** __STATIC_INLINE void LL_C2_EXTI_EnableIT_32_63(uint32_t ExtiLine)
 363:external/drivers/stm32wlxx/include/stm32wlxx_ll_exti.h **** {
 364:external/drivers/stm32wlxx/include/stm32wlxx_ll_exti.h ****   SET_BIT(EXTI->C2IMR2, ExtiLine);
 365:external/drivers/stm32wlxx/include/stm32wlxx_ll_exti.h **** }
 366:external/drivers/stm32wlxx/include/stm32wlxx_ll_exti.h **** #endif /* DUAL_CORE */
 367:external/drivers/stm32wlxx/include/stm32wlxx_ll_exti.h **** 
 368:external/drivers/stm32wlxx/include/stm32wlxx_ll_exti.h **** /**
 369:external/drivers/stm32wlxx/include/stm32wlxx_ll_exti.h ****   * @brief  Disable ExtiLine Interrupt request for Lines in range 0 to 31
 370:external/drivers/stm32wlxx/include/stm32wlxx_ll_exti.h ****   * @rmtoll IMR1         IMx           LL_EXTI_DisableIT_0_31
 371:external/drivers/stm32wlxx/include/stm32wlxx_ll_exti.h ****   * @param  ExtiLine This parameter can be one of the following values:
 372:external/drivers/stm32wlxx/include/stm32wlxx_ll_exti.h ****   *         @arg @ref LL_EXTI_LINE_0
 373:external/drivers/stm32wlxx/include/stm32wlxx_ll_exti.h ****   *         @arg @ref LL_EXTI_LINE_1
 374:external/drivers/stm32wlxx/include/stm32wlxx_ll_exti.h ****   *         @arg @ref LL_EXTI_LINE_2
 375:external/drivers/stm32wlxx/include/stm32wlxx_ll_exti.h ****   *         @arg @ref LL_EXTI_LINE_3
 376:external/drivers/stm32wlxx/include/stm32wlxx_ll_exti.h ****   *         @arg @ref LL_EXTI_LINE_4
 377:external/drivers/stm32wlxx/include/stm32wlxx_ll_exti.h ****   *         @arg @ref LL_EXTI_LINE_5
 378:external/drivers/stm32wlxx/include/stm32wlxx_ll_exti.h ****   *         @arg @ref LL_EXTI_LINE_6
 379:external/drivers/stm32wlxx/include/stm32wlxx_ll_exti.h ****   *         @arg @ref LL_EXTI_LINE_7
 380:external/drivers/stm32wlxx/include/stm32wlxx_ll_exti.h ****   *         @arg @ref LL_EXTI_LINE_8
 381:external/drivers/stm32wlxx/include/stm32wlxx_ll_exti.h ****   *         @arg @ref LL_EXTI_LINE_9
 382:external/drivers/stm32wlxx/include/stm32wlxx_ll_exti.h ****   *         @arg @ref LL_EXTI_LINE_10
 383:external/drivers/stm32wlxx/include/stm32wlxx_ll_exti.h ****   *         @arg @ref LL_EXTI_LINE_11
 384:external/drivers/stm32wlxx/include/stm32wlxx_ll_exti.h ****   *         @arg @ref LL_EXTI_LINE_12
 385:external/drivers/stm32wlxx/include/stm32wlxx_ll_exti.h ****   *         @arg @ref LL_EXTI_LINE_13
 386:external/drivers/stm32wlxx/include/stm32wlxx_ll_exti.h ****   *         @arg @ref LL_EXTI_LINE_14
 387:external/drivers/stm32wlxx/include/stm32wlxx_ll_exti.h ****   *         @arg @ref LL_EXTI_LINE_15
 388:external/drivers/stm32wlxx/include/stm32wlxx_ll_exti.h ****   *         @arg @ref LL_EXTI_LINE_16
 389:external/drivers/stm32wlxx/include/stm32wlxx_ll_exti.h ****   *         @arg @ref LL_EXTI_LINE_17
 390:external/drivers/stm32wlxx/include/stm32wlxx_ll_exti.h ****   *         @arg @ref LL_EXTI_LINE_18
 391:external/drivers/stm32wlxx/include/stm32wlxx_ll_exti.h ****   *         @arg @ref LL_EXTI_LINE_19
 392:external/drivers/stm32wlxx/include/stm32wlxx_ll_exti.h ****   *         @arg @ref LL_EXTI_LINE_20
 393:external/drivers/stm32wlxx/include/stm32wlxx_ll_exti.h ****   *         @arg @ref LL_EXTI_LINE_21
 394:external/drivers/stm32wlxx/include/stm32wlxx_ll_exti.h ****   *         @arg @ref LL_EXTI_LINE_22
 395:external/drivers/stm32wlxx/include/stm32wlxx_ll_exti.h ****   *         @arg @ref LL_EXTI_LINE_23
 396:external/drivers/stm32wlxx/include/stm32wlxx_ll_exti.h ****   *         @arg @ref LL_EXTI_LINE_24
 397:external/drivers/stm32wlxx/include/stm32wlxx_ll_exti.h ****   *         @arg @ref LL_EXTI_LINE_25
ARM GAS  /tmp/ccWP2owg.s 			page 17


 398:external/drivers/stm32wlxx/include/stm32wlxx_ll_exti.h ****   *         @arg @ref LL_EXTI_LINE_26
 399:external/drivers/stm32wlxx/include/stm32wlxx_ll_exti.h ****   *         @arg @ref LL_EXTI_LINE_27
 400:external/drivers/stm32wlxx/include/stm32wlxx_ll_exti.h ****   *         @arg @ref LL_EXTI_LINE_28
 401:external/drivers/stm32wlxx/include/stm32wlxx_ll_exti.h ****   *         @arg @ref LL_EXTI_LINE_29
 402:external/drivers/stm32wlxx/include/stm32wlxx_ll_exti.h ****   *         @arg @ref LL_EXTI_LINE_30
 403:external/drivers/stm32wlxx/include/stm32wlxx_ll_exti.h ****   *         @arg @ref LL_EXTI_LINE_31
 404:external/drivers/stm32wlxx/include/stm32wlxx_ll_exti.h ****   *         @arg @ref LL_EXTI_LINE_ALL_0_31
 405:external/drivers/stm32wlxx/include/stm32wlxx_ll_exti.h ****   * @retval None
 406:external/drivers/stm32wlxx/include/stm32wlxx_ll_exti.h ****   */
 407:external/drivers/stm32wlxx/include/stm32wlxx_ll_exti.h **** __STATIC_INLINE void LL_EXTI_DisableIT_0_31(uint32_t ExtiLine)
 162              		.loc 2 407 22 view .LVU28
 163              	.LBB15:
 408:external/drivers/stm32wlxx/include/stm32wlxx_ll_exti.h **** {
 409:external/drivers/stm32wlxx/include/stm32wlxx_ll_exti.h ****   CLEAR_BIT(EXTI->IMR1, ExtiLine);
 164              		.loc 2 409 3 view .LVU29
 165 000e 184B     		ldr	r3, .L14+4
 166 0010 D3F88020 		ldr	r2, [r3, #128]
 167 0014 22F48032 		bic	r2, r2, #65536
 168 0018 C3F88020 		str	r2, [r3, #128]
 169              	.LVL2:
 170              		.loc 2 409 3 is_stmt 0 view .LVU30
 171              	.LBE15:
 172              	.LBE14:
 362:external/drivers/stm32wlxx/src/stm32wlxx_hal_pwr.c ****   __HAL_PWR_PVD_EXTI_DISABLE_RISING_EDGE();
 173              		.loc 1 362 3 is_stmt 1 view .LVU31
 174              	.LBB16:
 175              	.LBI16:
 410:external/drivers/stm32wlxx/include/stm32wlxx_ll_exti.h **** }
 411:external/drivers/stm32wlxx/include/stm32wlxx_ll_exti.h **** 
 412:external/drivers/stm32wlxx/include/stm32wlxx_ll_exti.h **** #if defined(DUAL_CORE)
 413:external/drivers/stm32wlxx/include/stm32wlxx_ll_exti.h **** /**
 414:external/drivers/stm32wlxx/include/stm32wlxx_ll_exti.h ****   * @brief  Disable ExtiLine Interrupt request for Lines in range 0 to 31 for cpu2
 415:external/drivers/stm32wlxx/include/stm32wlxx_ll_exti.h ****   * @rmtoll C2IMR1         IMx           LL_C2_EXTI_DisableIT_0_31
 416:external/drivers/stm32wlxx/include/stm32wlxx_ll_exti.h ****   * @param  ExtiLine This parameter can be one of the following values:
 417:external/drivers/stm32wlxx/include/stm32wlxx_ll_exti.h ****   *         @arg @ref LL_EXTI_LINE_0
 418:external/drivers/stm32wlxx/include/stm32wlxx_ll_exti.h ****   *         @arg @ref LL_EXTI_LINE_1
 419:external/drivers/stm32wlxx/include/stm32wlxx_ll_exti.h ****   *         @arg @ref LL_EXTI_LINE_2
 420:external/drivers/stm32wlxx/include/stm32wlxx_ll_exti.h ****   *         @arg @ref LL_EXTI_LINE_3
 421:external/drivers/stm32wlxx/include/stm32wlxx_ll_exti.h ****   *         @arg @ref LL_EXTI_LINE_4
 422:external/drivers/stm32wlxx/include/stm32wlxx_ll_exti.h ****   *         @arg @ref LL_EXTI_LINE_5
 423:external/drivers/stm32wlxx/include/stm32wlxx_ll_exti.h ****   *         @arg @ref LL_EXTI_LINE_6
 424:external/drivers/stm32wlxx/include/stm32wlxx_ll_exti.h ****   *         @arg @ref LL_EXTI_LINE_7
 425:external/drivers/stm32wlxx/include/stm32wlxx_ll_exti.h ****   *         @arg @ref LL_EXTI_LINE_8
 426:external/drivers/stm32wlxx/include/stm32wlxx_ll_exti.h ****   *         @arg @ref LL_EXTI_LINE_9
 427:external/drivers/stm32wlxx/include/stm32wlxx_ll_exti.h ****   *         @arg @ref LL_EXTI_LINE_10
 428:external/drivers/stm32wlxx/include/stm32wlxx_ll_exti.h ****   *         @arg @ref LL_EXTI_LINE_11
 429:external/drivers/stm32wlxx/include/stm32wlxx_ll_exti.h ****   *         @arg @ref LL_EXTI_LINE_12
 430:external/drivers/stm32wlxx/include/stm32wlxx_ll_exti.h ****   *         @arg @ref LL_EXTI_LINE_13
 431:external/drivers/stm32wlxx/include/stm32wlxx_ll_exti.h ****   *         @arg @ref LL_EXTI_LINE_14
 432:external/drivers/stm32wlxx/include/stm32wlxx_ll_exti.h ****   *         @arg @ref LL_EXTI_LINE_15
 433:external/drivers/stm32wlxx/include/stm32wlxx_ll_exti.h ****   *         @arg @ref LL_EXTI_LINE_16
 434:external/drivers/stm32wlxx/include/stm32wlxx_ll_exti.h ****   *         @arg @ref LL_EXTI_LINE_17
 435:external/drivers/stm32wlxx/include/stm32wlxx_ll_exti.h ****   *         @arg @ref LL_EXTI_LINE_18
 436:external/drivers/stm32wlxx/include/stm32wlxx_ll_exti.h ****   *         @arg @ref LL_EXTI_LINE_19
 437:external/drivers/stm32wlxx/include/stm32wlxx_ll_exti.h ****   *         @arg @ref LL_EXTI_LINE_20
 438:external/drivers/stm32wlxx/include/stm32wlxx_ll_exti.h ****   *         @arg @ref LL_EXTI_LINE_21
 439:external/drivers/stm32wlxx/include/stm32wlxx_ll_exti.h ****   *         @arg @ref LL_EXTI_LINE_22
ARM GAS  /tmp/ccWP2owg.s 			page 18


 440:external/drivers/stm32wlxx/include/stm32wlxx_ll_exti.h ****   *         @arg @ref LL_EXTI_LINE_23
 441:external/drivers/stm32wlxx/include/stm32wlxx_ll_exti.h ****   *         @arg @ref LL_EXTI_LINE_24
 442:external/drivers/stm32wlxx/include/stm32wlxx_ll_exti.h ****   *         @arg @ref LL_EXTI_LINE_25
 443:external/drivers/stm32wlxx/include/stm32wlxx_ll_exti.h ****   *         @arg @ref LL_EXTI_LINE_26
 444:external/drivers/stm32wlxx/include/stm32wlxx_ll_exti.h ****   *         @arg @ref LL_EXTI_LINE_27
 445:external/drivers/stm32wlxx/include/stm32wlxx_ll_exti.h ****   *         @arg @ref LL_EXTI_LINE_28
 446:external/drivers/stm32wlxx/include/stm32wlxx_ll_exti.h ****   *         @arg @ref LL_EXTI_LINE_29
 447:external/drivers/stm32wlxx/include/stm32wlxx_ll_exti.h ****   *         @arg @ref LL_EXTI_LINE_30
 448:external/drivers/stm32wlxx/include/stm32wlxx_ll_exti.h ****   *         @arg @ref LL_EXTI_LINE_31
 449:external/drivers/stm32wlxx/include/stm32wlxx_ll_exti.h ****   *         @arg @ref LL_EXTI_LINE_ALL_0_31
 450:external/drivers/stm32wlxx/include/stm32wlxx_ll_exti.h ****   * @retval None
 451:external/drivers/stm32wlxx/include/stm32wlxx_ll_exti.h ****   */
 452:external/drivers/stm32wlxx/include/stm32wlxx_ll_exti.h **** __STATIC_INLINE void LL_C2_EXTI_DisableIT_0_31(uint32_t ExtiLine)
 453:external/drivers/stm32wlxx/include/stm32wlxx_ll_exti.h **** {
 454:external/drivers/stm32wlxx/include/stm32wlxx_ll_exti.h ****   CLEAR_BIT(EXTI->C2IMR1, ExtiLine);
 455:external/drivers/stm32wlxx/include/stm32wlxx_ll_exti.h **** }
 456:external/drivers/stm32wlxx/include/stm32wlxx_ll_exti.h **** #endif /* DUAL_CORE */
 457:external/drivers/stm32wlxx/include/stm32wlxx_ll_exti.h **** 
 458:external/drivers/stm32wlxx/include/stm32wlxx_ll_exti.h **** /**
 459:external/drivers/stm32wlxx/include/stm32wlxx_ll_exti.h ****   * @brief  Disable ExtiLine Interrupt request for Lines in range 32 to 63
 460:external/drivers/stm32wlxx/include/stm32wlxx_ll_exti.h ****   * @rmtoll IMR2         IMx           LL_EXTI_DisableIT_32_63
 461:external/drivers/stm32wlxx/include/stm32wlxx_ll_exti.h ****   * @param  ExtiLine This parameter can be one of the following values:
 462:external/drivers/stm32wlxx/include/stm32wlxx_ll_exti.h ****   *         @arg @ref LL_EXTI_LINE_34
 463:external/drivers/stm32wlxx/include/stm32wlxx_ll_exti.h ****   *         @arg @ref LL_EXTI_LINE_36 (*)
 464:external/drivers/stm32wlxx/include/stm32wlxx_ll_exti.h ****   *         @arg @ref LL_EXTI_LINE_37 (*)
 465:external/drivers/stm32wlxx/include/stm32wlxx_ll_exti.h ****   *         @arg @ref LL_EXTI_LINE_38
 466:external/drivers/stm32wlxx/include/stm32wlxx_ll_exti.h ****   *         @arg @ref LL_EXTI_LINE_39 (*)
 467:external/drivers/stm32wlxx/include/stm32wlxx_ll_exti.h ****   *         @arg @ref LL_EXTI_LINE_40 (*)
 468:external/drivers/stm32wlxx/include/stm32wlxx_ll_exti.h ****   *         @arg @ref LL_EXTI_LINE_41 (*)
 469:external/drivers/stm32wlxx/include/stm32wlxx_ll_exti.h ****   *         @arg @ref LL_EXTI_LINE_42
 470:external/drivers/stm32wlxx/include/stm32wlxx_ll_exti.h ****   *         @arg @ref LL_EXTI_LINE_43
 471:external/drivers/stm32wlxx/include/stm32wlxx_ll_exti.h ****   *         @arg @ref LL_EXTI_LINE_44
 472:external/drivers/stm32wlxx/include/stm32wlxx_ll_exti.h ****   *         @arg @ref LL_EXTI_LINE_45
 473:external/drivers/stm32wlxx/include/stm32wlxx_ll_exti.h ****   *         @arg @ref LL_EXTI_LINE_46
 474:external/drivers/stm32wlxx/include/stm32wlxx_ll_exti.h ****   *         @arg @ref LL_EXTI_LINE_ALL_32_63
 475:external/drivers/stm32wlxx/include/stm32wlxx_ll_exti.h ****   *         (*) value not defined in all devices
 476:external/drivers/stm32wlxx/include/stm32wlxx_ll_exti.h ****   * @retval None
 477:external/drivers/stm32wlxx/include/stm32wlxx_ll_exti.h ****   */
 478:external/drivers/stm32wlxx/include/stm32wlxx_ll_exti.h **** __STATIC_INLINE void LL_EXTI_DisableIT_32_63(uint32_t ExtiLine)
 479:external/drivers/stm32wlxx/include/stm32wlxx_ll_exti.h **** {
 480:external/drivers/stm32wlxx/include/stm32wlxx_ll_exti.h ****   CLEAR_BIT(EXTI->IMR2, ExtiLine);
 481:external/drivers/stm32wlxx/include/stm32wlxx_ll_exti.h **** }
 482:external/drivers/stm32wlxx/include/stm32wlxx_ll_exti.h **** 
 483:external/drivers/stm32wlxx/include/stm32wlxx_ll_exti.h **** #if defined(DUAL_CORE)
 484:external/drivers/stm32wlxx/include/stm32wlxx_ll_exti.h **** /**
 485:external/drivers/stm32wlxx/include/stm32wlxx_ll_exti.h ****   * @brief  Disable ExtiLine Interrupt request for Lines in range 32 to 63 for cpu2
 486:external/drivers/stm32wlxx/include/stm32wlxx_ll_exti.h ****   * @rmtoll C2IMR2         IMx           LL_C2_EXTI_DisableIT_32_63
 487:external/drivers/stm32wlxx/include/stm32wlxx_ll_exti.h ****   * @param  ExtiLine This parameter can be one of the following values:
 488:external/drivers/stm32wlxx/include/stm32wlxx_ll_exti.h ****   *         @arg @ref LL_EXTI_LINE_34
 489:external/drivers/stm32wlxx/include/stm32wlxx_ll_exti.h ****   *         @arg @ref LL_EXTI_LINE_36 (*)
 490:external/drivers/stm32wlxx/include/stm32wlxx_ll_exti.h ****   *         @arg @ref LL_EXTI_LINE_37 (*)
 491:external/drivers/stm32wlxx/include/stm32wlxx_ll_exti.h ****   *         @arg @ref LL_EXTI_LINE_38
 492:external/drivers/stm32wlxx/include/stm32wlxx_ll_exti.h ****   *         @arg @ref LL_EXTI_LINE_39 (*)
 493:external/drivers/stm32wlxx/include/stm32wlxx_ll_exti.h ****   *         @arg @ref LL_EXTI_LINE_40 (*)
 494:external/drivers/stm32wlxx/include/stm32wlxx_ll_exti.h ****   *         @arg @ref LL_EXTI_LINE_41 (*)
 495:external/drivers/stm32wlxx/include/stm32wlxx_ll_exti.h ****   *         @arg @ref LL_EXTI_LINE_42
 496:external/drivers/stm32wlxx/include/stm32wlxx_ll_exti.h ****   *         @arg @ref LL_EXTI_LINE_43
ARM GAS  /tmp/ccWP2owg.s 			page 19


 497:external/drivers/stm32wlxx/include/stm32wlxx_ll_exti.h ****   *         @arg @ref LL_EXTI_LINE_44
 498:external/drivers/stm32wlxx/include/stm32wlxx_ll_exti.h ****   *         @arg @ref LL_EXTI_LINE_45
 499:external/drivers/stm32wlxx/include/stm32wlxx_ll_exti.h ****   *         @arg @ref LL_EXTI_LINE_46
 500:external/drivers/stm32wlxx/include/stm32wlxx_ll_exti.h ****   *         @arg @ref LL_EXTI_LINE_ALL_32_63
 501:external/drivers/stm32wlxx/include/stm32wlxx_ll_exti.h ****   *         (*) value not defined in all devices
 502:external/drivers/stm32wlxx/include/stm32wlxx_ll_exti.h ****   * @retval None
 503:external/drivers/stm32wlxx/include/stm32wlxx_ll_exti.h ****   */
 504:external/drivers/stm32wlxx/include/stm32wlxx_ll_exti.h **** __STATIC_INLINE void LL_C2_EXTI_DisableIT_32_63(uint32_t ExtiLine)
 505:external/drivers/stm32wlxx/include/stm32wlxx_ll_exti.h **** {
 506:external/drivers/stm32wlxx/include/stm32wlxx_ll_exti.h ****   CLEAR_BIT(EXTI->C2IMR2, ExtiLine);
 507:external/drivers/stm32wlxx/include/stm32wlxx_ll_exti.h **** }
 508:external/drivers/stm32wlxx/include/stm32wlxx_ll_exti.h **** #endif /* DUAL_CORE */
 509:external/drivers/stm32wlxx/include/stm32wlxx_ll_exti.h **** 
 510:external/drivers/stm32wlxx/include/stm32wlxx_ll_exti.h **** /**
 511:external/drivers/stm32wlxx/include/stm32wlxx_ll_exti.h ****   * @brief  Indicate if ExtiLine Interrupt request is enabled for Lines in range 0 to 31
 512:external/drivers/stm32wlxx/include/stm32wlxx_ll_exti.h ****   * @rmtoll IMR1         IMx           LL_EXTI_IsEnabledIT_0_31
 513:external/drivers/stm32wlxx/include/stm32wlxx_ll_exti.h ****   * @param  ExtiLine This parameter can be one of the following values:
 514:external/drivers/stm32wlxx/include/stm32wlxx_ll_exti.h ****   *         @arg @ref LL_EXTI_LINE_0
 515:external/drivers/stm32wlxx/include/stm32wlxx_ll_exti.h ****   *         @arg @ref LL_EXTI_LINE_1
 516:external/drivers/stm32wlxx/include/stm32wlxx_ll_exti.h ****   *         @arg @ref LL_EXTI_LINE_2
 517:external/drivers/stm32wlxx/include/stm32wlxx_ll_exti.h ****   *         @arg @ref LL_EXTI_LINE_3
 518:external/drivers/stm32wlxx/include/stm32wlxx_ll_exti.h ****   *         @arg @ref LL_EXTI_LINE_4
 519:external/drivers/stm32wlxx/include/stm32wlxx_ll_exti.h ****   *         @arg @ref LL_EXTI_LINE_5
 520:external/drivers/stm32wlxx/include/stm32wlxx_ll_exti.h ****   *         @arg @ref LL_EXTI_LINE_6
 521:external/drivers/stm32wlxx/include/stm32wlxx_ll_exti.h ****   *         @arg @ref LL_EXTI_LINE_7
 522:external/drivers/stm32wlxx/include/stm32wlxx_ll_exti.h ****   *         @arg @ref LL_EXTI_LINE_8
 523:external/drivers/stm32wlxx/include/stm32wlxx_ll_exti.h ****   *         @arg @ref LL_EXTI_LINE_9
 524:external/drivers/stm32wlxx/include/stm32wlxx_ll_exti.h ****   *         @arg @ref LL_EXTI_LINE_10
 525:external/drivers/stm32wlxx/include/stm32wlxx_ll_exti.h ****   *         @arg @ref LL_EXTI_LINE_11
 526:external/drivers/stm32wlxx/include/stm32wlxx_ll_exti.h ****   *         @arg @ref LL_EXTI_LINE_12
 527:external/drivers/stm32wlxx/include/stm32wlxx_ll_exti.h ****   *         @arg @ref LL_EXTI_LINE_13
 528:external/drivers/stm32wlxx/include/stm32wlxx_ll_exti.h ****   *         @arg @ref LL_EXTI_LINE_14
 529:external/drivers/stm32wlxx/include/stm32wlxx_ll_exti.h ****   *         @arg @ref LL_EXTI_LINE_15
 530:external/drivers/stm32wlxx/include/stm32wlxx_ll_exti.h ****   *         @arg @ref LL_EXTI_LINE_16
 531:external/drivers/stm32wlxx/include/stm32wlxx_ll_exti.h ****   *         @arg @ref LL_EXTI_LINE_17
 532:external/drivers/stm32wlxx/include/stm32wlxx_ll_exti.h ****   *         @arg @ref LL_EXTI_LINE_18
 533:external/drivers/stm32wlxx/include/stm32wlxx_ll_exti.h ****   *         @arg @ref LL_EXTI_LINE_19
 534:external/drivers/stm32wlxx/include/stm32wlxx_ll_exti.h ****   *         @arg @ref LL_EXTI_LINE_20
 535:external/drivers/stm32wlxx/include/stm32wlxx_ll_exti.h ****   *         @arg @ref LL_EXTI_LINE_21
 536:external/drivers/stm32wlxx/include/stm32wlxx_ll_exti.h ****   *         @arg @ref LL_EXTI_LINE_22
 537:external/drivers/stm32wlxx/include/stm32wlxx_ll_exti.h ****   *         @arg @ref LL_EXTI_LINE_23
 538:external/drivers/stm32wlxx/include/stm32wlxx_ll_exti.h ****   *         @arg @ref LL_EXTI_LINE_24
 539:external/drivers/stm32wlxx/include/stm32wlxx_ll_exti.h ****   *         @arg @ref LL_EXTI_LINE_25
 540:external/drivers/stm32wlxx/include/stm32wlxx_ll_exti.h ****   *         @arg @ref LL_EXTI_LINE_26
 541:external/drivers/stm32wlxx/include/stm32wlxx_ll_exti.h ****   *         @arg @ref LL_EXTI_LINE_27
 542:external/drivers/stm32wlxx/include/stm32wlxx_ll_exti.h ****   *         @arg @ref LL_EXTI_LINE_28
 543:external/drivers/stm32wlxx/include/stm32wlxx_ll_exti.h ****   *         @arg @ref LL_EXTI_LINE_29
 544:external/drivers/stm32wlxx/include/stm32wlxx_ll_exti.h ****   *         @arg @ref LL_EXTI_LINE_30
 545:external/drivers/stm32wlxx/include/stm32wlxx_ll_exti.h ****   *         @arg @ref LL_EXTI_LINE_31
 546:external/drivers/stm32wlxx/include/stm32wlxx_ll_exti.h ****   *         @arg @ref LL_EXTI_LINE_ALL_0_31
 547:external/drivers/stm32wlxx/include/stm32wlxx_ll_exti.h ****   * @retval State of bit (1 or 0).
 548:external/drivers/stm32wlxx/include/stm32wlxx_ll_exti.h ****   */
 549:external/drivers/stm32wlxx/include/stm32wlxx_ll_exti.h **** __STATIC_INLINE uint32_t LL_EXTI_IsEnabledIT_0_31(uint32_t ExtiLine)
 550:external/drivers/stm32wlxx/include/stm32wlxx_ll_exti.h **** {
 551:external/drivers/stm32wlxx/include/stm32wlxx_ll_exti.h ****   return ((READ_BIT(EXTI->IMR1, ExtiLine) == (ExtiLine)) ? 1UL : 0UL);
 552:external/drivers/stm32wlxx/include/stm32wlxx_ll_exti.h **** }
 553:external/drivers/stm32wlxx/include/stm32wlxx_ll_exti.h **** 
ARM GAS  /tmp/ccWP2owg.s 			page 20


 554:external/drivers/stm32wlxx/include/stm32wlxx_ll_exti.h **** #if defined(DUAL_CORE)
 555:external/drivers/stm32wlxx/include/stm32wlxx_ll_exti.h **** /**
 556:external/drivers/stm32wlxx/include/stm32wlxx_ll_exti.h ****   * @brief  Indicate if ExtiLine Interrupt request is enabled for Lines in range 0 to 31 for cpu2
 557:external/drivers/stm32wlxx/include/stm32wlxx_ll_exti.h ****   * @rmtoll C2IMR1         IMx           LL_C2_EXTI_IsEnabledIT_0_31
 558:external/drivers/stm32wlxx/include/stm32wlxx_ll_exti.h ****   * @param  ExtiLine This parameter can be one of the following values:
 559:external/drivers/stm32wlxx/include/stm32wlxx_ll_exti.h ****   *         @arg @ref LL_EXTI_LINE_0
 560:external/drivers/stm32wlxx/include/stm32wlxx_ll_exti.h ****   *         @arg @ref LL_EXTI_LINE_1
 561:external/drivers/stm32wlxx/include/stm32wlxx_ll_exti.h ****   *         @arg @ref LL_EXTI_LINE_2
 562:external/drivers/stm32wlxx/include/stm32wlxx_ll_exti.h ****   *         @arg @ref LL_EXTI_LINE_3
 563:external/drivers/stm32wlxx/include/stm32wlxx_ll_exti.h ****   *         @arg @ref LL_EXTI_LINE_4
 564:external/drivers/stm32wlxx/include/stm32wlxx_ll_exti.h ****   *         @arg @ref LL_EXTI_LINE_5
 565:external/drivers/stm32wlxx/include/stm32wlxx_ll_exti.h ****   *         @arg @ref LL_EXTI_LINE_6
 566:external/drivers/stm32wlxx/include/stm32wlxx_ll_exti.h ****   *         @arg @ref LL_EXTI_LINE_7
 567:external/drivers/stm32wlxx/include/stm32wlxx_ll_exti.h ****   *         @arg @ref LL_EXTI_LINE_8
 568:external/drivers/stm32wlxx/include/stm32wlxx_ll_exti.h ****   *         @arg @ref LL_EXTI_LINE_9
 569:external/drivers/stm32wlxx/include/stm32wlxx_ll_exti.h ****   *         @arg @ref LL_EXTI_LINE_10
 570:external/drivers/stm32wlxx/include/stm32wlxx_ll_exti.h ****   *         @arg @ref LL_EXTI_LINE_11
 571:external/drivers/stm32wlxx/include/stm32wlxx_ll_exti.h ****   *         @arg @ref LL_EXTI_LINE_12
 572:external/drivers/stm32wlxx/include/stm32wlxx_ll_exti.h ****   *         @arg @ref LL_EXTI_LINE_13
 573:external/drivers/stm32wlxx/include/stm32wlxx_ll_exti.h ****   *         @arg @ref LL_EXTI_LINE_14
 574:external/drivers/stm32wlxx/include/stm32wlxx_ll_exti.h ****   *         @arg @ref LL_EXTI_LINE_15
 575:external/drivers/stm32wlxx/include/stm32wlxx_ll_exti.h ****   *         @arg @ref LL_EXTI_LINE_16
 576:external/drivers/stm32wlxx/include/stm32wlxx_ll_exti.h ****   *         @arg @ref LL_EXTI_LINE_17
 577:external/drivers/stm32wlxx/include/stm32wlxx_ll_exti.h ****   *         @arg @ref LL_EXTI_LINE_18
 578:external/drivers/stm32wlxx/include/stm32wlxx_ll_exti.h ****   *         @arg @ref LL_EXTI_LINE_19
 579:external/drivers/stm32wlxx/include/stm32wlxx_ll_exti.h ****   *         @arg @ref LL_EXTI_LINE_20
 580:external/drivers/stm32wlxx/include/stm32wlxx_ll_exti.h ****   *         @arg @ref LL_EXTI_LINE_21
 581:external/drivers/stm32wlxx/include/stm32wlxx_ll_exti.h ****   *         @arg @ref LL_EXTI_LINE_22
 582:external/drivers/stm32wlxx/include/stm32wlxx_ll_exti.h ****   *         @arg @ref LL_EXTI_LINE_23
 583:external/drivers/stm32wlxx/include/stm32wlxx_ll_exti.h ****   *         @arg @ref LL_EXTI_LINE_24
 584:external/drivers/stm32wlxx/include/stm32wlxx_ll_exti.h ****   *         @arg @ref LL_EXTI_LINE_25
 585:external/drivers/stm32wlxx/include/stm32wlxx_ll_exti.h ****   *         @arg @ref LL_EXTI_LINE_26
 586:external/drivers/stm32wlxx/include/stm32wlxx_ll_exti.h ****   *         @arg @ref LL_EXTI_LINE_27
 587:external/drivers/stm32wlxx/include/stm32wlxx_ll_exti.h ****   *         @arg @ref LL_EXTI_LINE_28
 588:external/drivers/stm32wlxx/include/stm32wlxx_ll_exti.h ****   *         @arg @ref LL_EXTI_LINE_29
 589:external/drivers/stm32wlxx/include/stm32wlxx_ll_exti.h ****   *         @arg @ref LL_EXTI_LINE_30
 590:external/drivers/stm32wlxx/include/stm32wlxx_ll_exti.h ****   *         @arg @ref LL_EXTI_LINE_31
 591:external/drivers/stm32wlxx/include/stm32wlxx_ll_exti.h ****   *         @arg @ref LL_EXTI_LINE_ALL_0_31
 592:external/drivers/stm32wlxx/include/stm32wlxx_ll_exti.h ****   * @retval State of bit (1 or 0).
 593:external/drivers/stm32wlxx/include/stm32wlxx_ll_exti.h ****   */
 594:external/drivers/stm32wlxx/include/stm32wlxx_ll_exti.h **** __STATIC_INLINE uint32_t LL_C2_EXTI_IsEnabledIT_0_31(uint32_t ExtiLine)
 595:external/drivers/stm32wlxx/include/stm32wlxx_ll_exti.h **** {
 596:external/drivers/stm32wlxx/include/stm32wlxx_ll_exti.h ****   return ((READ_BIT(EXTI->C2IMR1, ExtiLine) == (ExtiLine)) ? 1UL : 0UL);
 597:external/drivers/stm32wlxx/include/stm32wlxx_ll_exti.h **** }
 598:external/drivers/stm32wlxx/include/stm32wlxx_ll_exti.h **** #endif /* DUAL_CORE */
 599:external/drivers/stm32wlxx/include/stm32wlxx_ll_exti.h **** 
 600:external/drivers/stm32wlxx/include/stm32wlxx_ll_exti.h **** /**
 601:external/drivers/stm32wlxx/include/stm32wlxx_ll_exti.h ****   * @brief  Indicate if ExtiLine Interrupt request is enabled for Lines in range 32 to 63
 602:external/drivers/stm32wlxx/include/stm32wlxx_ll_exti.h ****   * @rmtoll IMR2         IMx           LL_EXTI_IsEnabledIT_32_63
 603:external/drivers/stm32wlxx/include/stm32wlxx_ll_exti.h ****   * @param  ExtiLine This parameter can be one of the following values:
 604:external/drivers/stm32wlxx/include/stm32wlxx_ll_exti.h ****   *         @arg @ref LL_EXTI_LINE_34
 605:external/drivers/stm32wlxx/include/stm32wlxx_ll_exti.h ****   *         @arg @ref LL_EXTI_LINE_36 (*)
 606:external/drivers/stm32wlxx/include/stm32wlxx_ll_exti.h ****   *         @arg @ref LL_EXTI_LINE_37 (*)
 607:external/drivers/stm32wlxx/include/stm32wlxx_ll_exti.h ****   *         @arg @ref LL_EXTI_LINE_38
 608:external/drivers/stm32wlxx/include/stm32wlxx_ll_exti.h ****   *         @arg @ref LL_EXTI_LINE_39 (*)
 609:external/drivers/stm32wlxx/include/stm32wlxx_ll_exti.h ****   *         @arg @ref LL_EXTI_LINE_40 (*)
 610:external/drivers/stm32wlxx/include/stm32wlxx_ll_exti.h ****   *         @arg @ref LL_EXTI_LINE_41 (*)
ARM GAS  /tmp/ccWP2owg.s 			page 21


 611:external/drivers/stm32wlxx/include/stm32wlxx_ll_exti.h ****   *         @arg @ref LL_EXTI_LINE_42
 612:external/drivers/stm32wlxx/include/stm32wlxx_ll_exti.h ****   *         @arg @ref LL_EXTI_LINE_43
 613:external/drivers/stm32wlxx/include/stm32wlxx_ll_exti.h ****   *         @arg @ref LL_EXTI_LINE_44
 614:external/drivers/stm32wlxx/include/stm32wlxx_ll_exti.h ****   *         @arg @ref LL_EXTI_LINE_45
 615:external/drivers/stm32wlxx/include/stm32wlxx_ll_exti.h ****   *         @arg @ref LL_EXTI_LINE_46
 616:external/drivers/stm32wlxx/include/stm32wlxx_ll_exti.h ****   *         @arg @ref LL_EXTI_LINE_ALL_32_63
 617:external/drivers/stm32wlxx/include/stm32wlxx_ll_exti.h ****   *         (*) value not defined in all devices
 618:external/drivers/stm32wlxx/include/stm32wlxx_ll_exti.h ****   * @retval State of bit (1 or 0).
 619:external/drivers/stm32wlxx/include/stm32wlxx_ll_exti.h ****   */
 620:external/drivers/stm32wlxx/include/stm32wlxx_ll_exti.h **** __STATIC_INLINE uint32_t LL_EXTI_IsEnabledIT_32_63(uint32_t ExtiLine)
 621:external/drivers/stm32wlxx/include/stm32wlxx_ll_exti.h **** {
 622:external/drivers/stm32wlxx/include/stm32wlxx_ll_exti.h ****   return ((READ_BIT(EXTI->IMR2, ExtiLine) == (ExtiLine)) ? 1UL : 0UL);
 623:external/drivers/stm32wlxx/include/stm32wlxx_ll_exti.h **** }
 624:external/drivers/stm32wlxx/include/stm32wlxx_ll_exti.h **** 
 625:external/drivers/stm32wlxx/include/stm32wlxx_ll_exti.h **** #if defined(DUAL_CORE)
 626:external/drivers/stm32wlxx/include/stm32wlxx_ll_exti.h **** /**
 627:external/drivers/stm32wlxx/include/stm32wlxx_ll_exti.h ****   * @brief  Indicate if ExtiLine Interrupt request is enabled for Lines in range 32 to 63 for cpu2
 628:external/drivers/stm32wlxx/include/stm32wlxx_ll_exti.h ****   * @rmtoll C2IMR2         IMx           LL_C2_EXTI_IsEnabledIT_32_63
 629:external/drivers/stm32wlxx/include/stm32wlxx_ll_exti.h ****   * @param  ExtiLine This parameter can be one of the following values:
 630:external/drivers/stm32wlxx/include/stm32wlxx_ll_exti.h ****   *         @arg @ref LL_EXTI_LINE_34
 631:external/drivers/stm32wlxx/include/stm32wlxx_ll_exti.h ****   *         @arg @ref LL_EXTI_LINE_36 (*)
 632:external/drivers/stm32wlxx/include/stm32wlxx_ll_exti.h ****   *         @arg @ref LL_EXTI_LINE_37 (*)
 633:external/drivers/stm32wlxx/include/stm32wlxx_ll_exti.h ****   *         @arg @ref LL_EXTI_LINE_38
 634:external/drivers/stm32wlxx/include/stm32wlxx_ll_exti.h ****   *         @arg @ref LL_EXTI_LINE_39 (*)
 635:external/drivers/stm32wlxx/include/stm32wlxx_ll_exti.h ****   *         @arg @ref LL_EXTI_LINE_40 (*)
 636:external/drivers/stm32wlxx/include/stm32wlxx_ll_exti.h ****   *         @arg @ref LL_EXTI_LINE_41 (*)
 637:external/drivers/stm32wlxx/include/stm32wlxx_ll_exti.h ****   *         @arg @ref LL_EXTI_LINE_42
 638:external/drivers/stm32wlxx/include/stm32wlxx_ll_exti.h ****   *         @arg @ref LL_EXTI_LINE_43
 639:external/drivers/stm32wlxx/include/stm32wlxx_ll_exti.h ****   *         @arg @ref LL_EXTI_LINE_44
 640:external/drivers/stm32wlxx/include/stm32wlxx_ll_exti.h ****   *         @arg @ref LL_EXTI_LINE_45
 641:external/drivers/stm32wlxx/include/stm32wlxx_ll_exti.h ****   *         @arg @ref LL_EXTI_LINE_46
 642:external/drivers/stm32wlxx/include/stm32wlxx_ll_exti.h ****   *         @arg @ref LL_EXTI_LINE_ALL_32_63
 643:external/drivers/stm32wlxx/include/stm32wlxx_ll_exti.h ****   *         (*) value not defined in all devices
 644:external/drivers/stm32wlxx/include/stm32wlxx_ll_exti.h ****   * @retval State of bit (1 or 0).
 645:external/drivers/stm32wlxx/include/stm32wlxx_ll_exti.h ****   */
 646:external/drivers/stm32wlxx/include/stm32wlxx_ll_exti.h **** __STATIC_INLINE uint32_t LL_C2_EXTI_IsEnabledIT_32_63(uint32_t ExtiLine)
 647:external/drivers/stm32wlxx/include/stm32wlxx_ll_exti.h **** {
 648:external/drivers/stm32wlxx/include/stm32wlxx_ll_exti.h ****   return ((READ_BIT(EXTI->C2IMR2, ExtiLine) == (ExtiLine)) ? 1UL : 0UL);
 649:external/drivers/stm32wlxx/include/stm32wlxx_ll_exti.h **** }
 650:external/drivers/stm32wlxx/include/stm32wlxx_ll_exti.h **** #endif /* DUAL_CORE */
 651:external/drivers/stm32wlxx/include/stm32wlxx_ll_exti.h **** 
 652:external/drivers/stm32wlxx/include/stm32wlxx_ll_exti.h **** /**
 653:external/drivers/stm32wlxx/include/stm32wlxx_ll_exti.h ****   * @}
 654:external/drivers/stm32wlxx/include/stm32wlxx_ll_exti.h ****   */
 655:external/drivers/stm32wlxx/include/stm32wlxx_ll_exti.h **** 
 656:external/drivers/stm32wlxx/include/stm32wlxx_ll_exti.h **** /** @defgroup EXTI_LL_EF_Event_Management Event_Management
 657:external/drivers/stm32wlxx/include/stm32wlxx_ll_exti.h ****   * @{
 658:external/drivers/stm32wlxx/include/stm32wlxx_ll_exti.h ****   */
 659:external/drivers/stm32wlxx/include/stm32wlxx_ll_exti.h **** 
 660:external/drivers/stm32wlxx/include/stm32wlxx_ll_exti.h **** /**
 661:external/drivers/stm32wlxx/include/stm32wlxx_ll_exti.h ****   * @brief  Enable ExtiLine Event request for Lines in range 0 to 31
 662:external/drivers/stm32wlxx/include/stm32wlxx_ll_exti.h ****   * @rmtoll EMR1         EMx           LL_EXTI_EnableEvent_0_31
 663:external/drivers/stm32wlxx/include/stm32wlxx_ll_exti.h ****   * @param  ExtiLine This parameter can be one of the following values:
 664:external/drivers/stm32wlxx/include/stm32wlxx_ll_exti.h ****   *         @arg @ref LL_EXTI_LINE_0
 665:external/drivers/stm32wlxx/include/stm32wlxx_ll_exti.h ****   *         @arg @ref LL_EXTI_LINE_1
 666:external/drivers/stm32wlxx/include/stm32wlxx_ll_exti.h ****   *         @arg @ref LL_EXTI_LINE_2
 667:external/drivers/stm32wlxx/include/stm32wlxx_ll_exti.h ****   *         @arg @ref LL_EXTI_LINE_3
ARM GAS  /tmp/ccWP2owg.s 			page 22


 668:external/drivers/stm32wlxx/include/stm32wlxx_ll_exti.h ****   *         @arg @ref LL_EXTI_LINE_4
 669:external/drivers/stm32wlxx/include/stm32wlxx_ll_exti.h ****   *         @arg @ref LL_EXTI_LINE_5
 670:external/drivers/stm32wlxx/include/stm32wlxx_ll_exti.h ****   *         @arg @ref LL_EXTI_LINE_6
 671:external/drivers/stm32wlxx/include/stm32wlxx_ll_exti.h ****   *         @arg @ref LL_EXTI_LINE_7
 672:external/drivers/stm32wlxx/include/stm32wlxx_ll_exti.h ****   *         @arg @ref LL_EXTI_LINE_8
 673:external/drivers/stm32wlxx/include/stm32wlxx_ll_exti.h ****   *         @arg @ref LL_EXTI_LINE_9
 674:external/drivers/stm32wlxx/include/stm32wlxx_ll_exti.h ****   *         @arg @ref LL_EXTI_LINE_10
 675:external/drivers/stm32wlxx/include/stm32wlxx_ll_exti.h ****   *         @arg @ref LL_EXTI_LINE_11
 676:external/drivers/stm32wlxx/include/stm32wlxx_ll_exti.h ****   *         @arg @ref LL_EXTI_LINE_12
 677:external/drivers/stm32wlxx/include/stm32wlxx_ll_exti.h ****   *         @arg @ref LL_EXTI_LINE_13
 678:external/drivers/stm32wlxx/include/stm32wlxx_ll_exti.h ****   *         @arg @ref LL_EXTI_LINE_14
 679:external/drivers/stm32wlxx/include/stm32wlxx_ll_exti.h ****   *         @arg @ref LL_EXTI_LINE_15
 680:external/drivers/stm32wlxx/include/stm32wlxx_ll_exti.h ****   *         @arg @ref LL_EXTI_LINE_17
 681:external/drivers/stm32wlxx/include/stm32wlxx_ll_exti.h ****   *         @arg @ref LL_EXTI_LINE_19
 682:external/drivers/stm32wlxx/include/stm32wlxx_ll_exti.h ****   *         @arg @ref LL_EXTI_LINE_20
 683:external/drivers/stm32wlxx/include/stm32wlxx_ll_exti.h ****   *         @arg @ref LL_EXTI_LINE_21
 684:external/drivers/stm32wlxx/include/stm32wlxx_ll_exti.h ****   *         @arg @ref LL_EXTI_LINE_22
 685:external/drivers/stm32wlxx/include/stm32wlxx_ll_exti.h ****   * @retval None
 686:external/drivers/stm32wlxx/include/stm32wlxx_ll_exti.h ****   */
 687:external/drivers/stm32wlxx/include/stm32wlxx_ll_exti.h **** __STATIC_INLINE void LL_EXTI_EnableEvent_0_31(uint32_t ExtiLine)
 688:external/drivers/stm32wlxx/include/stm32wlxx_ll_exti.h **** {
 689:external/drivers/stm32wlxx/include/stm32wlxx_ll_exti.h ****   SET_BIT(EXTI->EMR1, ExtiLine);
 690:external/drivers/stm32wlxx/include/stm32wlxx_ll_exti.h **** }
 691:external/drivers/stm32wlxx/include/stm32wlxx_ll_exti.h **** 
 692:external/drivers/stm32wlxx/include/stm32wlxx_ll_exti.h **** #if defined(DUAL_CORE)
 693:external/drivers/stm32wlxx/include/stm32wlxx_ll_exti.h **** /**
 694:external/drivers/stm32wlxx/include/stm32wlxx_ll_exti.h ****   * @brief  Enable ExtiLine Event request for Lines in range 0 to 31 for cpu2
 695:external/drivers/stm32wlxx/include/stm32wlxx_ll_exti.h ****   * @rmtoll C2EMR1         EMx           LL_C2_EXTI_EnableEvent_0_31
 696:external/drivers/stm32wlxx/include/stm32wlxx_ll_exti.h ****   * @param  ExtiLine This parameter can be one of the following values:
 697:external/drivers/stm32wlxx/include/stm32wlxx_ll_exti.h ****   *         @arg @ref LL_EXTI_LINE_0
 698:external/drivers/stm32wlxx/include/stm32wlxx_ll_exti.h ****   *         @arg @ref LL_EXTI_LINE_1
 699:external/drivers/stm32wlxx/include/stm32wlxx_ll_exti.h ****   *         @arg @ref LL_EXTI_LINE_2
 700:external/drivers/stm32wlxx/include/stm32wlxx_ll_exti.h ****   *         @arg @ref LL_EXTI_LINE_3
 701:external/drivers/stm32wlxx/include/stm32wlxx_ll_exti.h ****   *         @arg @ref LL_EXTI_LINE_4
 702:external/drivers/stm32wlxx/include/stm32wlxx_ll_exti.h ****   *         @arg @ref LL_EXTI_LINE_5
 703:external/drivers/stm32wlxx/include/stm32wlxx_ll_exti.h ****   *         @arg @ref LL_EXTI_LINE_6
 704:external/drivers/stm32wlxx/include/stm32wlxx_ll_exti.h ****   *         @arg @ref LL_EXTI_LINE_7
 705:external/drivers/stm32wlxx/include/stm32wlxx_ll_exti.h ****   *         @arg @ref LL_EXTI_LINE_8
 706:external/drivers/stm32wlxx/include/stm32wlxx_ll_exti.h ****   *         @arg @ref LL_EXTI_LINE_9
 707:external/drivers/stm32wlxx/include/stm32wlxx_ll_exti.h ****   *         @arg @ref LL_EXTI_LINE_10
 708:external/drivers/stm32wlxx/include/stm32wlxx_ll_exti.h ****   *         @arg @ref LL_EXTI_LINE_11
 709:external/drivers/stm32wlxx/include/stm32wlxx_ll_exti.h ****   *         @arg @ref LL_EXTI_LINE_12
 710:external/drivers/stm32wlxx/include/stm32wlxx_ll_exti.h ****   *         @arg @ref LL_EXTI_LINE_13
 711:external/drivers/stm32wlxx/include/stm32wlxx_ll_exti.h ****   *         @arg @ref LL_EXTI_LINE_14
 712:external/drivers/stm32wlxx/include/stm32wlxx_ll_exti.h ****   *         @arg @ref LL_EXTI_LINE_15
 713:external/drivers/stm32wlxx/include/stm32wlxx_ll_exti.h ****   *         @arg @ref LL_EXTI_LINE_17
 714:external/drivers/stm32wlxx/include/stm32wlxx_ll_exti.h ****   *         @arg @ref LL_EXTI_LINE_19
 715:external/drivers/stm32wlxx/include/stm32wlxx_ll_exti.h ****   *         @arg @ref LL_EXTI_LINE_20
 716:external/drivers/stm32wlxx/include/stm32wlxx_ll_exti.h ****   *         @arg @ref LL_EXTI_LINE_21
 717:external/drivers/stm32wlxx/include/stm32wlxx_ll_exti.h ****   *         @arg @ref LL_EXTI_LINE_22
 718:external/drivers/stm32wlxx/include/stm32wlxx_ll_exti.h ****   * @retval None
 719:external/drivers/stm32wlxx/include/stm32wlxx_ll_exti.h ****   */
 720:external/drivers/stm32wlxx/include/stm32wlxx_ll_exti.h **** __STATIC_INLINE void LL_C2_EXTI_EnableEvent_0_31(uint32_t ExtiLine)
 721:external/drivers/stm32wlxx/include/stm32wlxx_ll_exti.h **** {
 722:external/drivers/stm32wlxx/include/stm32wlxx_ll_exti.h ****   SET_BIT(EXTI->C2EMR1, ExtiLine);
 723:external/drivers/stm32wlxx/include/stm32wlxx_ll_exti.h **** }
 724:external/drivers/stm32wlxx/include/stm32wlxx_ll_exti.h **** #endif /* DUAL_CORE */
ARM GAS  /tmp/ccWP2owg.s 			page 23


 725:external/drivers/stm32wlxx/include/stm32wlxx_ll_exti.h **** 
 726:external/drivers/stm32wlxx/include/stm32wlxx_ll_exti.h **** /**
 727:external/drivers/stm32wlxx/include/stm32wlxx_ll_exti.h ****   * @brief  Enable ExtiLine Event request for Lines in range 32 to 63
 728:external/drivers/stm32wlxx/include/stm32wlxx_ll_exti.h ****   * @rmtoll EMR2         EMx           LL_EXTI_EnableEvent_32_63
 729:external/drivers/stm32wlxx/include/stm32wlxx_ll_exti.h ****   * @param  ExtiLine This parameter can be a combination of the following values:
 730:external/drivers/stm32wlxx/include/stm32wlxx_ll_exti.h ****   *         @arg @ref LL_EXTI_LINE_40 (*)
 731:external/drivers/stm32wlxx/include/stm32wlxx_ll_exti.h ****   *         @arg @ref LL_EXTI_LINE_41 (*)
 732:external/drivers/stm32wlxx/include/stm32wlxx_ll_exti.h ****   *         (*) value not defined in all devices
 733:external/drivers/stm32wlxx/include/stm32wlxx_ll_exti.h ****   * @retval None
 734:external/drivers/stm32wlxx/include/stm32wlxx_ll_exti.h ****   */
 735:external/drivers/stm32wlxx/include/stm32wlxx_ll_exti.h **** __STATIC_INLINE void LL_EXTI_EnableEvent_32_63(uint32_t ExtiLine)
 736:external/drivers/stm32wlxx/include/stm32wlxx_ll_exti.h **** {
 737:external/drivers/stm32wlxx/include/stm32wlxx_ll_exti.h ****   SET_BIT(EXTI->EMR2, ExtiLine);
 738:external/drivers/stm32wlxx/include/stm32wlxx_ll_exti.h **** }
 739:external/drivers/stm32wlxx/include/stm32wlxx_ll_exti.h **** 
 740:external/drivers/stm32wlxx/include/stm32wlxx_ll_exti.h **** #if defined(DUAL_CORE)
 741:external/drivers/stm32wlxx/include/stm32wlxx_ll_exti.h **** /**
 742:external/drivers/stm32wlxx/include/stm32wlxx_ll_exti.h ****   * @brief  Enable ExtiLine Event request for Lines in range 32 to 63 for cpu2
 743:external/drivers/stm32wlxx/include/stm32wlxx_ll_exti.h ****   * @rmtoll C2EMR2         EMx           LL_C2_EXTI_EnableEvent_32_63
 744:external/drivers/stm32wlxx/include/stm32wlxx_ll_exti.h ****   * @param  ExtiLine This parameter can be a combination of the following values:
 745:external/drivers/stm32wlxx/include/stm32wlxx_ll_exti.h ****   *         @arg @ref LL_EXTI_LINE_40 (*)
 746:external/drivers/stm32wlxx/include/stm32wlxx_ll_exti.h ****   *         @arg @ref LL_EXTI_LINE_41 (*)
 747:external/drivers/stm32wlxx/include/stm32wlxx_ll_exti.h ****   *         (*) value not defined in all devices
 748:external/drivers/stm32wlxx/include/stm32wlxx_ll_exti.h ****   * @retval None
 749:external/drivers/stm32wlxx/include/stm32wlxx_ll_exti.h ****   */
 750:external/drivers/stm32wlxx/include/stm32wlxx_ll_exti.h **** __STATIC_INLINE void LL_C2_EXTI_EnableEvent_32_63(uint32_t ExtiLine)
 751:external/drivers/stm32wlxx/include/stm32wlxx_ll_exti.h **** {
 752:external/drivers/stm32wlxx/include/stm32wlxx_ll_exti.h ****   SET_BIT(EXTI->C2EMR2, ExtiLine);
 753:external/drivers/stm32wlxx/include/stm32wlxx_ll_exti.h **** }
 754:external/drivers/stm32wlxx/include/stm32wlxx_ll_exti.h **** #endif /* DUAL_CORE */
 755:external/drivers/stm32wlxx/include/stm32wlxx_ll_exti.h **** 
 756:external/drivers/stm32wlxx/include/stm32wlxx_ll_exti.h **** /**
 757:external/drivers/stm32wlxx/include/stm32wlxx_ll_exti.h ****   * @brief  Disable ExtiLine Event request for Lines in range 0 to 31
 758:external/drivers/stm32wlxx/include/stm32wlxx_ll_exti.h ****   * @rmtoll EMR1         EMx           LL_EXTI_DisableEvent_0_31
 759:external/drivers/stm32wlxx/include/stm32wlxx_ll_exti.h ****   * @param  ExtiLine This parameter can be one of the following values:
 760:external/drivers/stm32wlxx/include/stm32wlxx_ll_exti.h ****   *         @arg @ref LL_EXTI_LINE_0
 761:external/drivers/stm32wlxx/include/stm32wlxx_ll_exti.h ****   *         @arg @ref LL_EXTI_LINE_1
 762:external/drivers/stm32wlxx/include/stm32wlxx_ll_exti.h ****   *         @arg @ref LL_EXTI_LINE_2
 763:external/drivers/stm32wlxx/include/stm32wlxx_ll_exti.h ****   *         @arg @ref LL_EXTI_LINE_3
 764:external/drivers/stm32wlxx/include/stm32wlxx_ll_exti.h ****   *         @arg @ref LL_EXTI_LINE_4
 765:external/drivers/stm32wlxx/include/stm32wlxx_ll_exti.h ****   *         @arg @ref LL_EXTI_LINE_5
 766:external/drivers/stm32wlxx/include/stm32wlxx_ll_exti.h ****   *         @arg @ref LL_EXTI_LINE_6
 767:external/drivers/stm32wlxx/include/stm32wlxx_ll_exti.h ****   *         @arg @ref LL_EXTI_LINE_7
 768:external/drivers/stm32wlxx/include/stm32wlxx_ll_exti.h ****   *         @arg @ref LL_EXTI_LINE_8
 769:external/drivers/stm32wlxx/include/stm32wlxx_ll_exti.h ****   *         @arg @ref LL_EXTI_LINE_9
 770:external/drivers/stm32wlxx/include/stm32wlxx_ll_exti.h ****   *         @arg @ref LL_EXTI_LINE_10
 771:external/drivers/stm32wlxx/include/stm32wlxx_ll_exti.h ****   *         @arg @ref LL_EXTI_LINE_11
 772:external/drivers/stm32wlxx/include/stm32wlxx_ll_exti.h ****   *         @arg @ref LL_EXTI_LINE_12
 773:external/drivers/stm32wlxx/include/stm32wlxx_ll_exti.h ****   *         @arg @ref LL_EXTI_LINE_13
 774:external/drivers/stm32wlxx/include/stm32wlxx_ll_exti.h ****   *         @arg @ref LL_EXTI_LINE_14
 775:external/drivers/stm32wlxx/include/stm32wlxx_ll_exti.h ****   *         @arg @ref LL_EXTI_LINE_15
 776:external/drivers/stm32wlxx/include/stm32wlxx_ll_exti.h ****   *         @arg @ref LL_EXTI_LINE_17
 777:external/drivers/stm32wlxx/include/stm32wlxx_ll_exti.h ****   *         @arg @ref LL_EXTI_LINE_19
 778:external/drivers/stm32wlxx/include/stm32wlxx_ll_exti.h ****   *         @arg @ref LL_EXTI_LINE_20
 779:external/drivers/stm32wlxx/include/stm32wlxx_ll_exti.h ****   *         @arg @ref LL_EXTI_LINE_21
 780:external/drivers/stm32wlxx/include/stm32wlxx_ll_exti.h ****   *         @arg @ref LL_EXTI_LINE_22
 781:external/drivers/stm32wlxx/include/stm32wlxx_ll_exti.h ****   * @retval None
ARM GAS  /tmp/ccWP2owg.s 			page 24


 782:external/drivers/stm32wlxx/include/stm32wlxx_ll_exti.h ****   */
 783:external/drivers/stm32wlxx/include/stm32wlxx_ll_exti.h **** __STATIC_INLINE void LL_EXTI_DisableEvent_0_31(uint32_t ExtiLine)
 784:external/drivers/stm32wlxx/include/stm32wlxx_ll_exti.h **** {
 785:external/drivers/stm32wlxx/include/stm32wlxx_ll_exti.h ****   CLEAR_BIT(EXTI->EMR1, ExtiLine);
 786:external/drivers/stm32wlxx/include/stm32wlxx_ll_exti.h **** }
 787:external/drivers/stm32wlxx/include/stm32wlxx_ll_exti.h **** 
 788:external/drivers/stm32wlxx/include/stm32wlxx_ll_exti.h **** #if defined(DUAL_CORE)
 789:external/drivers/stm32wlxx/include/stm32wlxx_ll_exti.h **** /**
 790:external/drivers/stm32wlxx/include/stm32wlxx_ll_exti.h ****   * @brief  Disable ExtiLine Event request for Lines in range 0 to 31 for cpu2
 791:external/drivers/stm32wlxx/include/stm32wlxx_ll_exti.h ****   * @rmtoll C2EMR1         EMx           LL_C2_EXTI_DisableEvent_0_31
 792:external/drivers/stm32wlxx/include/stm32wlxx_ll_exti.h ****   * @param  ExtiLine This parameter can be one of the following values:
 793:external/drivers/stm32wlxx/include/stm32wlxx_ll_exti.h ****   *         @arg @ref LL_EXTI_LINE_0
 794:external/drivers/stm32wlxx/include/stm32wlxx_ll_exti.h ****   *         @arg @ref LL_EXTI_LINE_1
 795:external/drivers/stm32wlxx/include/stm32wlxx_ll_exti.h ****   *         @arg @ref LL_EXTI_LINE_2
 796:external/drivers/stm32wlxx/include/stm32wlxx_ll_exti.h ****   *         @arg @ref LL_EXTI_LINE_3
 797:external/drivers/stm32wlxx/include/stm32wlxx_ll_exti.h ****   *         @arg @ref LL_EXTI_LINE_4
 798:external/drivers/stm32wlxx/include/stm32wlxx_ll_exti.h ****   *         @arg @ref LL_EXTI_LINE_5
 799:external/drivers/stm32wlxx/include/stm32wlxx_ll_exti.h ****   *         @arg @ref LL_EXTI_LINE_6
 800:external/drivers/stm32wlxx/include/stm32wlxx_ll_exti.h ****   *         @arg @ref LL_EXTI_LINE_7
 801:external/drivers/stm32wlxx/include/stm32wlxx_ll_exti.h ****   *         @arg @ref LL_EXTI_LINE_8
 802:external/drivers/stm32wlxx/include/stm32wlxx_ll_exti.h ****   *         @arg @ref LL_EXTI_LINE_9
 803:external/drivers/stm32wlxx/include/stm32wlxx_ll_exti.h ****   *         @arg @ref LL_EXTI_LINE_10
 804:external/drivers/stm32wlxx/include/stm32wlxx_ll_exti.h ****   *         @arg @ref LL_EXTI_LINE_11
 805:external/drivers/stm32wlxx/include/stm32wlxx_ll_exti.h ****   *         @arg @ref LL_EXTI_LINE_12
 806:external/drivers/stm32wlxx/include/stm32wlxx_ll_exti.h ****   *         @arg @ref LL_EXTI_LINE_13
 807:external/drivers/stm32wlxx/include/stm32wlxx_ll_exti.h ****   *         @arg @ref LL_EXTI_LINE_14
 808:external/drivers/stm32wlxx/include/stm32wlxx_ll_exti.h ****   *         @arg @ref LL_EXTI_LINE_15
 809:external/drivers/stm32wlxx/include/stm32wlxx_ll_exti.h ****   *         @arg @ref LL_EXTI_LINE_17
 810:external/drivers/stm32wlxx/include/stm32wlxx_ll_exti.h ****   *         @arg @ref LL_EXTI_LINE_19
 811:external/drivers/stm32wlxx/include/stm32wlxx_ll_exti.h ****   *         @arg @ref LL_EXTI_LINE_20
 812:external/drivers/stm32wlxx/include/stm32wlxx_ll_exti.h ****   *         @arg @ref LL_EXTI_LINE_21
 813:external/drivers/stm32wlxx/include/stm32wlxx_ll_exti.h ****   *         @arg @ref LL_EXTI_LINE_22
 814:external/drivers/stm32wlxx/include/stm32wlxx_ll_exti.h ****   * @retval None
 815:external/drivers/stm32wlxx/include/stm32wlxx_ll_exti.h ****   */
 816:external/drivers/stm32wlxx/include/stm32wlxx_ll_exti.h **** __STATIC_INLINE void LL_C2_EXTI_DisableEvent_0_31(uint32_t ExtiLine)
 817:external/drivers/stm32wlxx/include/stm32wlxx_ll_exti.h **** {
 818:external/drivers/stm32wlxx/include/stm32wlxx_ll_exti.h ****   CLEAR_BIT(EXTI->C2EMR1, ExtiLine);
 819:external/drivers/stm32wlxx/include/stm32wlxx_ll_exti.h **** }
 820:external/drivers/stm32wlxx/include/stm32wlxx_ll_exti.h **** #endif /* DUAL_CORE */
 821:external/drivers/stm32wlxx/include/stm32wlxx_ll_exti.h **** 
 822:external/drivers/stm32wlxx/include/stm32wlxx_ll_exti.h **** /**
 823:external/drivers/stm32wlxx/include/stm32wlxx_ll_exti.h ****   * @brief  Disable ExtiLine Event request for Lines in range 32 to 63
 824:external/drivers/stm32wlxx/include/stm32wlxx_ll_exti.h ****   * @rmtoll EMR2         EMx           LL_EXTI_DisableEvent_32_63
 825:external/drivers/stm32wlxx/include/stm32wlxx_ll_exti.h ****   * @param  ExtiLine This parameter can be a combination of the following values:
 826:external/drivers/stm32wlxx/include/stm32wlxx_ll_exti.h ****   *         @arg @ref LL_EXTI_LINE_40 (*)
 827:external/drivers/stm32wlxx/include/stm32wlxx_ll_exti.h ****   *         @arg @ref LL_EXTI_LINE_41 (*)
 828:external/drivers/stm32wlxx/include/stm32wlxx_ll_exti.h ****   *         (*) value not defined in all devices
 829:external/drivers/stm32wlxx/include/stm32wlxx_ll_exti.h ****   * @retval None
 830:external/drivers/stm32wlxx/include/stm32wlxx_ll_exti.h ****   */
 831:external/drivers/stm32wlxx/include/stm32wlxx_ll_exti.h **** __STATIC_INLINE void LL_EXTI_DisableEvent_32_63(uint32_t ExtiLine)
 832:external/drivers/stm32wlxx/include/stm32wlxx_ll_exti.h **** {
 833:external/drivers/stm32wlxx/include/stm32wlxx_ll_exti.h ****   CLEAR_BIT(EXTI->EMR2, ExtiLine);
 834:external/drivers/stm32wlxx/include/stm32wlxx_ll_exti.h **** }
 835:external/drivers/stm32wlxx/include/stm32wlxx_ll_exti.h **** 
 836:external/drivers/stm32wlxx/include/stm32wlxx_ll_exti.h **** #if defined(DUAL_CORE)
 837:external/drivers/stm32wlxx/include/stm32wlxx_ll_exti.h **** /**
 838:external/drivers/stm32wlxx/include/stm32wlxx_ll_exti.h ****   * @brief  Disable ExtiLine Event request for Lines in range 32 to 63 for cpu2
ARM GAS  /tmp/ccWP2owg.s 			page 25


 839:external/drivers/stm32wlxx/include/stm32wlxx_ll_exti.h ****   * @rmtoll C2EMR2         EMx           LL_C2_EXTI_DisableEvent_32_63
 840:external/drivers/stm32wlxx/include/stm32wlxx_ll_exti.h ****   * @param  ExtiLine This parameter can be a combination of the following values:
 841:external/drivers/stm32wlxx/include/stm32wlxx_ll_exti.h ****   *         @arg @ref LL_EXTI_LINE_40 (*)
 842:external/drivers/stm32wlxx/include/stm32wlxx_ll_exti.h ****   *         @arg @ref LL_EXTI_LINE_41 (*)
 843:external/drivers/stm32wlxx/include/stm32wlxx_ll_exti.h ****   *         (*) value not defined in all devices
 844:external/drivers/stm32wlxx/include/stm32wlxx_ll_exti.h ****   * @retval None
 845:external/drivers/stm32wlxx/include/stm32wlxx_ll_exti.h ****   */
 846:external/drivers/stm32wlxx/include/stm32wlxx_ll_exti.h **** __STATIC_INLINE void LL_C2_EXTI_DisableEvent_32_63(uint32_t ExtiLine)
 847:external/drivers/stm32wlxx/include/stm32wlxx_ll_exti.h **** {
 848:external/drivers/stm32wlxx/include/stm32wlxx_ll_exti.h ****   CLEAR_BIT(EXTI->C2EMR2, ExtiLine);
 849:external/drivers/stm32wlxx/include/stm32wlxx_ll_exti.h **** }
 850:external/drivers/stm32wlxx/include/stm32wlxx_ll_exti.h **** #endif /* DUAL_CORE */
 851:external/drivers/stm32wlxx/include/stm32wlxx_ll_exti.h **** 
 852:external/drivers/stm32wlxx/include/stm32wlxx_ll_exti.h **** /**
 853:external/drivers/stm32wlxx/include/stm32wlxx_ll_exti.h ****   * @brief  Indicate if ExtiLine Event request is enabled for Lines in range 0 to 31
 854:external/drivers/stm32wlxx/include/stm32wlxx_ll_exti.h ****   * @rmtoll EMR1         EMx           LL_EXTI_IsEnabledEvent_0_31
 855:external/drivers/stm32wlxx/include/stm32wlxx_ll_exti.h ****   * @param  ExtiLine This parameter can be one of the following values:
 856:external/drivers/stm32wlxx/include/stm32wlxx_ll_exti.h ****   *         @arg @ref LL_EXTI_LINE_0
 857:external/drivers/stm32wlxx/include/stm32wlxx_ll_exti.h ****   *         @arg @ref LL_EXTI_LINE_1
 858:external/drivers/stm32wlxx/include/stm32wlxx_ll_exti.h ****   *         @arg @ref LL_EXTI_LINE_2
 859:external/drivers/stm32wlxx/include/stm32wlxx_ll_exti.h ****   *         @arg @ref LL_EXTI_LINE_3
 860:external/drivers/stm32wlxx/include/stm32wlxx_ll_exti.h ****   *         @arg @ref LL_EXTI_LINE_4
 861:external/drivers/stm32wlxx/include/stm32wlxx_ll_exti.h ****   *         @arg @ref LL_EXTI_LINE_5
 862:external/drivers/stm32wlxx/include/stm32wlxx_ll_exti.h ****   *         @arg @ref LL_EXTI_LINE_6
 863:external/drivers/stm32wlxx/include/stm32wlxx_ll_exti.h ****   *         @arg @ref LL_EXTI_LINE_7
 864:external/drivers/stm32wlxx/include/stm32wlxx_ll_exti.h ****   *         @arg @ref LL_EXTI_LINE_8
 865:external/drivers/stm32wlxx/include/stm32wlxx_ll_exti.h ****   *         @arg @ref LL_EXTI_LINE_9
 866:external/drivers/stm32wlxx/include/stm32wlxx_ll_exti.h ****   *         @arg @ref LL_EXTI_LINE_10
 867:external/drivers/stm32wlxx/include/stm32wlxx_ll_exti.h ****   *         @arg @ref LL_EXTI_LINE_11
 868:external/drivers/stm32wlxx/include/stm32wlxx_ll_exti.h ****   *         @arg @ref LL_EXTI_LINE_12
 869:external/drivers/stm32wlxx/include/stm32wlxx_ll_exti.h ****   *         @arg @ref LL_EXTI_LINE_13
 870:external/drivers/stm32wlxx/include/stm32wlxx_ll_exti.h ****   *         @arg @ref LL_EXTI_LINE_14
 871:external/drivers/stm32wlxx/include/stm32wlxx_ll_exti.h ****   *         @arg @ref LL_EXTI_LINE_15
 872:external/drivers/stm32wlxx/include/stm32wlxx_ll_exti.h ****   *         @arg @ref LL_EXTI_LINE_17
 873:external/drivers/stm32wlxx/include/stm32wlxx_ll_exti.h ****   *         @arg @ref LL_EXTI_LINE_19
 874:external/drivers/stm32wlxx/include/stm32wlxx_ll_exti.h ****   *         @arg @ref LL_EXTI_LINE_20
 875:external/drivers/stm32wlxx/include/stm32wlxx_ll_exti.h ****   *         @arg @ref LL_EXTI_LINE_21
 876:external/drivers/stm32wlxx/include/stm32wlxx_ll_exti.h ****   *         @arg @ref LL_EXTI_LINE_22
 877:external/drivers/stm32wlxx/include/stm32wlxx_ll_exti.h ****   * @retval State of bit (1 or 0).
 878:external/drivers/stm32wlxx/include/stm32wlxx_ll_exti.h ****   */
 879:external/drivers/stm32wlxx/include/stm32wlxx_ll_exti.h **** __STATIC_INLINE uint32_t LL_EXTI_IsEnabledEvent_0_31(uint32_t ExtiLine)
 880:external/drivers/stm32wlxx/include/stm32wlxx_ll_exti.h **** {
 881:external/drivers/stm32wlxx/include/stm32wlxx_ll_exti.h ****   return ((READ_BIT(EXTI->EMR1, ExtiLine) == (ExtiLine)) ? 1UL : 0UL);
 882:external/drivers/stm32wlxx/include/stm32wlxx_ll_exti.h **** }
 883:external/drivers/stm32wlxx/include/stm32wlxx_ll_exti.h **** 
 884:external/drivers/stm32wlxx/include/stm32wlxx_ll_exti.h **** #if defined(DUAL_CORE)
 885:external/drivers/stm32wlxx/include/stm32wlxx_ll_exti.h **** /**
 886:external/drivers/stm32wlxx/include/stm32wlxx_ll_exti.h ****   * @brief  Indicate if ExtiLine Event request is enabled for Lines in range 0 to 31 for cpu2
 887:external/drivers/stm32wlxx/include/stm32wlxx_ll_exti.h ****   * @rmtoll C2EMR1         EMx           LL_C2_EXTI_IsEnabledEvent_0_31
 888:external/drivers/stm32wlxx/include/stm32wlxx_ll_exti.h ****   * @param  ExtiLine This parameter can be one of the following values:
 889:external/drivers/stm32wlxx/include/stm32wlxx_ll_exti.h ****   *         @arg @ref LL_EXTI_LINE_0
 890:external/drivers/stm32wlxx/include/stm32wlxx_ll_exti.h ****   *         @arg @ref LL_EXTI_LINE_1
 891:external/drivers/stm32wlxx/include/stm32wlxx_ll_exti.h ****   *         @arg @ref LL_EXTI_LINE_2
 892:external/drivers/stm32wlxx/include/stm32wlxx_ll_exti.h ****   *         @arg @ref LL_EXTI_LINE_3
 893:external/drivers/stm32wlxx/include/stm32wlxx_ll_exti.h ****   *         @arg @ref LL_EXTI_LINE_4
 894:external/drivers/stm32wlxx/include/stm32wlxx_ll_exti.h ****   *         @arg @ref LL_EXTI_LINE_5
 895:external/drivers/stm32wlxx/include/stm32wlxx_ll_exti.h ****   *         @arg @ref LL_EXTI_LINE_6
ARM GAS  /tmp/ccWP2owg.s 			page 26


 896:external/drivers/stm32wlxx/include/stm32wlxx_ll_exti.h ****   *         @arg @ref LL_EXTI_LINE_7
 897:external/drivers/stm32wlxx/include/stm32wlxx_ll_exti.h ****   *         @arg @ref LL_EXTI_LINE_8
 898:external/drivers/stm32wlxx/include/stm32wlxx_ll_exti.h ****   *         @arg @ref LL_EXTI_LINE_9
 899:external/drivers/stm32wlxx/include/stm32wlxx_ll_exti.h ****   *         @arg @ref LL_EXTI_LINE_10
 900:external/drivers/stm32wlxx/include/stm32wlxx_ll_exti.h ****   *         @arg @ref LL_EXTI_LINE_11
 901:external/drivers/stm32wlxx/include/stm32wlxx_ll_exti.h ****   *         @arg @ref LL_EXTI_LINE_12
 902:external/drivers/stm32wlxx/include/stm32wlxx_ll_exti.h ****   *         @arg @ref LL_EXTI_LINE_13
 903:external/drivers/stm32wlxx/include/stm32wlxx_ll_exti.h ****   *         @arg @ref LL_EXTI_LINE_14
 904:external/drivers/stm32wlxx/include/stm32wlxx_ll_exti.h ****   *         @arg @ref LL_EXTI_LINE_15
 905:external/drivers/stm32wlxx/include/stm32wlxx_ll_exti.h ****   *         @arg @ref LL_EXTI_LINE_17
 906:external/drivers/stm32wlxx/include/stm32wlxx_ll_exti.h ****   *         @arg @ref LL_EXTI_LINE_19
 907:external/drivers/stm32wlxx/include/stm32wlxx_ll_exti.h ****   *         @arg @ref LL_EXTI_LINE_20
 908:external/drivers/stm32wlxx/include/stm32wlxx_ll_exti.h ****   *         @arg @ref LL_EXTI_LINE_21
 909:external/drivers/stm32wlxx/include/stm32wlxx_ll_exti.h ****   *         @arg @ref LL_EXTI_LINE_22
 910:external/drivers/stm32wlxx/include/stm32wlxx_ll_exti.h ****   * @retval State of bit (1 or 0).
 911:external/drivers/stm32wlxx/include/stm32wlxx_ll_exti.h ****   */
 912:external/drivers/stm32wlxx/include/stm32wlxx_ll_exti.h **** __STATIC_INLINE uint32_t LL_C2_EXTI_IsEnabledEvent_0_31(uint32_t ExtiLine)
 913:external/drivers/stm32wlxx/include/stm32wlxx_ll_exti.h **** {
 914:external/drivers/stm32wlxx/include/stm32wlxx_ll_exti.h ****   return ((READ_BIT(EXTI->C2EMR1, ExtiLine) == (ExtiLine)) ? 1UL : 0UL);
 915:external/drivers/stm32wlxx/include/stm32wlxx_ll_exti.h **** }
 916:external/drivers/stm32wlxx/include/stm32wlxx_ll_exti.h **** #endif /* DUAL_CORE */
 917:external/drivers/stm32wlxx/include/stm32wlxx_ll_exti.h **** 
 918:external/drivers/stm32wlxx/include/stm32wlxx_ll_exti.h **** /**
 919:external/drivers/stm32wlxx/include/stm32wlxx_ll_exti.h ****   * @brief  Indicate if ExtiLine Event request is enabled for Lines in range 32 to 63
 920:external/drivers/stm32wlxx/include/stm32wlxx_ll_exti.h ****   * @rmtoll EMR2         EMx           LL_EXTI_IsEnabledEvent_32_63
 921:external/drivers/stm32wlxx/include/stm32wlxx_ll_exti.h ****   * @param  ExtiLine This parameter can be a combination of the following values:
 922:external/drivers/stm32wlxx/include/stm32wlxx_ll_exti.h ****   *         @arg @ref LL_EXTI_LINE_40 (*)
 923:external/drivers/stm32wlxx/include/stm32wlxx_ll_exti.h ****   *         @arg @ref LL_EXTI_LINE_41 (*)
 924:external/drivers/stm32wlxx/include/stm32wlxx_ll_exti.h ****   *         (*) value not defined in all devices
 925:external/drivers/stm32wlxx/include/stm32wlxx_ll_exti.h ****   * @retval State of bit (1 or 0).
 926:external/drivers/stm32wlxx/include/stm32wlxx_ll_exti.h ****   */
 927:external/drivers/stm32wlxx/include/stm32wlxx_ll_exti.h **** __STATIC_INLINE uint32_t LL_EXTI_IsEnabledEvent_32_63(uint32_t ExtiLine)
 928:external/drivers/stm32wlxx/include/stm32wlxx_ll_exti.h **** {
 929:external/drivers/stm32wlxx/include/stm32wlxx_ll_exti.h ****   return ((READ_BIT(EXTI->EMR2, ExtiLine) == (ExtiLine)) ? 1UL : 0UL);
 930:external/drivers/stm32wlxx/include/stm32wlxx_ll_exti.h **** }
 931:external/drivers/stm32wlxx/include/stm32wlxx_ll_exti.h **** 
 932:external/drivers/stm32wlxx/include/stm32wlxx_ll_exti.h **** #if defined(DUAL_CORE)
 933:external/drivers/stm32wlxx/include/stm32wlxx_ll_exti.h **** /**
 934:external/drivers/stm32wlxx/include/stm32wlxx_ll_exti.h ****   * @brief  Indicate if ExtiLine Event request is enabled for Lines in range 32 to 63 for cpu2
 935:external/drivers/stm32wlxx/include/stm32wlxx_ll_exti.h ****   * @rmtoll EMR2         EMx           LL_C2_EXTI_IsEnabledEvent_32_63
 936:external/drivers/stm32wlxx/include/stm32wlxx_ll_exti.h ****   * @param  ExtiLine This parameter can be a combination of the following values:
 937:external/drivers/stm32wlxx/include/stm32wlxx_ll_exti.h ****   *         @arg @ref LL_EXTI_LINE_40 (*)
 938:external/drivers/stm32wlxx/include/stm32wlxx_ll_exti.h ****   *         @arg @ref LL_EXTI_LINE_41 (*)
 939:external/drivers/stm32wlxx/include/stm32wlxx_ll_exti.h ****   *         (*) value not defined in all devices
 940:external/drivers/stm32wlxx/include/stm32wlxx_ll_exti.h ****   * @retval State of bit (1 or 0).
 941:external/drivers/stm32wlxx/include/stm32wlxx_ll_exti.h ****   */
 942:external/drivers/stm32wlxx/include/stm32wlxx_ll_exti.h **** __STATIC_INLINE uint32_t LL_C2_EXTI_IsEnabledEvent_32_63(uint32_t ExtiLine)
 943:external/drivers/stm32wlxx/include/stm32wlxx_ll_exti.h **** {
 944:external/drivers/stm32wlxx/include/stm32wlxx_ll_exti.h ****   return ((READ_BIT(EXTI->C2EMR2, ExtiLine) == (ExtiLine)) ? 1UL : 0UL);
 945:external/drivers/stm32wlxx/include/stm32wlxx_ll_exti.h **** }
 946:external/drivers/stm32wlxx/include/stm32wlxx_ll_exti.h **** #endif /* DUAL_CORE */
 947:external/drivers/stm32wlxx/include/stm32wlxx_ll_exti.h **** 
 948:external/drivers/stm32wlxx/include/stm32wlxx_ll_exti.h **** /**
 949:external/drivers/stm32wlxx/include/stm32wlxx_ll_exti.h ****   * @}
 950:external/drivers/stm32wlxx/include/stm32wlxx_ll_exti.h ****   */
 951:external/drivers/stm32wlxx/include/stm32wlxx_ll_exti.h **** 
 952:external/drivers/stm32wlxx/include/stm32wlxx_ll_exti.h **** /** @defgroup EXTI_LL_EF_Rising_Trigger_Management Rising_Trigger_Management
ARM GAS  /tmp/ccWP2owg.s 			page 27


 953:external/drivers/stm32wlxx/include/stm32wlxx_ll_exti.h ****   * @{
 954:external/drivers/stm32wlxx/include/stm32wlxx_ll_exti.h ****   */
 955:external/drivers/stm32wlxx/include/stm32wlxx_ll_exti.h **** 
 956:external/drivers/stm32wlxx/include/stm32wlxx_ll_exti.h **** /**
 957:external/drivers/stm32wlxx/include/stm32wlxx_ll_exti.h ****   * @brief  Enable ExtiLine Rising Edge Trigger for Lines in range 0 to 31
 958:external/drivers/stm32wlxx/include/stm32wlxx_ll_exti.h ****   * @note   The configurable wakeup lines are edge-triggered. No glitch must be
 959:external/drivers/stm32wlxx/include/stm32wlxx_ll_exti.h ****   *         generated on these lines. If a rising edge on a configurable interrupt
 960:external/drivers/stm32wlxx/include/stm32wlxx_ll_exti.h ****   *         line occurs during a write operation in the EXTI_RTSR register, the
 961:external/drivers/stm32wlxx/include/stm32wlxx_ll_exti.h ****   *         pending bit is not set.
 962:external/drivers/stm32wlxx/include/stm32wlxx_ll_exti.h ****   *         Rising and falling edge triggers can be set for
 963:external/drivers/stm32wlxx/include/stm32wlxx_ll_exti.h ****   *         the same interrupt line. In this case, both generate a trigger
 964:external/drivers/stm32wlxx/include/stm32wlxx_ll_exti.h ****   *         condition.
 965:external/drivers/stm32wlxx/include/stm32wlxx_ll_exti.h ****   * @rmtoll RTSR1        RTx           LL_EXTI_EnableRisingTrig_0_31
 966:external/drivers/stm32wlxx/include/stm32wlxx_ll_exti.h ****   * @param  ExtiLine This parameter can be a combination of the following values:
 967:external/drivers/stm32wlxx/include/stm32wlxx_ll_exti.h ****   *         @arg @ref LL_EXTI_LINE_0
 968:external/drivers/stm32wlxx/include/stm32wlxx_ll_exti.h ****   *         @arg @ref LL_EXTI_LINE_1
 969:external/drivers/stm32wlxx/include/stm32wlxx_ll_exti.h ****   *         @arg @ref LL_EXTI_LINE_2
 970:external/drivers/stm32wlxx/include/stm32wlxx_ll_exti.h ****   *         @arg @ref LL_EXTI_LINE_3
 971:external/drivers/stm32wlxx/include/stm32wlxx_ll_exti.h ****   *         @arg @ref LL_EXTI_LINE_4
 972:external/drivers/stm32wlxx/include/stm32wlxx_ll_exti.h ****   *         @arg @ref LL_EXTI_LINE_5
 973:external/drivers/stm32wlxx/include/stm32wlxx_ll_exti.h ****   *         @arg @ref LL_EXTI_LINE_6
 974:external/drivers/stm32wlxx/include/stm32wlxx_ll_exti.h ****   *         @arg @ref LL_EXTI_LINE_7
 975:external/drivers/stm32wlxx/include/stm32wlxx_ll_exti.h ****   *         @arg @ref LL_EXTI_LINE_8
 976:external/drivers/stm32wlxx/include/stm32wlxx_ll_exti.h ****   *         @arg @ref LL_EXTI_LINE_9
 977:external/drivers/stm32wlxx/include/stm32wlxx_ll_exti.h ****   *         @arg @ref LL_EXTI_LINE_10
 978:external/drivers/stm32wlxx/include/stm32wlxx_ll_exti.h ****   *         @arg @ref LL_EXTI_LINE_11
 979:external/drivers/stm32wlxx/include/stm32wlxx_ll_exti.h ****   *         @arg @ref LL_EXTI_LINE_12
 980:external/drivers/stm32wlxx/include/stm32wlxx_ll_exti.h ****   *         @arg @ref LL_EXTI_LINE_13
 981:external/drivers/stm32wlxx/include/stm32wlxx_ll_exti.h ****   *         @arg @ref LL_EXTI_LINE_14
 982:external/drivers/stm32wlxx/include/stm32wlxx_ll_exti.h ****   *         @arg @ref LL_EXTI_LINE_15
 983:external/drivers/stm32wlxx/include/stm32wlxx_ll_exti.h ****   *         @arg @ref LL_EXTI_LINE_16
 984:external/drivers/stm32wlxx/include/stm32wlxx_ll_exti.h ****   *         @arg @ref LL_EXTI_LINE_17
 985:external/drivers/stm32wlxx/include/stm32wlxx_ll_exti.h ****   *         @arg @ref LL_EXTI_LINE_21
 986:external/drivers/stm32wlxx/include/stm32wlxx_ll_exti.h ****   *         @arg @ref LL_EXTI_LINE_22
 987:external/drivers/stm32wlxx/include/stm32wlxx_ll_exti.h ****   * @retval None
 988:external/drivers/stm32wlxx/include/stm32wlxx_ll_exti.h ****   */
 989:external/drivers/stm32wlxx/include/stm32wlxx_ll_exti.h **** __STATIC_INLINE void LL_EXTI_EnableRisingTrig_0_31(uint32_t ExtiLine)
 990:external/drivers/stm32wlxx/include/stm32wlxx_ll_exti.h **** {
 991:external/drivers/stm32wlxx/include/stm32wlxx_ll_exti.h ****   SET_BIT(EXTI->RTSR1, ExtiLine);
 992:external/drivers/stm32wlxx/include/stm32wlxx_ll_exti.h **** 
 993:external/drivers/stm32wlxx/include/stm32wlxx_ll_exti.h **** }
 994:external/drivers/stm32wlxx/include/stm32wlxx_ll_exti.h **** 
 995:external/drivers/stm32wlxx/include/stm32wlxx_ll_exti.h **** /**
 996:external/drivers/stm32wlxx/include/stm32wlxx_ll_exti.h ****   * @brief  Enable ExtiLine Rising Edge Trigger for Lines in range 32 to 63
 997:external/drivers/stm32wlxx/include/stm32wlxx_ll_exti.h ****   * @note The configurable wakeup lines are edge-triggered. No glitch must be
 998:external/drivers/stm32wlxx/include/stm32wlxx_ll_exti.h ****   *       generated on these lines. If a rising edge on a configurable interrupt
 999:external/drivers/stm32wlxx/include/stm32wlxx_ll_exti.h ****   *       line occurs during a write operation in the EXTI_RTSR register, the
1000:external/drivers/stm32wlxx/include/stm32wlxx_ll_exti.h ****   *       pending bit is not set.Rising and falling edge triggers can be set for
1001:external/drivers/stm32wlxx/include/stm32wlxx_ll_exti.h ****   *       the same interrupt line. In this case, both generate a trigger
1002:external/drivers/stm32wlxx/include/stm32wlxx_ll_exti.h ****   *       condition.
1003:external/drivers/stm32wlxx/include/stm32wlxx_ll_exti.h ****   * @rmtoll RTSR2        RTx           LL_EXTI_EnableRisingTrig_32_63
1004:external/drivers/stm32wlxx/include/stm32wlxx_ll_exti.h ****   * @param  ExtiLine This parameter can be a combination of the following values:
1005:external/drivers/stm32wlxx/include/stm32wlxx_ll_exti.h ****   *         @arg @ref LL_EXTI_LINE_34
1006:external/drivers/stm32wlxx/include/stm32wlxx_ll_exti.h ****   *         @arg @ref LL_EXTI_LINE_40
1007:external/drivers/stm32wlxx/include/stm32wlxx_ll_exti.h ****   *         @arg @ref LL_EXTI_LINE_41
1008:external/drivers/stm32wlxx/include/stm32wlxx_ll_exti.h ****   *         @arg @ref LL_EXTI_LINE_45
1009:external/drivers/stm32wlxx/include/stm32wlxx_ll_exti.h ****   * @retval None
ARM GAS  /tmp/ccWP2owg.s 			page 28


1010:external/drivers/stm32wlxx/include/stm32wlxx_ll_exti.h ****   */
1011:external/drivers/stm32wlxx/include/stm32wlxx_ll_exti.h **** __STATIC_INLINE void LL_EXTI_EnableRisingTrig_32_63(uint32_t ExtiLine)
1012:external/drivers/stm32wlxx/include/stm32wlxx_ll_exti.h **** {
1013:external/drivers/stm32wlxx/include/stm32wlxx_ll_exti.h ****   SET_BIT(EXTI->RTSR2, ExtiLine);
1014:external/drivers/stm32wlxx/include/stm32wlxx_ll_exti.h **** }
1015:external/drivers/stm32wlxx/include/stm32wlxx_ll_exti.h **** 
1016:external/drivers/stm32wlxx/include/stm32wlxx_ll_exti.h **** /**
1017:external/drivers/stm32wlxx/include/stm32wlxx_ll_exti.h ****   * @brief  Disable ExtiLine Rising Edge Trigger for Lines in range 0 to 31
1018:external/drivers/stm32wlxx/include/stm32wlxx_ll_exti.h ****   * @note The configurable wakeup lines are edge-triggered. No glitch must be
1019:external/drivers/stm32wlxx/include/stm32wlxx_ll_exti.h ****   *       generated on these lines. If a rising edge on a configurable interrupt
1020:external/drivers/stm32wlxx/include/stm32wlxx_ll_exti.h ****   *       line occurs during a write operation in the EXTI_RTSR register, the
1021:external/drivers/stm32wlxx/include/stm32wlxx_ll_exti.h ****   *       pending bit is not set.
1022:external/drivers/stm32wlxx/include/stm32wlxx_ll_exti.h ****   *       Rising and falling edge triggers can be set for
1023:external/drivers/stm32wlxx/include/stm32wlxx_ll_exti.h ****   *       the same interrupt line. In this case, both generate a trigger
1024:external/drivers/stm32wlxx/include/stm32wlxx_ll_exti.h ****   *       condition.
1025:external/drivers/stm32wlxx/include/stm32wlxx_ll_exti.h ****   * @rmtoll RTSR1        RTx           LL_EXTI_DisableRisingTrig_0_31
1026:external/drivers/stm32wlxx/include/stm32wlxx_ll_exti.h ****   * @param  ExtiLine This parameter can be a combination of the following values:
1027:external/drivers/stm32wlxx/include/stm32wlxx_ll_exti.h ****   *         @arg @ref LL_EXTI_LINE_0
1028:external/drivers/stm32wlxx/include/stm32wlxx_ll_exti.h ****   *         @arg @ref LL_EXTI_LINE_1
1029:external/drivers/stm32wlxx/include/stm32wlxx_ll_exti.h ****   *         @arg @ref LL_EXTI_LINE_2
1030:external/drivers/stm32wlxx/include/stm32wlxx_ll_exti.h ****   *         @arg @ref LL_EXTI_LINE_3
1031:external/drivers/stm32wlxx/include/stm32wlxx_ll_exti.h ****   *         @arg @ref LL_EXTI_LINE_4
1032:external/drivers/stm32wlxx/include/stm32wlxx_ll_exti.h ****   *         @arg @ref LL_EXTI_LINE_5
1033:external/drivers/stm32wlxx/include/stm32wlxx_ll_exti.h ****   *         @arg @ref LL_EXTI_LINE_6
1034:external/drivers/stm32wlxx/include/stm32wlxx_ll_exti.h ****   *         @arg @ref LL_EXTI_LINE_7
1035:external/drivers/stm32wlxx/include/stm32wlxx_ll_exti.h ****   *         @arg @ref LL_EXTI_LINE_8
1036:external/drivers/stm32wlxx/include/stm32wlxx_ll_exti.h ****   *         @arg @ref LL_EXTI_LINE_9
1037:external/drivers/stm32wlxx/include/stm32wlxx_ll_exti.h ****   *         @arg @ref LL_EXTI_LINE_10
1038:external/drivers/stm32wlxx/include/stm32wlxx_ll_exti.h ****   *         @arg @ref LL_EXTI_LINE_11
1039:external/drivers/stm32wlxx/include/stm32wlxx_ll_exti.h ****   *         @arg @ref LL_EXTI_LINE_12
1040:external/drivers/stm32wlxx/include/stm32wlxx_ll_exti.h ****   *         @arg @ref LL_EXTI_LINE_13
1041:external/drivers/stm32wlxx/include/stm32wlxx_ll_exti.h ****   *         @arg @ref LL_EXTI_LINE_14
1042:external/drivers/stm32wlxx/include/stm32wlxx_ll_exti.h ****   *         @arg @ref LL_EXTI_LINE_15
1043:external/drivers/stm32wlxx/include/stm32wlxx_ll_exti.h ****   *         @arg @ref LL_EXTI_LINE_16
1044:external/drivers/stm32wlxx/include/stm32wlxx_ll_exti.h ****   *         @arg @ref LL_EXTI_LINE_17
1045:external/drivers/stm32wlxx/include/stm32wlxx_ll_exti.h ****   *         @arg @ref LL_EXTI_LINE_21
1046:external/drivers/stm32wlxx/include/stm32wlxx_ll_exti.h ****   *         @arg @ref LL_EXTI_LINE_22
1047:external/drivers/stm32wlxx/include/stm32wlxx_ll_exti.h ****   * @retval None
1048:external/drivers/stm32wlxx/include/stm32wlxx_ll_exti.h ****   */
1049:external/drivers/stm32wlxx/include/stm32wlxx_ll_exti.h **** __STATIC_INLINE void LL_EXTI_DisableRisingTrig_0_31(uint32_t ExtiLine)
1050:external/drivers/stm32wlxx/include/stm32wlxx_ll_exti.h **** {
1051:external/drivers/stm32wlxx/include/stm32wlxx_ll_exti.h ****   CLEAR_BIT(EXTI->RTSR1, ExtiLine);
1052:external/drivers/stm32wlxx/include/stm32wlxx_ll_exti.h **** 
1053:external/drivers/stm32wlxx/include/stm32wlxx_ll_exti.h **** }
1054:external/drivers/stm32wlxx/include/stm32wlxx_ll_exti.h **** 
1055:external/drivers/stm32wlxx/include/stm32wlxx_ll_exti.h **** /**
1056:external/drivers/stm32wlxx/include/stm32wlxx_ll_exti.h ****   * @brief  Disable ExtiLine Rising Edge Trigger for Lines in range 32 to 63
1057:external/drivers/stm32wlxx/include/stm32wlxx_ll_exti.h ****   * @note The configurable wakeup lines are edge-triggered. No glitch must be
1058:external/drivers/stm32wlxx/include/stm32wlxx_ll_exti.h ****   *       generated on these lines. If a rising edge on a configurable interrupt
1059:external/drivers/stm32wlxx/include/stm32wlxx_ll_exti.h ****   *       line occurs during a write operation in the EXTI_RTSR register, the
1060:external/drivers/stm32wlxx/include/stm32wlxx_ll_exti.h ****   *       pending bit is not set.
1061:external/drivers/stm32wlxx/include/stm32wlxx_ll_exti.h ****   *       Rising and falling edge triggers can be set for
1062:external/drivers/stm32wlxx/include/stm32wlxx_ll_exti.h ****   *       the same interrupt line. In this case, both generate a trigger
1063:external/drivers/stm32wlxx/include/stm32wlxx_ll_exti.h ****   *       condition.
1064:external/drivers/stm32wlxx/include/stm32wlxx_ll_exti.h ****   * @rmtoll RTSR2        RTx           LL_EXTI_DisableRisingTrig_32_63
1065:external/drivers/stm32wlxx/include/stm32wlxx_ll_exti.h ****   * @param  ExtiLine This parameter can be a combination of the following values:
1066:external/drivers/stm32wlxx/include/stm32wlxx_ll_exti.h ****   *         @arg @ref LL_EXTI_LINE_34
ARM GAS  /tmp/ccWP2owg.s 			page 29


1067:external/drivers/stm32wlxx/include/stm32wlxx_ll_exti.h ****   *         @arg @ref LL_EXTI_LINE_40
1068:external/drivers/stm32wlxx/include/stm32wlxx_ll_exti.h ****   *         @arg @ref LL_EXTI_LINE_41
1069:external/drivers/stm32wlxx/include/stm32wlxx_ll_exti.h ****   *         @arg @ref LL_EXTI_LINE_45
1070:external/drivers/stm32wlxx/include/stm32wlxx_ll_exti.h ****   * @retval None
1071:external/drivers/stm32wlxx/include/stm32wlxx_ll_exti.h ****   */
1072:external/drivers/stm32wlxx/include/stm32wlxx_ll_exti.h **** __STATIC_INLINE void LL_EXTI_DisableRisingTrig_32_63(uint32_t ExtiLine)
1073:external/drivers/stm32wlxx/include/stm32wlxx_ll_exti.h **** {
1074:external/drivers/stm32wlxx/include/stm32wlxx_ll_exti.h ****   CLEAR_BIT(EXTI->RTSR2, ExtiLine);
1075:external/drivers/stm32wlxx/include/stm32wlxx_ll_exti.h **** }
1076:external/drivers/stm32wlxx/include/stm32wlxx_ll_exti.h **** 
1077:external/drivers/stm32wlxx/include/stm32wlxx_ll_exti.h **** /**
1078:external/drivers/stm32wlxx/include/stm32wlxx_ll_exti.h ****   * @brief  Check if rising edge trigger is enabled for Lines in range 0 to 31
1079:external/drivers/stm32wlxx/include/stm32wlxx_ll_exti.h ****   * @rmtoll RTSR1        RTx           LL_EXTI_IsEnabledRisingTrig_0_31
1080:external/drivers/stm32wlxx/include/stm32wlxx_ll_exti.h ****   * @param  ExtiLine This parameter can be a combination of the following values:
1081:external/drivers/stm32wlxx/include/stm32wlxx_ll_exti.h ****   *         @arg @ref LL_EXTI_LINE_0
1082:external/drivers/stm32wlxx/include/stm32wlxx_ll_exti.h ****   *         @arg @ref LL_EXTI_LINE_1
1083:external/drivers/stm32wlxx/include/stm32wlxx_ll_exti.h ****   *         @arg @ref LL_EXTI_LINE_2
1084:external/drivers/stm32wlxx/include/stm32wlxx_ll_exti.h ****   *         @arg @ref LL_EXTI_LINE_3
1085:external/drivers/stm32wlxx/include/stm32wlxx_ll_exti.h ****   *         @arg @ref LL_EXTI_LINE_4
1086:external/drivers/stm32wlxx/include/stm32wlxx_ll_exti.h ****   *         @arg @ref LL_EXTI_LINE_5
1087:external/drivers/stm32wlxx/include/stm32wlxx_ll_exti.h ****   *         @arg @ref LL_EXTI_LINE_6
1088:external/drivers/stm32wlxx/include/stm32wlxx_ll_exti.h ****   *         @arg @ref LL_EXTI_LINE_7
1089:external/drivers/stm32wlxx/include/stm32wlxx_ll_exti.h ****   *         @arg @ref LL_EXTI_LINE_8
1090:external/drivers/stm32wlxx/include/stm32wlxx_ll_exti.h ****   *         @arg @ref LL_EXTI_LINE_9
1091:external/drivers/stm32wlxx/include/stm32wlxx_ll_exti.h ****   *         @arg @ref LL_EXTI_LINE_10
1092:external/drivers/stm32wlxx/include/stm32wlxx_ll_exti.h ****   *         @arg @ref LL_EXTI_LINE_11
1093:external/drivers/stm32wlxx/include/stm32wlxx_ll_exti.h ****   *         @arg @ref LL_EXTI_LINE_12
1094:external/drivers/stm32wlxx/include/stm32wlxx_ll_exti.h ****   *         @arg @ref LL_EXTI_LINE_13
1095:external/drivers/stm32wlxx/include/stm32wlxx_ll_exti.h ****   *         @arg @ref LL_EXTI_LINE_14
1096:external/drivers/stm32wlxx/include/stm32wlxx_ll_exti.h ****   *         @arg @ref LL_EXTI_LINE_15
1097:external/drivers/stm32wlxx/include/stm32wlxx_ll_exti.h ****   *         @arg @ref LL_EXTI_LINE_16
1098:external/drivers/stm32wlxx/include/stm32wlxx_ll_exti.h ****   *         @arg @ref LL_EXTI_LINE_17
1099:external/drivers/stm32wlxx/include/stm32wlxx_ll_exti.h ****   *         @arg @ref LL_EXTI_LINE_21
1100:external/drivers/stm32wlxx/include/stm32wlxx_ll_exti.h ****   *         @arg @ref LL_EXTI_LINE_22
1101:external/drivers/stm32wlxx/include/stm32wlxx_ll_exti.h ****   * @retval State of bit (1 or 0).
1102:external/drivers/stm32wlxx/include/stm32wlxx_ll_exti.h ****   */
1103:external/drivers/stm32wlxx/include/stm32wlxx_ll_exti.h **** __STATIC_INLINE uint32_t LL_EXTI_IsEnabledRisingTrig_0_31(uint32_t ExtiLine)
1104:external/drivers/stm32wlxx/include/stm32wlxx_ll_exti.h **** {
1105:external/drivers/stm32wlxx/include/stm32wlxx_ll_exti.h ****   return ((READ_BIT(EXTI->RTSR1, ExtiLine) == (ExtiLine)) ? 1UL : 0UL);
1106:external/drivers/stm32wlxx/include/stm32wlxx_ll_exti.h **** }
1107:external/drivers/stm32wlxx/include/stm32wlxx_ll_exti.h **** 
1108:external/drivers/stm32wlxx/include/stm32wlxx_ll_exti.h **** /**
1109:external/drivers/stm32wlxx/include/stm32wlxx_ll_exti.h ****   * @brief  Check if rising edge trigger is enabled for Lines in range 32 to 63
1110:external/drivers/stm32wlxx/include/stm32wlxx_ll_exti.h ****   * @rmtoll RTSR2        RTx           LL_EXTI_IsEnabledRisingTrig_32_63
1111:external/drivers/stm32wlxx/include/stm32wlxx_ll_exti.h ****   * @param  ExtiLine This parameter can be a combination of the following values:
1112:external/drivers/stm32wlxx/include/stm32wlxx_ll_exti.h ****   *         @arg @ref LL_EXTI_LINE_34
1113:external/drivers/stm32wlxx/include/stm32wlxx_ll_exti.h ****   *         @arg @ref LL_EXTI_LINE_40
1114:external/drivers/stm32wlxx/include/stm32wlxx_ll_exti.h ****   *         @arg @ref LL_EXTI_LINE_41
1115:external/drivers/stm32wlxx/include/stm32wlxx_ll_exti.h ****   *         @arg @ref LL_EXTI_LINE_45
1116:external/drivers/stm32wlxx/include/stm32wlxx_ll_exti.h ****   * @retval State of bit (1 or 0).
1117:external/drivers/stm32wlxx/include/stm32wlxx_ll_exti.h ****   */
1118:external/drivers/stm32wlxx/include/stm32wlxx_ll_exti.h **** __STATIC_INLINE uint32_t LL_EXTI_IsEnabledRisingTrig_32_63(uint32_t ExtiLine)
1119:external/drivers/stm32wlxx/include/stm32wlxx_ll_exti.h **** {
1120:external/drivers/stm32wlxx/include/stm32wlxx_ll_exti.h ****   return ((READ_BIT(EXTI->RTSR2, ExtiLine) == (ExtiLine)) ? 1UL : 0UL);
1121:external/drivers/stm32wlxx/include/stm32wlxx_ll_exti.h **** }
1122:external/drivers/stm32wlxx/include/stm32wlxx_ll_exti.h **** 
1123:external/drivers/stm32wlxx/include/stm32wlxx_ll_exti.h **** /**
ARM GAS  /tmp/ccWP2owg.s 			page 30


1124:external/drivers/stm32wlxx/include/stm32wlxx_ll_exti.h ****   * @}
1125:external/drivers/stm32wlxx/include/stm32wlxx_ll_exti.h ****   */
1126:external/drivers/stm32wlxx/include/stm32wlxx_ll_exti.h **** 
1127:external/drivers/stm32wlxx/include/stm32wlxx_ll_exti.h **** /** @defgroup EXTI_LL_EF_Falling_Trigger_Management Falling_Trigger_Management
1128:external/drivers/stm32wlxx/include/stm32wlxx_ll_exti.h ****   * @{
1129:external/drivers/stm32wlxx/include/stm32wlxx_ll_exti.h ****   */
1130:external/drivers/stm32wlxx/include/stm32wlxx_ll_exti.h **** 
1131:external/drivers/stm32wlxx/include/stm32wlxx_ll_exti.h **** /**
1132:external/drivers/stm32wlxx/include/stm32wlxx_ll_exti.h ****   * @brief  Enable ExtiLine Falling Edge Trigger for Lines in range 0 to 31
1133:external/drivers/stm32wlxx/include/stm32wlxx_ll_exti.h ****   * @note The configurable wakeup lines are edge-triggered. No glitch must be
1134:external/drivers/stm32wlxx/include/stm32wlxx_ll_exti.h ****   *       generated on these lines. If a falling edge on a configurable interrupt
1135:external/drivers/stm32wlxx/include/stm32wlxx_ll_exti.h ****   *       line occurs during a write operation in the EXTI_FTSR register, the
1136:external/drivers/stm32wlxx/include/stm32wlxx_ll_exti.h ****   *       pending bit is not set.
1137:external/drivers/stm32wlxx/include/stm32wlxx_ll_exti.h ****   *       Rising and falling edge triggers can be set for
1138:external/drivers/stm32wlxx/include/stm32wlxx_ll_exti.h ****   *       the same interrupt line. In this case, both generate a trigger
1139:external/drivers/stm32wlxx/include/stm32wlxx_ll_exti.h ****   *       condition.
1140:external/drivers/stm32wlxx/include/stm32wlxx_ll_exti.h ****   * @rmtoll FTSR1        FTx           LL_EXTI_EnableFallingTrig_0_31
1141:external/drivers/stm32wlxx/include/stm32wlxx_ll_exti.h ****   * @param  ExtiLine This parameter can be a combination of the following values:
1142:external/drivers/stm32wlxx/include/stm32wlxx_ll_exti.h ****   *         @arg @ref LL_EXTI_LINE_0
1143:external/drivers/stm32wlxx/include/stm32wlxx_ll_exti.h ****   *         @arg @ref LL_EXTI_LINE_1
1144:external/drivers/stm32wlxx/include/stm32wlxx_ll_exti.h ****   *         @arg @ref LL_EXTI_LINE_2
1145:external/drivers/stm32wlxx/include/stm32wlxx_ll_exti.h ****   *         @arg @ref LL_EXTI_LINE_3
1146:external/drivers/stm32wlxx/include/stm32wlxx_ll_exti.h ****   *         @arg @ref LL_EXTI_LINE_4
1147:external/drivers/stm32wlxx/include/stm32wlxx_ll_exti.h ****   *         @arg @ref LL_EXTI_LINE_5
1148:external/drivers/stm32wlxx/include/stm32wlxx_ll_exti.h ****   *         @arg @ref LL_EXTI_LINE_6
1149:external/drivers/stm32wlxx/include/stm32wlxx_ll_exti.h ****   *         @arg @ref LL_EXTI_LINE_7
1150:external/drivers/stm32wlxx/include/stm32wlxx_ll_exti.h ****   *         @arg @ref LL_EXTI_LINE_8
1151:external/drivers/stm32wlxx/include/stm32wlxx_ll_exti.h ****   *         @arg @ref LL_EXTI_LINE_9
1152:external/drivers/stm32wlxx/include/stm32wlxx_ll_exti.h ****   *         @arg @ref LL_EXTI_LINE_10
1153:external/drivers/stm32wlxx/include/stm32wlxx_ll_exti.h ****   *         @arg @ref LL_EXTI_LINE_11
1154:external/drivers/stm32wlxx/include/stm32wlxx_ll_exti.h ****   *         @arg @ref LL_EXTI_LINE_12
1155:external/drivers/stm32wlxx/include/stm32wlxx_ll_exti.h ****   *         @arg @ref LL_EXTI_LINE_13
1156:external/drivers/stm32wlxx/include/stm32wlxx_ll_exti.h ****   *         @arg @ref LL_EXTI_LINE_14
1157:external/drivers/stm32wlxx/include/stm32wlxx_ll_exti.h ****   *         @arg @ref LL_EXTI_LINE_15
1158:external/drivers/stm32wlxx/include/stm32wlxx_ll_exti.h ****   *         @arg @ref LL_EXTI_LINE_16
1159:external/drivers/stm32wlxx/include/stm32wlxx_ll_exti.h ****   *         @arg @ref LL_EXTI_LINE_17
1160:external/drivers/stm32wlxx/include/stm32wlxx_ll_exti.h ****   *         @arg @ref LL_EXTI_LINE_21
1161:external/drivers/stm32wlxx/include/stm32wlxx_ll_exti.h ****   *         @arg @ref LL_EXTI_LINE_22
1162:external/drivers/stm32wlxx/include/stm32wlxx_ll_exti.h ****   * @retval None
1163:external/drivers/stm32wlxx/include/stm32wlxx_ll_exti.h ****   */
1164:external/drivers/stm32wlxx/include/stm32wlxx_ll_exti.h **** __STATIC_INLINE void LL_EXTI_EnableFallingTrig_0_31(uint32_t ExtiLine)
1165:external/drivers/stm32wlxx/include/stm32wlxx_ll_exti.h **** {
1166:external/drivers/stm32wlxx/include/stm32wlxx_ll_exti.h ****   SET_BIT(EXTI->FTSR1, ExtiLine);
1167:external/drivers/stm32wlxx/include/stm32wlxx_ll_exti.h **** }
1168:external/drivers/stm32wlxx/include/stm32wlxx_ll_exti.h **** 
1169:external/drivers/stm32wlxx/include/stm32wlxx_ll_exti.h **** /**
1170:external/drivers/stm32wlxx/include/stm32wlxx_ll_exti.h ****   * @brief  Enable ExtiLine Falling Edge Trigger for Lines in range 32 to 63
1171:external/drivers/stm32wlxx/include/stm32wlxx_ll_exti.h ****   * @note The configurable wakeup lines are edge-triggered. No glitch must be
1172:external/drivers/stm32wlxx/include/stm32wlxx_ll_exti.h ****   *       generated on these lines. If a Falling edge on a configurable interrupt
1173:external/drivers/stm32wlxx/include/stm32wlxx_ll_exti.h ****   *       line occurs during a write operation in the EXTI_FTSR register, the
1174:external/drivers/stm32wlxx/include/stm32wlxx_ll_exti.h ****   *       pending bit is not set.
1175:external/drivers/stm32wlxx/include/stm32wlxx_ll_exti.h ****   *       Rising and falling edge triggers can be set for
1176:external/drivers/stm32wlxx/include/stm32wlxx_ll_exti.h ****   *       the same interrupt line. In this case, both generate a trigger
1177:external/drivers/stm32wlxx/include/stm32wlxx_ll_exti.h ****   *       condition.
1178:external/drivers/stm32wlxx/include/stm32wlxx_ll_exti.h ****   * @rmtoll FTSR2        FTx           LL_EXTI_EnableFallingTrig_32_63
1179:external/drivers/stm32wlxx/include/stm32wlxx_ll_exti.h ****   * @param  ExtiLine This parameter can be a combination of the following values:
1180:external/drivers/stm32wlxx/include/stm32wlxx_ll_exti.h ****   *         @arg @ref LL_EXTI_LINE_34
ARM GAS  /tmp/ccWP2owg.s 			page 31


1181:external/drivers/stm32wlxx/include/stm32wlxx_ll_exti.h ****   *         @arg @ref LL_EXTI_LINE_40
1182:external/drivers/stm32wlxx/include/stm32wlxx_ll_exti.h ****   *         @arg @ref LL_EXTI_LINE_41
1183:external/drivers/stm32wlxx/include/stm32wlxx_ll_exti.h ****   *         @arg @ref LL_EXTI_LINE_45
1184:external/drivers/stm32wlxx/include/stm32wlxx_ll_exti.h ****   * @retval None
1185:external/drivers/stm32wlxx/include/stm32wlxx_ll_exti.h ****   */
1186:external/drivers/stm32wlxx/include/stm32wlxx_ll_exti.h **** __STATIC_INLINE void LL_EXTI_EnableFallingTrig_32_63(uint32_t ExtiLine)
1187:external/drivers/stm32wlxx/include/stm32wlxx_ll_exti.h **** {
1188:external/drivers/stm32wlxx/include/stm32wlxx_ll_exti.h ****   SET_BIT(EXTI->FTSR2, ExtiLine);
1189:external/drivers/stm32wlxx/include/stm32wlxx_ll_exti.h **** }
1190:external/drivers/stm32wlxx/include/stm32wlxx_ll_exti.h **** 
1191:external/drivers/stm32wlxx/include/stm32wlxx_ll_exti.h **** /**
1192:external/drivers/stm32wlxx/include/stm32wlxx_ll_exti.h ****   * @brief  Disable ExtiLine Falling Edge Trigger for Lines in range 0 to 31
1193:external/drivers/stm32wlxx/include/stm32wlxx_ll_exti.h ****   * @note The configurable wakeup lines are edge-triggered. No glitch must be
1194:external/drivers/stm32wlxx/include/stm32wlxx_ll_exti.h ****   *       generated on these lines. If a Falling edge on a configurable interrupt
1195:external/drivers/stm32wlxx/include/stm32wlxx_ll_exti.h ****   *       line occurs during a write operation in the EXTI_FTSR register, the
1196:external/drivers/stm32wlxx/include/stm32wlxx_ll_exti.h ****   *       pending bit is not set.
1197:external/drivers/stm32wlxx/include/stm32wlxx_ll_exti.h ****   *       Rising and falling edge triggers can be set for the same interrupt line.
1198:external/drivers/stm32wlxx/include/stm32wlxx_ll_exti.h ****   *       In this case, both generate a trigger condition.
1199:external/drivers/stm32wlxx/include/stm32wlxx_ll_exti.h ****   * @rmtoll FTSR1        FTx           LL_EXTI_DisableFallingTrig_0_31
1200:external/drivers/stm32wlxx/include/stm32wlxx_ll_exti.h ****   * @param  ExtiLine This parameter can be a combination of the following values:
1201:external/drivers/stm32wlxx/include/stm32wlxx_ll_exti.h ****   *         @arg @ref LL_EXTI_LINE_0
1202:external/drivers/stm32wlxx/include/stm32wlxx_ll_exti.h ****   *         @arg @ref LL_EXTI_LINE_1
1203:external/drivers/stm32wlxx/include/stm32wlxx_ll_exti.h ****   *         @arg @ref LL_EXTI_LINE_2
1204:external/drivers/stm32wlxx/include/stm32wlxx_ll_exti.h ****   *         @arg @ref LL_EXTI_LINE_3
1205:external/drivers/stm32wlxx/include/stm32wlxx_ll_exti.h ****   *         @arg @ref LL_EXTI_LINE_4
1206:external/drivers/stm32wlxx/include/stm32wlxx_ll_exti.h ****   *         @arg @ref LL_EXTI_LINE_5
1207:external/drivers/stm32wlxx/include/stm32wlxx_ll_exti.h ****   *         @arg @ref LL_EXTI_LINE_6
1208:external/drivers/stm32wlxx/include/stm32wlxx_ll_exti.h ****   *         @arg @ref LL_EXTI_LINE_7
1209:external/drivers/stm32wlxx/include/stm32wlxx_ll_exti.h ****   *         @arg @ref LL_EXTI_LINE_8
1210:external/drivers/stm32wlxx/include/stm32wlxx_ll_exti.h ****   *         @arg @ref LL_EXTI_LINE_9
1211:external/drivers/stm32wlxx/include/stm32wlxx_ll_exti.h ****   *         @arg @ref LL_EXTI_LINE_10
1212:external/drivers/stm32wlxx/include/stm32wlxx_ll_exti.h ****   *         @arg @ref LL_EXTI_LINE_11
1213:external/drivers/stm32wlxx/include/stm32wlxx_ll_exti.h ****   *         @arg @ref LL_EXTI_LINE_12
1214:external/drivers/stm32wlxx/include/stm32wlxx_ll_exti.h ****   *         @arg @ref LL_EXTI_LINE_13
1215:external/drivers/stm32wlxx/include/stm32wlxx_ll_exti.h ****   *         @arg @ref LL_EXTI_LINE_14
1216:external/drivers/stm32wlxx/include/stm32wlxx_ll_exti.h ****   *         @arg @ref LL_EXTI_LINE_15
1217:external/drivers/stm32wlxx/include/stm32wlxx_ll_exti.h ****   *         @arg @ref LL_EXTI_LINE_16
1218:external/drivers/stm32wlxx/include/stm32wlxx_ll_exti.h ****   *         @arg @ref LL_EXTI_LINE_17
1219:external/drivers/stm32wlxx/include/stm32wlxx_ll_exti.h ****   *         @arg @ref LL_EXTI_LINE_21
1220:external/drivers/stm32wlxx/include/stm32wlxx_ll_exti.h ****   *         @arg @ref LL_EXTI_LINE_22
1221:external/drivers/stm32wlxx/include/stm32wlxx_ll_exti.h ****   * @retval None
1222:external/drivers/stm32wlxx/include/stm32wlxx_ll_exti.h ****   */
1223:external/drivers/stm32wlxx/include/stm32wlxx_ll_exti.h **** __STATIC_INLINE void LL_EXTI_DisableFallingTrig_0_31(uint32_t ExtiLine)
 176              		.loc 2 1223 22 view .LVU32
 177              	.LBB17:
1224:external/drivers/stm32wlxx/include/stm32wlxx_ll_exti.h **** {
1225:external/drivers/stm32wlxx/include/stm32wlxx_ll_exti.h ****   CLEAR_BIT(EXTI->FTSR1, ExtiLine);
 178              		.loc 2 1225 3 view .LVU33
 179 001c 5A68     		ldr	r2, [r3, #4]
 180 001e 22F48032 		bic	r2, r2, #65536
 181 0022 5A60     		str	r2, [r3, #4]
 182              	.LVL3:
 183              		.loc 2 1225 3 is_stmt 0 view .LVU34
 184              	.LBE17:
 185              	.LBE16:
 363:external/drivers/stm32wlxx/src/stm32wlxx_hal_pwr.c ****   __HAL_PWR_PVD_EXTI_DISABLE_FALLING_EDGE();
 186              		.loc 1 363 3 is_stmt 1 view .LVU35
ARM GAS  /tmp/ccWP2owg.s 			page 32


 187              	.LBB18:
 188              	.LBI18:
1049:external/drivers/stm32wlxx/include/stm32wlxx_ll_exti.h **** {
 189              		.loc 2 1049 22 view .LVU36
 190              	.LBB19:
1051:external/drivers/stm32wlxx/include/stm32wlxx_ll_exti.h **** 
 191              		.loc 2 1051 3 view .LVU37
 192 0024 1A68     		ldr	r2, [r3]
 193 0026 22F48032 		bic	r2, r2, #65536
 194 002a 1A60     		str	r2, [r3]
 195              	.LVL4:
1051:external/drivers/stm32wlxx/include/stm32wlxx_ll_exti.h **** 
 196              		.loc 2 1051 3 is_stmt 0 view .LVU38
 197              	.LBE19:
 198              	.LBE18:
 364:external/drivers/stm32wlxx/src/stm32wlxx_hal_pwr.c **** 
 365:external/drivers/stm32wlxx/src/stm32wlxx_hal_pwr.c ****   /* Configure interrupt mode */
 366:external/drivers/stm32wlxx/src/stm32wlxx_hal_pwr.c ****   if ((sConfigPVD->Mode & PVD_MODE_IT) == PVD_MODE_IT)
 199              		.loc 1 366 3 is_stmt 1 view .LVU39
 200              		.loc 1 366 18 is_stmt 0 view .LVU40
 201 002c 4368     		ldr	r3, [r0, #4]
 202              		.loc 1 366 6 view .LVU41
 203 002e 13F4803F 		tst	r3, #65536
 204 0032 06D0     		beq	.L11
 367:external/drivers/stm32wlxx/src/stm32wlxx_hal_pwr.c ****   {
 368:external/drivers/stm32wlxx/src/stm32wlxx_hal_pwr.c ****     __HAL_PWR_PVD_EXTI_ENABLE_IT();
 205              		.loc 1 368 5 is_stmt 1 view .LVU42
 206              	.LVL5:
 207              	.LBB20:
 208              	.LBI20:
 265:external/drivers/stm32wlxx/include/stm32wlxx_ll_exti.h **** {
 209              		.loc 2 265 22 view .LVU43
 210              	.LBB21:
 267:external/drivers/stm32wlxx/include/stm32wlxx_ll_exti.h **** }
 211              		.loc 2 267 3 view .LVU44
 212 0034 0E4A     		ldr	r2, .L14+4
 213 0036 D2F88030 		ldr	r3, [r2, #128]
 214 003a 43F48033 		orr	r3, r3, #65536
 215 003e C2F88030 		str	r3, [r2, #128]
 216              	.LVL6:
 217              	.L11:
 267:external/drivers/stm32wlxx/include/stm32wlxx_ll_exti.h **** }
 218              		.loc 2 267 3 is_stmt 0 view .LVU45
 219              	.LBE21:
 220              	.LBE20:
 369:external/drivers/stm32wlxx/src/stm32wlxx_hal_pwr.c ****   }
 370:external/drivers/stm32wlxx/src/stm32wlxx_hal_pwr.c **** 
 371:external/drivers/stm32wlxx/src/stm32wlxx_hal_pwr.c ****   /* Configure the edge */
 372:external/drivers/stm32wlxx/src/stm32wlxx_hal_pwr.c ****   if ((sConfigPVD->Mode & PVD_RISING_EDGE) == PVD_RISING_EDGE)
 221              		.loc 1 372 3 is_stmt 1 view .LVU46
 222              		.loc 1 372 18 is_stmt 0 view .LVU47
 223 0042 4368     		ldr	r3, [r0, #4]
 224              		.loc 1 372 6 view .LVU48
 225 0044 13F0010F 		tst	r3, #1
 226 0048 04D0     		beq	.L12
 373:external/drivers/stm32wlxx/src/stm32wlxx_hal_pwr.c ****   {
 374:external/drivers/stm32wlxx/src/stm32wlxx_hal_pwr.c ****     __HAL_PWR_PVD_EXTI_ENABLE_RISING_EDGE();
ARM GAS  /tmp/ccWP2owg.s 			page 33


 227              		.loc 1 374 5 is_stmt 1 view .LVU49
 228              	.LVL7:
 229              	.LBB22:
 230              	.LBI22:
1164:external/drivers/stm32wlxx/include/stm32wlxx_ll_exti.h **** {
 231              		.loc 2 1164 22 view .LVU50
 232              	.LBB23:
1166:external/drivers/stm32wlxx/include/stm32wlxx_ll_exti.h **** }
 233              		.loc 2 1166 3 view .LVU51
 234 004a 094A     		ldr	r2, .L14+4
 235 004c 5368     		ldr	r3, [r2, #4]
 236 004e 43F48033 		orr	r3, r3, #65536
 237 0052 5360     		str	r3, [r2, #4]
 238              	.LVL8:
 239              	.L12:
1166:external/drivers/stm32wlxx/include/stm32wlxx_ll_exti.h **** }
 240              		.loc 2 1166 3 is_stmt 0 view .LVU52
 241              	.LBE23:
 242              	.LBE22:
 375:external/drivers/stm32wlxx/src/stm32wlxx_hal_pwr.c ****   }
 376:external/drivers/stm32wlxx/src/stm32wlxx_hal_pwr.c **** 
 377:external/drivers/stm32wlxx/src/stm32wlxx_hal_pwr.c ****   if ((sConfigPVD->Mode & PVD_FALLING_EDGE) == PVD_FALLING_EDGE)
 243              		.loc 1 377 3 is_stmt 1 view .LVU53
 244              		.loc 1 377 18 is_stmt 0 view .LVU54
 245 0054 4368     		ldr	r3, [r0, #4]
 246              		.loc 1 377 6 view .LVU55
 247 0056 13F0020F 		tst	r3, #2
 248 005a 04D0     		beq	.L13
 378:external/drivers/stm32wlxx/src/stm32wlxx_hal_pwr.c ****   {
 379:external/drivers/stm32wlxx/src/stm32wlxx_hal_pwr.c ****     __HAL_PWR_PVD_EXTI_ENABLE_FALLING_EDGE();
 249              		.loc 1 379 5 is_stmt 1 view .LVU56
 250              	.LVL9:
 251              	.LBB24:
 252              	.LBI24:
 989:external/drivers/stm32wlxx/include/stm32wlxx_ll_exti.h **** {
 253              		.loc 2 989 22 view .LVU57
 254              	.LBB25:
 991:external/drivers/stm32wlxx/include/stm32wlxx_ll_exti.h **** 
 255              		.loc 2 991 3 view .LVU58
 256 005c 044A     		ldr	r2, .L14+4
 257 005e 1368     		ldr	r3, [r2]
 258 0060 43F48033 		orr	r3, r3, #65536
 259 0064 1360     		str	r3, [r2]
 260              	.LVL10:
 261              	.L13:
 991:external/drivers/stm32wlxx/include/stm32wlxx_ll_exti.h **** 
 262              		.loc 2 991 3 is_stmt 0 view .LVU59
 263              	.LBE25:
 264              	.LBE24:
 380:external/drivers/stm32wlxx/src/stm32wlxx_hal_pwr.c ****   }
 381:external/drivers/stm32wlxx/src/stm32wlxx_hal_pwr.c **** 
 382:external/drivers/stm32wlxx/src/stm32wlxx_hal_pwr.c ****   return HAL_OK;
 265              		.loc 1 382 3 is_stmt 1 view .LVU60
 383:external/drivers/stm32wlxx/src/stm32wlxx_hal_pwr.c **** }
 266              		.loc 1 383 1 is_stmt 0 view .LVU61
 267 0066 0020     		movs	r0, #0
 268              	.LVL11:
ARM GAS  /tmp/ccWP2owg.s 			page 34


 269              		.loc 1 383 1 view .LVU62
 270 0068 7047     		bx	lr
 271              	.L15:
 272 006a 00BF     		.align	2
 273              	.L14:
 274 006c 00040058 		.word	1476396032
 275 0070 00080058 		.word	1476397056
 276              		.cfi_endproc
 277              	.LFE847:
 279              		.section	.text.HAL_PWR_EnablePVD,"ax",%progbits
 280              		.align	1
 281              		.global	HAL_PWR_EnablePVD
 282              		.syntax unified
 283              		.thumb
 284              		.thumb_func
 286              	HAL_PWR_EnablePVD:
 287              	.LFB848:
 384:external/drivers/stm32wlxx/src/stm32wlxx_hal_pwr.c **** 
 385:external/drivers/stm32wlxx/src/stm32wlxx_hal_pwr.c **** /**
 386:external/drivers/stm32wlxx/src/stm32wlxx_hal_pwr.c ****   * @brief Enable the Power Voltage Detector(PVD).
 387:external/drivers/stm32wlxx/src/stm32wlxx_hal_pwr.c ****   * @retval None
 388:external/drivers/stm32wlxx/src/stm32wlxx_hal_pwr.c ****   */
 389:external/drivers/stm32wlxx/src/stm32wlxx_hal_pwr.c **** void HAL_PWR_EnablePVD(void)
 390:external/drivers/stm32wlxx/src/stm32wlxx_hal_pwr.c **** {
 288              		.loc 1 390 1 is_stmt 1 view -0
 289              		.cfi_startproc
 290              		@ args = 0, pretend = 0, frame = 0
 291              		@ frame_needed = 0, uses_anonymous_args = 0
 292              		@ link register save eliminated.
 391:external/drivers/stm32wlxx/src/stm32wlxx_hal_pwr.c ****   /* Enable the power voltage detector */
 392:external/drivers/stm32wlxx/src/stm32wlxx_hal_pwr.c ****   SET_BIT(PWR->CR2, PWR_CR2_PVDE);
 293              		.loc 1 392 3 view .LVU64
 294 0000 024A     		ldr	r2, .L17
 295 0002 5368     		ldr	r3, [r2, #4]
 296 0004 43F00103 		orr	r3, r3, #1
 297 0008 5360     		str	r3, [r2, #4]
 393:external/drivers/stm32wlxx/src/stm32wlxx_hal_pwr.c **** }
 298              		.loc 1 393 1 is_stmt 0 view .LVU65
 299 000a 7047     		bx	lr
 300              	.L18:
 301              		.align	2
 302              	.L17:
 303 000c 00040058 		.word	1476396032
 304              		.cfi_endproc
 305              	.LFE848:
 307              		.section	.text.HAL_PWR_DisablePVD,"ax",%progbits
 308              		.align	1
 309              		.global	HAL_PWR_DisablePVD
 310              		.syntax unified
 311              		.thumb
 312              		.thumb_func
 314              	HAL_PWR_DisablePVD:
 315              	.LFB849:
 394:external/drivers/stm32wlxx/src/stm32wlxx_hal_pwr.c **** 
 395:external/drivers/stm32wlxx/src/stm32wlxx_hal_pwr.c **** /**
 396:external/drivers/stm32wlxx/src/stm32wlxx_hal_pwr.c ****   * @brief Disable the Power Voltage Detector(PVD).
 397:external/drivers/stm32wlxx/src/stm32wlxx_hal_pwr.c ****   * @retval None
ARM GAS  /tmp/ccWP2owg.s 			page 35


 398:external/drivers/stm32wlxx/src/stm32wlxx_hal_pwr.c ****   */
 399:external/drivers/stm32wlxx/src/stm32wlxx_hal_pwr.c **** void HAL_PWR_DisablePVD(void)
 400:external/drivers/stm32wlxx/src/stm32wlxx_hal_pwr.c **** {
 316              		.loc 1 400 1 is_stmt 1 view -0
 317              		.cfi_startproc
 318              		@ args = 0, pretend = 0, frame = 0
 319              		@ frame_needed = 0, uses_anonymous_args = 0
 320              		@ link register save eliminated.
 401:external/drivers/stm32wlxx/src/stm32wlxx_hal_pwr.c ****   /* Disable the power voltage detector */
 402:external/drivers/stm32wlxx/src/stm32wlxx_hal_pwr.c ****   CLEAR_BIT(PWR->CR2, PWR_CR2_PVDE);
 321              		.loc 1 402 3 view .LVU67
 322 0000 024A     		ldr	r2, .L20
 323 0002 5368     		ldr	r3, [r2, #4]
 324 0004 23F00103 		bic	r3, r3, #1
 325 0008 5360     		str	r3, [r2, #4]
 403:external/drivers/stm32wlxx/src/stm32wlxx_hal_pwr.c **** }
 326              		.loc 1 403 1 is_stmt 0 view .LVU68
 327 000a 7047     		bx	lr
 328              	.L21:
 329              		.align	2
 330              	.L20:
 331 000c 00040058 		.word	1476396032
 332              		.cfi_endproc
 333              	.LFE849:
 335              		.section	.text.HAL_PWR_EnableWakeUpPin,"ax",%progbits
 336              		.align	1
 337              		.global	HAL_PWR_EnableWakeUpPin
 338              		.syntax unified
 339              		.thumb
 340              		.thumb_func
 342              	HAL_PWR_EnableWakeUpPin:
 343              	.LVL12:
 344              	.LFB850:
 404:external/drivers/stm32wlxx/src/stm32wlxx_hal_pwr.c **** 
 405:external/drivers/stm32wlxx/src/stm32wlxx_hal_pwr.c **** /**
 406:external/drivers/stm32wlxx/src/stm32wlxx_hal_pwr.c ****   * @brief Enable the WakeUp PINx functionality.
 407:external/drivers/stm32wlxx/src/stm32wlxx_hal_pwr.c ****   * @param WakeUpPinPolarity Specifies which Wake-Up pin to enable.
 408:external/drivers/stm32wlxx/src/stm32wlxx_hal_pwr.c ****   *         This parameter can be one of the following legacy values which set the default polarity
 409:external/drivers/stm32wlxx/src/stm32wlxx_hal_pwr.c ****   *         i.e. detection on high level (rising edge):
 410:external/drivers/stm32wlxx/src/stm32wlxx_hal_pwr.c ****   *           @arg PWR_WAKEUP_PIN1 Pin wake-up the system from Standby mode.
 411:external/drivers/stm32wlxx/src/stm32wlxx_hal_pwr.c ****   *           @arg PWR_WAKEUP_PIN2 Pin wake-up the system from Standby mode.
 412:external/drivers/stm32wlxx/src/stm32wlxx_hal_pwr.c ****   *           @arg PWR_WAKEUP_PIN3 Pin wake-up the system from Standby mode.
 413:external/drivers/stm32wlxx/src/stm32wlxx_hal_pwr.c ****   *         or one of the following value where the user can explicitly specify the enabled pin and
 414:external/drivers/stm32wlxx/src/stm32wlxx_hal_pwr.c ****   *         the chosen polarity:
 415:external/drivers/stm32wlxx/src/stm32wlxx_hal_pwr.c ****   *           @arg @ref PWR_WAKEUP_PIN1_HIGH or @arg @ref PWR_WAKEUP_PIN1_LOW
 416:external/drivers/stm32wlxx/src/stm32wlxx_hal_pwr.c ****   *           @arg @ref PWR_WAKEUP_PIN2_HIGH or @arg @ref PWR_WAKEUP_PIN2_LOW
 417:external/drivers/stm32wlxx/src/stm32wlxx_hal_pwr.c ****   *           @arg @ref PWR_WAKEUP_PIN3_HIGH or @arg @ref PWR_WAKEUP_PIN3_LOW
 418:external/drivers/stm32wlxx/src/stm32wlxx_hal_pwr.c ****   * @note  PWR_WAKEUP_PINx and PWR_WAKEUP_PINx_HIGH are equivalent.
 419:external/drivers/stm32wlxx/src/stm32wlxx_hal_pwr.c ****   * @retval None
 420:external/drivers/stm32wlxx/src/stm32wlxx_hal_pwr.c ****   */
 421:external/drivers/stm32wlxx/src/stm32wlxx_hal_pwr.c **** void HAL_PWR_EnableWakeUpPin(uint32_t WakeUpPinPolarity)
 422:external/drivers/stm32wlxx/src/stm32wlxx_hal_pwr.c **** {
 345              		.loc 1 422 1 is_stmt 1 view -0
 346              		.cfi_startproc
 347              		@ args = 0, pretend = 0, frame = 0
 348              		@ frame_needed = 0, uses_anonymous_args = 0
 349              		@ link register save eliminated.
ARM GAS  /tmp/ccWP2owg.s 			page 36


 423:external/drivers/stm32wlxx/src/stm32wlxx_hal_pwr.c ****   assert_param(IS_PWR_WAKEUP_PIN(WakeUpPinPolarity));
 350              		.loc 1 423 3 view .LVU70
 424:external/drivers/stm32wlxx/src/stm32wlxx_hal_pwr.c **** 
 425:external/drivers/stm32wlxx/src/stm32wlxx_hal_pwr.c ****   /* Specifies the Wake-Up pin polarity for the event detection
 426:external/drivers/stm32wlxx/src/stm32wlxx_hal_pwr.c ****     (rising or falling edge) */
 427:external/drivers/stm32wlxx/src/stm32wlxx_hal_pwr.c ****   MODIFY_REG(PWR->CR4, ((PWR_CR4_WP1 | PWR_CR4_WP2 | PWR_CR4_WP3) & WakeUpPinPolarity),
 351              		.loc 1 427 3 view .LVU71
 352 0000 064A     		ldr	r2, .L23
 353 0002 D368     		ldr	r3, [r2, #12]
 354 0004 00F00701 		and	r1, r0, #7
 355 0008 23EA0103 		bic	r3, r3, r1
 356 000c 43EA5010 		orr	r0, r3, r0, lsr #5
 357              	.LVL13:
 358              		.loc 1 427 3 is_stmt 0 view .LVU72
 359 0010 D060     		str	r0, [r2, #12]
 428:external/drivers/stm32wlxx/src/stm32wlxx_hal_pwr.c ****              (WakeUpPinPolarity >> PWR_WUP_POLARITY_SHIFT));
 429:external/drivers/stm32wlxx/src/stm32wlxx_hal_pwr.c **** 
 430:external/drivers/stm32wlxx/src/stm32wlxx_hal_pwr.c ****   /* Enable wake-up pin */
 431:external/drivers/stm32wlxx/src/stm32wlxx_hal_pwr.c **** #ifdef CORE_CM0PLUS
 432:external/drivers/stm32wlxx/src/stm32wlxx_hal_pwr.c ****   SET_BIT(PWR->C2CR3, (PWR_C2CR3_EWUP & WakeUpPinPolarity));
 433:external/drivers/stm32wlxx/src/stm32wlxx_hal_pwr.c **** #else
 434:external/drivers/stm32wlxx/src/stm32wlxx_hal_pwr.c ****   SET_BIT(PWR->CR3, (PWR_CR3_EWUP & WakeUpPinPolarity));
 360              		.loc 1 434 3 is_stmt 1 view .LVU73
 361 0012 9368     		ldr	r3, [r2, #8]
 362 0014 1943     		orrs	r1, r1, r3
 363 0016 9160     		str	r1, [r2, #8]
 435:external/drivers/stm32wlxx/src/stm32wlxx_hal_pwr.c **** #endif /* CORE_CM0PLUS */
 436:external/drivers/stm32wlxx/src/stm32wlxx_hal_pwr.c **** }
 364              		.loc 1 436 1 is_stmt 0 view .LVU74
 365 0018 7047     		bx	lr
 366              	.L24:
 367 001a 00BF     		.align	2
 368              	.L23:
 369 001c 00040058 		.word	1476396032
 370              		.cfi_endproc
 371              	.LFE850:
 373              		.section	.text.HAL_PWR_DisableWakeUpPin,"ax",%progbits
 374              		.align	1
 375              		.global	HAL_PWR_DisableWakeUpPin
 376              		.syntax unified
 377              		.thumb
 378              		.thumb_func
 380              	HAL_PWR_DisableWakeUpPin:
 381              	.LVL14:
 382              	.LFB851:
 437:external/drivers/stm32wlxx/src/stm32wlxx_hal_pwr.c **** 
 438:external/drivers/stm32wlxx/src/stm32wlxx_hal_pwr.c **** /**
 439:external/drivers/stm32wlxx/src/stm32wlxx_hal_pwr.c ****   * @brief  Disable the WakeUp PINx functionality.
 440:external/drivers/stm32wlxx/src/stm32wlxx_hal_pwr.c ****   * @param WakeUpPinx Specifies the Power Wake-Up pin to disable.
 441:external/drivers/stm32wlxx/src/stm32wlxx_hal_pwr.c ****   *         This parameter can be one of the following values:
 442:external/drivers/stm32wlxx/src/stm32wlxx_hal_pwr.c ****   *           @arg @ref PWR_WAKEUP_PIN1 Pin wake-up the system from Standby mode.
 443:external/drivers/stm32wlxx/src/stm32wlxx_hal_pwr.c ****   *           @arg @ref PWR_WAKEUP_PIN2 Pin wake-up the system from Standby mode.
 444:external/drivers/stm32wlxx/src/stm32wlxx_hal_pwr.c ****   *           @arg @ref PWR_WAKEUP_PIN3 Pin wake-up the system from Standby mode.
 445:external/drivers/stm32wlxx/src/stm32wlxx_hal_pwr.c ****   * @retval None
 446:external/drivers/stm32wlxx/src/stm32wlxx_hal_pwr.c ****   */
 447:external/drivers/stm32wlxx/src/stm32wlxx_hal_pwr.c **** void HAL_PWR_DisableWakeUpPin(uint32_t WakeUpPinx)
 448:external/drivers/stm32wlxx/src/stm32wlxx_hal_pwr.c **** {
ARM GAS  /tmp/ccWP2owg.s 			page 37


 383              		.loc 1 448 1 is_stmt 1 view -0
 384              		.cfi_startproc
 385              		@ args = 0, pretend = 0, frame = 0
 386              		@ frame_needed = 0, uses_anonymous_args = 0
 387              		@ link register save eliminated.
 449:external/drivers/stm32wlxx/src/stm32wlxx_hal_pwr.c ****   assert_param(IS_PWR_WAKEUP_PIN(WakeUpPinx));
 388              		.loc 1 449 3 view .LVU76
 450:external/drivers/stm32wlxx/src/stm32wlxx_hal_pwr.c **** 
 451:external/drivers/stm32wlxx/src/stm32wlxx_hal_pwr.c ****   /* Disable wake-up pin */
 452:external/drivers/stm32wlxx/src/stm32wlxx_hal_pwr.c **** #ifdef CORE_CM0PLUS
 453:external/drivers/stm32wlxx/src/stm32wlxx_hal_pwr.c ****   CLEAR_BIT(PWR->C2CR3, (PWR_C2CR3_EWUP & WakeUpPinx));
 454:external/drivers/stm32wlxx/src/stm32wlxx_hal_pwr.c **** #else
 455:external/drivers/stm32wlxx/src/stm32wlxx_hal_pwr.c ****   CLEAR_BIT(PWR->CR3, (PWR_CR3_EWUP & WakeUpPinx));
 389              		.loc 1 455 3 view .LVU77
 390 0000 034A     		ldr	r2, .L26
 391 0002 9368     		ldr	r3, [r2, #8]
 392 0004 00F00700 		and	r0, r0, #7
 393              	.LVL15:
 394              		.loc 1 455 3 is_stmt 0 view .LVU78
 395 0008 23EA0003 		bic	r3, r3, r0
 396 000c 9360     		str	r3, [r2, #8]
 456:external/drivers/stm32wlxx/src/stm32wlxx_hal_pwr.c **** #endif /* CORE_CM0PLUS */
 457:external/drivers/stm32wlxx/src/stm32wlxx_hal_pwr.c **** }
 397              		.loc 1 457 1 view .LVU79
 398 000e 7047     		bx	lr
 399              	.L27:
 400              		.align	2
 401              	.L26:
 402 0010 00040058 		.word	1476396032
 403              		.cfi_endproc
 404              	.LFE851:
 406              		.section	.text.HAL_PWR_EnterSLEEPMode,"ax",%progbits
 407              		.align	1
 408              		.global	HAL_PWR_EnterSLEEPMode
 409              		.syntax unified
 410              		.thumb
 411              		.thumb_func
 413              	HAL_PWR_EnterSLEEPMode:
 414              	.LVL16:
 415              	.LFB852:
 458:external/drivers/stm32wlxx/src/stm32wlxx_hal_pwr.c **** 
 459:external/drivers/stm32wlxx/src/stm32wlxx_hal_pwr.c **** /**
 460:external/drivers/stm32wlxx/src/stm32wlxx_hal_pwr.c ****   * @brief Enter Sleep or Low-power Sleep mode.
 461:external/drivers/stm32wlxx/src/stm32wlxx_hal_pwr.c ****   * @note  In Sleep/Low-power Sleep mode, all I/O pins keep the same state as in Run mode.
 462:external/drivers/stm32wlxx/src/stm32wlxx_hal_pwr.c ****   * @param Regulator Specifies the regulator state in Sleep/Low-power Sleep mode.
 463:external/drivers/stm32wlxx/src/stm32wlxx_hal_pwr.c ****   *          This parameter can be one of the following values:
 464:external/drivers/stm32wlxx/src/stm32wlxx_hal_pwr.c ****   *            @arg @ref PWR_MAINREGULATOR_ON Sleep mode (regulator in main mode)
 465:external/drivers/stm32wlxx/src/stm32wlxx_hal_pwr.c ****   *            @arg @ref PWR_LOWPOWERREGULATOR_ON Low-power Sleep mode (regulator in low-power mode
 466:external/drivers/stm32wlxx/src/stm32wlxx_hal_pwr.c ****   * @note  Low-power Sleep mode is entered from Low-power Run mode (low-power regulator used
 467:external/drivers/stm32wlxx/src/stm32wlxx_hal_pwr.c ****   *        and clock frequency below 2 MHz) and by calling HAL_PWR_EnterSLEEPMode() with Regulator 
 468:external/drivers/stm32wlxx/src/stm32wlxx_hal_pwr.c ****   *        to PWR_LOWPOWERREGULATOR_ON.
 469:external/drivers/stm32wlxx/src/stm32wlxx_hal_pwr.c ****   *        Additionally, the clock frequency must be reduced below 2 MHz.
 470:external/drivers/stm32wlxx/src/stm32wlxx_hal_pwr.c ****   * @note  When exiting Low-power Sleep mode, the MCU is in Low-power Run mode. To move in
 471:external/drivers/stm32wlxx/src/stm32wlxx_hal_pwr.c ****   *        Run mode, the user must resort to HAL_PWREx_DisableLowPowerRunMode() API.
 472:external/drivers/stm32wlxx/src/stm32wlxx_hal_pwr.c ****   * @param SLEEPEntry Specifies if Sleep mode is entered with WFI or WFE instruction.
 473:external/drivers/stm32wlxx/src/stm32wlxx_hal_pwr.c ****   *           This parameter can be one of the following values:
 474:external/drivers/stm32wlxx/src/stm32wlxx_hal_pwr.c ****   *            @arg @ref PWR_SLEEPENTRY_WFI enter Sleep or Low-power Sleep mode with WFI instructio
ARM GAS  /tmp/ccWP2owg.s 			page 38


 475:external/drivers/stm32wlxx/src/stm32wlxx_hal_pwr.c ****   *            @arg @ref PWR_SLEEPENTRY_WFE enter Sleep or Low-power Sleep mode with WFE instructio
 476:external/drivers/stm32wlxx/src/stm32wlxx_hal_pwr.c ****   * @note  When WFI entry is used, tick interrupt have to be disabled if not desired as
 477:external/drivers/stm32wlxx/src/stm32wlxx_hal_pwr.c ****   *        the interrupt wake up source.
 478:external/drivers/stm32wlxx/src/stm32wlxx_hal_pwr.c ****   * @retval None
 479:external/drivers/stm32wlxx/src/stm32wlxx_hal_pwr.c ****   */
 480:external/drivers/stm32wlxx/src/stm32wlxx_hal_pwr.c **** void HAL_PWR_EnterSLEEPMode(uint32_t Regulator, uint8_t SLEEPEntry)
 481:external/drivers/stm32wlxx/src/stm32wlxx_hal_pwr.c **** {
 416              		.loc 1 481 1 is_stmt 1 view -0
 417              		.cfi_startproc
 418              		@ args = 0, pretend = 0, frame = 0
 419              		@ frame_needed = 0, uses_anonymous_args = 0
 420              		.loc 1 481 1 is_stmt 0 view .LVU81
 421 0000 10B5     		push	{r4, lr}
 422              	.LCFI0:
 423              		.cfi_def_cfa_offset 8
 424              		.cfi_offset 4, -8
 425              		.cfi_offset 14, -4
 426 0002 0C46     		mov	r4, r1
 482:external/drivers/stm32wlxx/src/stm32wlxx_hal_pwr.c ****   /* Check the parameters */
 483:external/drivers/stm32wlxx/src/stm32wlxx_hal_pwr.c ****   assert_param(IS_PWR_REGULATOR(Regulator));
 427              		.loc 1 483 3 is_stmt 1 view .LVU82
 484:external/drivers/stm32wlxx/src/stm32wlxx_hal_pwr.c ****   assert_param(IS_PWR_SLEEP_ENTRY(SLEEPEntry));
 428              		.loc 1 484 3 view .LVU83
 485:external/drivers/stm32wlxx/src/stm32wlxx_hal_pwr.c **** 
 486:external/drivers/stm32wlxx/src/stm32wlxx_hal_pwr.c ****   /* Set Regulator parameter */
 487:external/drivers/stm32wlxx/src/stm32wlxx_hal_pwr.c ****   if (Regulator == PWR_MAINREGULATOR_ON)
 429              		.loc 1 487 3 view .LVU84
 430              		.loc 1 487 6 is_stmt 0 view .LVU85
 431 0004 A0B9     		cbnz	r0, .L29
 488:external/drivers/stm32wlxx/src/stm32wlxx_hal_pwr.c ****   {
 489:external/drivers/stm32wlxx/src/stm32wlxx_hal_pwr.c ****     /* If in low-power run mode at this point, exit it */
 490:external/drivers/stm32wlxx/src/stm32wlxx_hal_pwr.c ****     if (HAL_IS_BIT_SET(PWR->SR2, (PWR_SR2_REGLPF)))
 432              		.loc 1 490 5 is_stmt 1 view .LVU86
 433              		.loc 1 490 9 is_stmt 0 view .LVU87
 434 0006 0F4B     		ldr	r3, .L36
 435 0008 5B69     		ldr	r3, [r3, #20]
 436              		.loc 1 490 8 view .LVU88
 437 000a 13F4007F 		tst	r3, #512
 438 000e 0AD1     		bne	.L34
 439              	.LVL17:
 440              	.L30:
 491:external/drivers/stm32wlxx/src/stm32wlxx_hal_pwr.c ****     {
 492:external/drivers/stm32wlxx/src/stm32wlxx_hal_pwr.c ****       if (HAL_PWREx_DisableLowPowerRunMode() != HAL_OK)
 493:external/drivers/stm32wlxx/src/stm32wlxx_hal_pwr.c ****       {
 494:external/drivers/stm32wlxx/src/stm32wlxx_hal_pwr.c ****         return ;
 495:external/drivers/stm32wlxx/src/stm32wlxx_hal_pwr.c ****       }
 496:external/drivers/stm32wlxx/src/stm32wlxx_hal_pwr.c ****     }
 497:external/drivers/stm32wlxx/src/stm32wlxx_hal_pwr.c ****     /* Regulator now in main mode. */
 498:external/drivers/stm32wlxx/src/stm32wlxx_hal_pwr.c ****   }
 499:external/drivers/stm32wlxx/src/stm32wlxx_hal_pwr.c ****   else
 500:external/drivers/stm32wlxx/src/stm32wlxx_hal_pwr.c ****   {
 501:external/drivers/stm32wlxx/src/stm32wlxx_hal_pwr.c ****     /* If in run mode, first move to low-power run mode.
 502:external/drivers/stm32wlxx/src/stm32wlxx_hal_pwr.c ****        The system clock frequency must be below 2 MHz at this point. */
 503:external/drivers/stm32wlxx/src/stm32wlxx_hal_pwr.c ****     if (HAL_IS_BIT_CLR(PWR->SR2, (PWR_SR2_REGLPF)))
 504:external/drivers/stm32wlxx/src/stm32wlxx_hal_pwr.c ****     {
 505:external/drivers/stm32wlxx/src/stm32wlxx_hal_pwr.c ****       HAL_PWREx_EnableLowPowerRunMode();
 506:external/drivers/stm32wlxx/src/stm32wlxx_hal_pwr.c ****     }
ARM GAS  /tmp/ccWP2owg.s 			page 39


 507:external/drivers/stm32wlxx/src/stm32wlxx_hal_pwr.c ****   }
 508:external/drivers/stm32wlxx/src/stm32wlxx_hal_pwr.c **** 
 509:external/drivers/stm32wlxx/src/stm32wlxx_hal_pwr.c ****   /* Clear SLEEPDEEP bit of Cortex System Control Register */
 510:external/drivers/stm32wlxx/src/stm32wlxx_hal_pwr.c ****   CLEAR_BIT(SCB->SCR, ((uint32_t)SCB_SCR_SLEEPDEEP_Msk));
 441              		.loc 1 510 3 is_stmt 1 view .LVU89
 442 0010 0D4A     		ldr	r2, .L36+4
 443 0012 1369     		ldr	r3, [r2, #16]
 444 0014 23F00403 		bic	r3, r3, #4
 445 0018 1361     		str	r3, [r2, #16]
 511:external/drivers/stm32wlxx/src/stm32wlxx_hal_pwr.c **** 
 512:external/drivers/stm32wlxx/src/stm32wlxx_hal_pwr.c ****   /* Select SLEEP mode entry -------------------------------------------------*/
 513:external/drivers/stm32wlxx/src/stm32wlxx_hal_pwr.c ****   if (SLEEPEntry == PWR_SLEEPENTRY_WFI)
 446              		.loc 1 513 3 view .LVU90
 447              		.loc 1 513 6 is_stmt 0 view .LVU91
 448 001a 012C     		cmp	r4, #1
 449 001c 10D0     		beq	.L35
 514:external/drivers/stm32wlxx/src/stm32wlxx_hal_pwr.c ****   {
 515:external/drivers/stm32wlxx/src/stm32wlxx_hal_pwr.c ****     /* Request Wait For Interrupt */
 516:external/drivers/stm32wlxx/src/stm32wlxx_hal_pwr.c ****     __WFI();
 517:external/drivers/stm32wlxx/src/stm32wlxx_hal_pwr.c ****   }
 518:external/drivers/stm32wlxx/src/stm32wlxx_hal_pwr.c ****   else
 519:external/drivers/stm32wlxx/src/stm32wlxx_hal_pwr.c ****   {
 520:external/drivers/stm32wlxx/src/stm32wlxx_hal_pwr.c ****     /* Request Wait For Event */
 521:external/drivers/stm32wlxx/src/stm32wlxx_hal_pwr.c ****     __SEV();
 450              		.loc 1 521 5 is_stmt 1 view .LVU92
 451              		.syntax unified
 452              	@ 521 "external/drivers/stm32wlxx/src/stm32wlxx_hal_pwr.c" 1
 453 001e 40BF     		sev
 454              	@ 0 "" 2
 522:external/drivers/stm32wlxx/src/stm32wlxx_hal_pwr.c ****     __WFE();
 455              		.loc 1 522 5 view .LVU93
 456              	@ 522 "external/drivers/stm32wlxx/src/stm32wlxx_hal_pwr.c" 1
 457 0020 20BF     		wfe
 458              	@ 0 "" 2
 523:external/drivers/stm32wlxx/src/stm32wlxx_hal_pwr.c ****     __WFE();
 459              		.loc 1 523 5 view .LVU94
 460              	@ 523 "external/drivers/stm32wlxx/src/stm32wlxx_hal_pwr.c" 1
 461 0022 20BF     		wfe
 462              	@ 0 "" 2
 463              		.thumb
 464              		.syntax unified
 465              	.L28:
 524:external/drivers/stm32wlxx/src/stm32wlxx_hal_pwr.c ****   }
 525:external/drivers/stm32wlxx/src/stm32wlxx_hal_pwr.c **** }
 466              		.loc 1 525 1 is_stmt 0 view .LVU95
 467 0024 10BD     		pop	{r4, pc}
 468              	.LVL18:
 469              	.L34:
 492:external/drivers/stm32wlxx/src/stm32wlxx_hal_pwr.c ****       {
 470              		.loc 1 492 7 is_stmt 1 view .LVU96
 492:external/drivers/stm32wlxx/src/stm32wlxx_hal_pwr.c ****       {
 471              		.loc 1 492 11 is_stmt 0 view .LVU97
 472 0026 FFF7FEFF 		bl	HAL_PWREx_DisableLowPowerRunMode
 473              	.LVL19:
 492:external/drivers/stm32wlxx/src/stm32wlxx_hal_pwr.c ****       {
 474              		.loc 1 492 10 discriminator 1 view .LVU98
 475 002a 0028     		cmp	r0, #0
ARM GAS  /tmp/ccWP2owg.s 			page 40


 476 002c F0D0     		beq	.L30
 477 002e F9E7     		b	.L28
 478              	.LVL20:
 479              	.L29:
 503:external/drivers/stm32wlxx/src/stm32wlxx_hal_pwr.c ****     {
 480              		.loc 1 503 5 is_stmt 1 view .LVU99
 503:external/drivers/stm32wlxx/src/stm32wlxx_hal_pwr.c ****     {
 481              		.loc 1 503 9 is_stmt 0 view .LVU100
 482 0030 044B     		ldr	r3, .L36
 483 0032 5B69     		ldr	r3, [r3, #20]
 503:external/drivers/stm32wlxx/src/stm32wlxx_hal_pwr.c ****     {
 484              		.loc 1 503 8 view .LVU101
 485 0034 13F4007F 		tst	r3, #512
 486 0038 EAD1     		bne	.L30
 505:external/drivers/stm32wlxx/src/stm32wlxx_hal_pwr.c ****     }
 487              		.loc 1 505 7 is_stmt 1 view .LVU102
 488 003a FFF7FEFF 		bl	HAL_PWREx_EnableLowPowerRunMode
 489              	.LVL21:
 505:external/drivers/stm32wlxx/src/stm32wlxx_hal_pwr.c ****     }
 490              		.loc 1 505 7 is_stmt 0 view .LVU103
 491 003e E7E7     		b	.L30
 492              	.L35:
 516:external/drivers/stm32wlxx/src/stm32wlxx_hal_pwr.c ****   }
 493              		.loc 1 516 5 is_stmt 1 view .LVU104
 494              		.syntax unified
 495              	@ 516 "external/drivers/stm32wlxx/src/stm32wlxx_hal_pwr.c" 1
 496 0040 30BF     		wfi
 497              	@ 0 "" 2
 498              		.thumb
 499              		.syntax unified
 500 0042 EFE7     		b	.L28
 501              	.L37:
 502              		.align	2
 503              	.L36:
 504 0044 00040058 		.word	1476396032
 505 0048 00ED00E0 		.word	-536810240
 506              		.cfi_endproc
 507              	.LFE852:
 509              		.section	.text.HAL_PWR_EnterSTOPMode,"ax",%progbits
 510              		.align	1
 511              		.global	HAL_PWR_EnterSTOPMode
 512              		.syntax unified
 513              		.thumb
 514              		.thumb_func
 516              	HAL_PWR_EnterSTOPMode:
 517              	.LVL22:
 518              	.LFB853:
 526:external/drivers/stm32wlxx/src/stm32wlxx_hal_pwr.c **** 
 527:external/drivers/stm32wlxx/src/stm32wlxx_hal_pwr.c **** /**
 528:external/drivers/stm32wlxx/src/stm32wlxx_hal_pwr.c ****   * @brief Enter Stop mode
 529:external/drivers/stm32wlxx/src/stm32wlxx_hal_pwr.c ****   * @note  This API is named HAL_PWR_EnterSTOPMode to ensure compatibility with legacy STM32 series
 530:external/drivers/stm32wlxx/src/stm32wlxx_hal_pwr.c ****   *        where only "Stop mode" is mentioned with main or low power regulator ON.
 531:external/drivers/stm32wlxx/src/stm32wlxx_hal_pwr.c ****   *        It is recommended to use functions:
 532:external/drivers/stm32wlxx/src/stm32wlxx_hal_pwr.c ****   *        @arg @ref HAL_PWREx_EnterSTOP0Mode
 533:external/drivers/stm32wlxx/src/stm32wlxx_hal_pwr.c ****   *        @arg @ref HAL_PWREx_EnterSTOP1Mode
 534:external/drivers/stm32wlxx/src/stm32wlxx_hal_pwr.c ****   *        @arg @ref HAL_PWREx_EnterSTOP2Mode
 535:external/drivers/stm32wlxx/src/stm32wlxx_hal_pwr.c ****   * @note  In Stop mode, all I/O pins keep the same state as in Run mode.
ARM GAS  /tmp/ccWP2owg.s 			page 41


 536:external/drivers/stm32wlxx/src/stm32wlxx_hal_pwr.c ****   * @note  All clocks in the VCORE domain are stopped; the PLL, the MSI,
 537:external/drivers/stm32wlxx/src/stm32wlxx_hal_pwr.c ****   *        the HSI and the HSE oscillators are disabled. Some peripherals with the wakeup capabilit
 538:external/drivers/stm32wlxx/src/stm32wlxx_hal_pwr.c ****   *        (I2Cx, USARTx and LPUART) can switch on the HSI to receive a frame, and switch off the H
 539:external/drivers/stm32wlxx/src/stm32wlxx_hal_pwr.c ****   *        after receiving the frame if it is not a wakeup frame. In this case, the HSI clock is pr
 540:external/drivers/stm32wlxx/src/stm32wlxx_hal_pwr.c ****   *        only to the peripheral requesting it.
 541:external/drivers/stm32wlxx/src/stm32wlxx_hal_pwr.c ****   *        SRAM1, SRAM2 and register contents are preserved.
 542:external/drivers/stm32wlxx/src/stm32wlxx_hal_pwr.c ****   *        The BOR is available.
 543:external/drivers/stm32wlxx/src/stm32wlxx_hal_pwr.c ****   *        The voltage regulator can be configured either in normal (Stop 0) or low-power mode (Sto
 544:external/drivers/stm32wlxx/src/stm32wlxx_hal_pwr.c ****   * @note  When exiting Stop 0 or Stop 1 mode by issuing an interrupt or a wakeup event,
 545:external/drivers/stm32wlxx/src/stm32wlxx_hal_pwr.c ****   *         the HSI RC oscillator is selected as system clock if STOPWUCK bit in RCC_CFGR register
 546:external/drivers/stm32wlxx/src/stm32wlxx_hal_pwr.c ****   *         is set; the MSI oscillator is selected if STOPWUCK is cleared.
 547:external/drivers/stm32wlxx/src/stm32wlxx_hal_pwr.c ****   * @note  When the voltage regulator operates in low power mode (Stop 1), an additional
 548:external/drivers/stm32wlxx/src/stm32wlxx_hal_pwr.c ****   *         startup delay is incurred when waking up.
 549:external/drivers/stm32wlxx/src/stm32wlxx_hal_pwr.c ****   *         By keeping the internal regulator ON during Stop mode (Stop 0), the consumption
 550:external/drivers/stm32wlxx/src/stm32wlxx_hal_pwr.c ****   *         is higher although the startup time is reduced.
 551:external/drivers/stm32wlxx/src/stm32wlxx_hal_pwr.c ****   * @note  According to system power policy, system entering in Stop mode
 552:external/drivers/stm32wlxx/src/stm32wlxx_hal_pwr.c ****   *        is depending on other CPU power mode.
 553:external/drivers/stm32wlxx/src/stm32wlxx_hal_pwr.c ****   * @param Regulator Specifies the regulator state in Stop mode.
 554:external/drivers/stm32wlxx/src/stm32wlxx_hal_pwr.c ****   *          This parameter can be one of the following values:
 555:external/drivers/stm32wlxx/src/stm32wlxx_hal_pwr.c ****   *            @arg @ref PWR_MAINREGULATOR_ON  Stop 0 mode (main regulator ON)
 556:external/drivers/stm32wlxx/src/stm32wlxx_hal_pwr.c ****   *            @arg @ref PWR_LOWPOWERREGULATOR_ON  Stop 1 mode (low power regulator ON)
 557:external/drivers/stm32wlxx/src/stm32wlxx_hal_pwr.c ****   * @param STOPEntry Specifies Stop 0, Stop 1 mode is entered with WFI or WFE instruction.
 558:external/drivers/stm32wlxx/src/stm32wlxx_hal_pwr.c ****   *          This parameter can be one of the following values:
 559:external/drivers/stm32wlxx/src/stm32wlxx_hal_pwr.c ****   *            @arg @ref PWR_STOPENTRY_WFI  Enter Stop 0 or Stop 1 mode with WFI instruction.
 560:external/drivers/stm32wlxx/src/stm32wlxx_hal_pwr.c ****   *            @arg @ref PWR_STOPENTRY_WFE  Enter Stop 0 or Stop 1 mode with WFE instruction.
 561:external/drivers/stm32wlxx/src/stm32wlxx_hal_pwr.c ****   * @retval None
 562:external/drivers/stm32wlxx/src/stm32wlxx_hal_pwr.c ****   */
 563:external/drivers/stm32wlxx/src/stm32wlxx_hal_pwr.c **** void HAL_PWR_EnterSTOPMode(uint32_t Regulator, uint8_t STOPEntry)
 564:external/drivers/stm32wlxx/src/stm32wlxx_hal_pwr.c **** {
 519              		.loc 1 564 1 view -0
 520              		.cfi_startproc
 521              		@ args = 0, pretend = 0, frame = 0
 522              		@ frame_needed = 0, uses_anonymous_args = 0
 523              		.loc 1 564 1 is_stmt 0 view .LVU106
 524 0000 08B5     		push	{r3, lr}
 525              	.LCFI1:
 526              		.cfi_def_cfa_offset 8
 527              		.cfi_offset 3, -8
 528              		.cfi_offset 14, -4
 565:external/drivers/stm32wlxx/src/stm32wlxx_hal_pwr.c ****   /* Check the parameters */
 566:external/drivers/stm32wlxx/src/stm32wlxx_hal_pwr.c ****   assert_param(IS_PWR_REGULATOR(Regulator));
 529              		.loc 1 566 3 is_stmt 1 view .LVU107
 567:external/drivers/stm32wlxx/src/stm32wlxx_hal_pwr.c **** 
 568:external/drivers/stm32wlxx/src/stm32wlxx_hal_pwr.c ****   if (Regulator == PWR_LOWPOWERREGULATOR_ON)
 530              		.loc 1 568 3 view .LVU108
 531              		.loc 1 568 6 is_stmt 0 view .LVU109
 532 0002 B0F5804F 		cmp	r0, #16384
 533 0006 03D0     		beq	.L42
 569:external/drivers/stm32wlxx/src/stm32wlxx_hal_pwr.c ****   {
 570:external/drivers/stm32wlxx/src/stm32wlxx_hal_pwr.c ****     HAL_PWREx_EnterSTOP1Mode(STOPEntry);
 571:external/drivers/stm32wlxx/src/stm32wlxx_hal_pwr.c ****   }
 572:external/drivers/stm32wlxx/src/stm32wlxx_hal_pwr.c ****   else
 573:external/drivers/stm32wlxx/src/stm32wlxx_hal_pwr.c ****   {
 574:external/drivers/stm32wlxx/src/stm32wlxx_hal_pwr.c ****     HAL_PWREx_EnterSTOP0Mode(STOPEntry);
 534              		.loc 1 574 5 is_stmt 1 view .LVU110
 535 0008 0846     		mov	r0, r1
 536              	.LVL23:
ARM GAS  /tmp/ccWP2owg.s 			page 42


 537              		.loc 1 574 5 is_stmt 0 view .LVU111
 538 000a FFF7FEFF 		bl	HAL_PWREx_EnterSTOP0Mode
 539              	.LVL24:
 540              	.L38:
 575:external/drivers/stm32wlxx/src/stm32wlxx_hal_pwr.c ****   }
 576:external/drivers/stm32wlxx/src/stm32wlxx_hal_pwr.c **** }
 541              		.loc 1 576 1 view .LVU112
 542 000e 08BD     		pop	{r3, pc}
 543              	.LVL25:
 544              	.L42:
 570:external/drivers/stm32wlxx/src/stm32wlxx_hal_pwr.c ****   }
 545              		.loc 1 570 5 is_stmt 1 view .LVU113
 546 0010 0846     		mov	r0, r1
 547              	.LVL26:
 570:external/drivers/stm32wlxx/src/stm32wlxx_hal_pwr.c ****   }
 548              		.loc 1 570 5 is_stmt 0 view .LVU114
 549 0012 FFF7FEFF 		bl	HAL_PWREx_EnterSTOP1Mode
 550              	.LVL27:
 570:external/drivers/stm32wlxx/src/stm32wlxx_hal_pwr.c ****   }
 551              		.loc 1 570 5 view .LVU115
 552 0016 FAE7     		b	.L38
 553              		.cfi_endproc
 554              	.LFE853:
 556              		.section	.text.HAL_PWR_EnterSTANDBYMode,"ax",%progbits
 557              		.align	1
 558              		.global	HAL_PWR_EnterSTANDBYMode
 559              		.syntax unified
 560              		.thumb
 561              		.thumb_func
 563              	HAL_PWR_EnterSTANDBYMode:
 564              	.LFB854:
 577:external/drivers/stm32wlxx/src/stm32wlxx_hal_pwr.c **** 
 578:external/drivers/stm32wlxx/src/stm32wlxx_hal_pwr.c **** /**
 579:external/drivers/stm32wlxx/src/stm32wlxx_hal_pwr.c ****   * @brief Enter Standby mode.
 580:external/drivers/stm32wlxx/src/stm32wlxx_hal_pwr.c ****   * @note  In Standby mode, the PLL, the HSI, the MSI and the HSE oscillators are switched
 581:external/drivers/stm32wlxx/src/stm32wlxx_hal_pwr.c ****   *        off. The voltage regulator is disabled, except when SRAM2 content is preserved
 582:external/drivers/stm32wlxx/src/stm32wlxx_hal_pwr.c ****   *        in which case the regulator is in low-power mode.
 583:external/drivers/stm32wlxx/src/stm32wlxx_hal_pwr.c ****   *        SRAM and register contents are lost except for registers in the Backup domain and
 584:external/drivers/stm32wlxx/src/stm32wlxx_hal_pwr.c ****   *        Standby circuitry. SRAM2 content can be preserved if the bit RRS is set in PWR_CR3 regis
 585:external/drivers/stm32wlxx/src/stm32wlxx_hal_pwr.c ****   *        To enable this feature, the user can resort to HAL_PWREx_EnableSRAMRetention() API
 586:external/drivers/stm32wlxx/src/stm32wlxx_hal_pwr.c ****   *        to set RRS bit.
 587:external/drivers/stm32wlxx/src/stm32wlxx_hal_pwr.c ****   *        The BOR is available.
 588:external/drivers/stm32wlxx/src/stm32wlxx_hal_pwr.c ****   * @note  The I/Os can be configured either with a pull-up or pull-down or can be kept in analog s
 589:external/drivers/stm32wlxx/src/stm32wlxx_hal_pwr.c ****   *        HAL_PWREx_EnableGPIOPullUp() and HAL_PWREx_EnableGPIOPullDown() respectively enable Pull
 590:external/drivers/stm32wlxx/src/stm32wlxx_hal_pwr.c ****   *        Pull Down state, HAL_PWREx_DisableGPIOPullUp() and HAL_PWREx_DisableGPIOPullDown() disab
 591:external/drivers/stm32wlxx/src/stm32wlxx_hal_pwr.c ****   *        same.
 592:external/drivers/stm32wlxx/src/stm32wlxx_hal_pwr.c ****   *        These states are effective in Standby mode only if APC bit is set through
 593:external/drivers/stm32wlxx/src/stm32wlxx_hal_pwr.c ****   *        HAL_PWREx_EnablePullUpPullDownConfig() API.
 594:external/drivers/stm32wlxx/src/stm32wlxx_hal_pwr.c ****   * @note  According to system power policy, system entering in Standby mode
 595:external/drivers/stm32wlxx/src/stm32wlxx_hal_pwr.c ****   *        is depending on other CPU power mode.
 596:external/drivers/stm32wlxx/src/stm32wlxx_hal_pwr.c ****   * @retval None
 597:external/drivers/stm32wlxx/src/stm32wlxx_hal_pwr.c ****   */
 598:external/drivers/stm32wlxx/src/stm32wlxx_hal_pwr.c **** void HAL_PWR_EnterSTANDBYMode(void)
 599:external/drivers/stm32wlxx/src/stm32wlxx_hal_pwr.c **** {
 565              		.loc 1 599 1 is_stmt 1 view -0
 566              		.cfi_startproc
 567              		@ args = 0, pretend = 0, frame = 0
ARM GAS  /tmp/ccWP2owg.s 			page 43


 568              		@ frame_needed = 0, uses_anonymous_args = 0
 569              		@ link register save eliminated.
 600:external/drivers/stm32wlxx/src/stm32wlxx_hal_pwr.c **** #ifdef CORE_CM0PLUS
 601:external/drivers/stm32wlxx/src/stm32wlxx_hal_pwr.c ****   /* Set Stand-by mode */
 602:external/drivers/stm32wlxx/src/stm32wlxx_hal_pwr.c ****   MODIFY_REG(PWR->C2CR1, PWR_C2CR1_LPMS, PWR_LOWPOWERMODE_STANDBY);
 603:external/drivers/stm32wlxx/src/stm32wlxx_hal_pwr.c **** #else
 604:external/drivers/stm32wlxx/src/stm32wlxx_hal_pwr.c ****   /* Set Stand-by mode */
 605:external/drivers/stm32wlxx/src/stm32wlxx_hal_pwr.c ****   MODIFY_REG(PWR->CR1, PWR_CR1_LPMS, PWR_LOWPOWERMODE_STANDBY);
 570              		.loc 1 605 3 view .LVU117
 571 0000 064A     		ldr	r2, .L44
 572 0002 1368     		ldr	r3, [r2]
 573 0004 23F00703 		bic	r3, r3, #7
 574 0008 43F00303 		orr	r3, r3, #3
 575 000c 1360     		str	r3, [r2]
 606:external/drivers/stm32wlxx/src/stm32wlxx_hal_pwr.c **** #endif /* CORE_CM0PLUS */
 607:external/drivers/stm32wlxx/src/stm32wlxx_hal_pwr.c **** 
 608:external/drivers/stm32wlxx/src/stm32wlxx_hal_pwr.c ****   /* Set SLEEPDEEP bit of Cortex System Control Register */
 609:external/drivers/stm32wlxx/src/stm32wlxx_hal_pwr.c ****   SET_BIT(SCB->SCR, ((uint32_t)SCB_SCR_SLEEPDEEP_Msk));
 576              		.loc 1 609 3 view .LVU118
 577 000e 044A     		ldr	r2, .L44+4
 578 0010 1369     		ldr	r3, [r2, #16]
 579 0012 43F00403 		orr	r3, r3, #4
 580 0016 1361     		str	r3, [r2, #16]
 610:external/drivers/stm32wlxx/src/stm32wlxx_hal_pwr.c **** 
 611:external/drivers/stm32wlxx/src/stm32wlxx_hal_pwr.c ****   /* This option is used to ensure that store operations are completed */
 612:external/drivers/stm32wlxx/src/stm32wlxx_hal_pwr.c **** #if defined (__CC_ARM)
 613:external/drivers/stm32wlxx/src/stm32wlxx_hal_pwr.c ****   __force_stores();
 614:external/drivers/stm32wlxx/src/stm32wlxx_hal_pwr.c **** #endif /* __CC_ARM */
 615:external/drivers/stm32wlxx/src/stm32wlxx_hal_pwr.c **** 
 616:external/drivers/stm32wlxx/src/stm32wlxx_hal_pwr.c ****   /* Request Wait For Interrupt */
 617:external/drivers/stm32wlxx/src/stm32wlxx_hal_pwr.c ****   __WFI();
 581              		.loc 1 617 3 view .LVU119
 582              		.syntax unified
 583              	@ 617 "external/drivers/stm32wlxx/src/stm32wlxx_hal_pwr.c" 1
 584 0018 30BF     		wfi
 585              	@ 0 "" 2
 618:external/drivers/stm32wlxx/src/stm32wlxx_hal_pwr.c **** 
 619:external/drivers/stm32wlxx/src/stm32wlxx_hal_pwr.c ****   /* Note: After this request to enter in Standby mode, at wake-up, program
 620:external/drivers/stm32wlxx/src/stm32wlxx_hal_pwr.c ****            execution depends on system low-power mode:
 621:external/drivers/stm32wlxx/src/stm32wlxx_hal_pwr.c ****            - If system was in Standby mode (other CPU in Standby or Shutdown),
 622:external/drivers/stm32wlxx/src/stm32wlxx_hal_pwr.c ****              then at wake-up program restarts at reset state
 623:external/drivers/stm32wlxx/src/stm32wlxx_hal_pwr.c ****            - If system was in Run or Stop mode (other CPU in Run, Sleep, Stop),
 624:external/drivers/stm32wlxx/src/stm32wlxx_hal_pwr.c ****              then at wake-up program continues from this point
 625:external/drivers/stm32wlxx/src/stm32wlxx_hal_pwr.c ****   */
 626:external/drivers/stm32wlxx/src/stm32wlxx_hal_pwr.c **** }
 586              		.loc 1 626 1 is_stmt 0 view .LVU120
 587              		.thumb
 588              		.syntax unified
 589 001a 7047     		bx	lr
 590              	.L45:
 591              		.align	2
 592              	.L44:
 593 001c 00040058 		.word	1476396032
 594 0020 00ED00E0 		.word	-536810240
 595              		.cfi_endproc
 596              	.LFE854:
 598              		.section	.text.HAL_PWR_EnableSleepOnExit,"ax",%progbits
ARM GAS  /tmp/ccWP2owg.s 			page 44


 599              		.align	1
 600              		.global	HAL_PWR_EnableSleepOnExit
 601              		.syntax unified
 602              		.thumb
 603              		.thumb_func
 605              	HAL_PWR_EnableSleepOnExit:
 606              	.LFB855:
 627:external/drivers/stm32wlxx/src/stm32wlxx_hal_pwr.c **** 
 628:external/drivers/stm32wlxx/src/stm32wlxx_hal_pwr.c **** /**
 629:external/drivers/stm32wlxx/src/stm32wlxx_hal_pwr.c ****   * @brief  Indicate Sleep-On-Exit when returning from Handler mode to Thread mode.
 630:external/drivers/stm32wlxx/src/stm32wlxx_hal_pwr.c ****   * @note   Set SLEEPONEXIT bit of SCR register. When this bit is set, the processor
 631:external/drivers/stm32wlxx/src/stm32wlxx_hal_pwr.c ****   *         re-enters SLEEP mode when an interruption handling is over.
 632:external/drivers/stm32wlxx/src/stm32wlxx_hal_pwr.c ****   *         Setting this bit is useful when the processor is expected to run only on
 633:external/drivers/stm32wlxx/src/stm32wlxx_hal_pwr.c ****   *         interruptions handling.
 634:external/drivers/stm32wlxx/src/stm32wlxx_hal_pwr.c ****   * @retval None
 635:external/drivers/stm32wlxx/src/stm32wlxx_hal_pwr.c ****   */
 636:external/drivers/stm32wlxx/src/stm32wlxx_hal_pwr.c **** void HAL_PWR_EnableSleepOnExit(void)
 637:external/drivers/stm32wlxx/src/stm32wlxx_hal_pwr.c **** {
 607              		.loc 1 637 1 is_stmt 1 view -0
 608              		.cfi_startproc
 609              		@ args = 0, pretend = 0, frame = 0
 610              		@ frame_needed = 0, uses_anonymous_args = 0
 611              		@ link register save eliminated.
 638:external/drivers/stm32wlxx/src/stm32wlxx_hal_pwr.c ****   /* Set SLEEPONEXIT bit of Cortex System Control Register */
 639:external/drivers/stm32wlxx/src/stm32wlxx_hal_pwr.c ****   SET_BIT(SCB->SCR, ((uint32_t)SCB_SCR_SLEEPONEXIT_Msk));
 612              		.loc 1 639 3 view .LVU122
 613 0000 024A     		ldr	r2, .L47
 614 0002 1369     		ldr	r3, [r2, #16]
 615 0004 43F00203 		orr	r3, r3, #2
 616 0008 1361     		str	r3, [r2, #16]
 640:external/drivers/stm32wlxx/src/stm32wlxx_hal_pwr.c **** }
 617              		.loc 1 640 1 is_stmt 0 view .LVU123
 618 000a 7047     		bx	lr
 619              	.L48:
 620              		.align	2
 621              	.L47:
 622 000c 00ED00E0 		.word	-536810240
 623              		.cfi_endproc
 624              	.LFE855:
 626              		.section	.text.HAL_PWR_DisableSleepOnExit,"ax",%progbits
 627              		.align	1
 628              		.global	HAL_PWR_DisableSleepOnExit
 629              		.syntax unified
 630              		.thumb
 631              		.thumb_func
 633              	HAL_PWR_DisableSleepOnExit:
 634              	.LFB856:
 641:external/drivers/stm32wlxx/src/stm32wlxx_hal_pwr.c **** 
 642:external/drivers/stm32wlxx/src/stm32wlxx_hal_pwr.c **** /**
 643:external/drivers/stm32wlxx/src/stm32wlxx_hal_pwr.c ****   * @brief  Disable Sleep-On-Exit feature when returning from Handler mode to Thread mode.
 644:external/drivers/stm32wlxx/src/stm32wlxx_hal_pwr.c ****   * @note   Clear SLEEPONEXIT bit of SCR register. When this bit is set, the processor
 645:external/drivers/stm32wlxx/src/stm32wlxx_hal_pwr.c ****   *         re-enters SLEEP mode when an interruption handling is over.
 646:external/drivers/stm32wlxx/src/stm32wlxx_hal_pwr.c ****   * @retval None
 647:external/drivers/stm32wlxx/src/stm32wlxx_hal_pwr.c ****   */
 648:external/drivers/stm32wlxx/src/stm32wlxx_hal_pwr.c **** void HAL_PWR_DisableSleepOnExit(void)
 649:external/drivers/stm32wlxx/src/stm32wlxx_hal_pwr.c **** {
 635              		.loc 1 649 1 is_stmt 1 view -0
ARM GAS  /tmp/ccWP2owg.s 			page 45


 636              		.cfi_startproc
 637              		@ args = 0, pretend = 0, frame = 0
 638              		@ frame_needed = 0, uses_anonymous_args = 0
 639              		@ link register save eliminated.
 650:external/drivers/stm32wlxx/src/stm32wlxx_hal_pwr.c ****   /* Clear SLEEPONEXIT bit of Cortex System Control Register */
 651:external/drivers/stm32wlxx/src/stm32wlxx_hal_pwr.c ****   CLEAR_BIT(SCB->SCR, ((uint32_t)SCB_SCR_SLEEPONEXIT_Msk));
 640              		.loc 1 651 3 view .LVU125
 641 0000 024A     		ldr	r2, .L50
 642 0002 1369     		ldr	r3, [r2, #16]
 643 0004 23F00203 		bic	r3, r3, #2
 644 0008 1361     		str	r3, [r2, #16]
 652:external/drivers/stm32wlxx/src/stm32wlxx_hal_pwr.c **** }
 645              		.loc 1 652 1 is_stmt 0 view .LVU126
 646 000a 7047     		bx	lr
 647              	.L51:
 648              		.align	2
 649              	.L50:
 650 000c 00ED00E0 		.word	-536810240
 651              		.cfi_endproc
 652              	.LFE856:
 654              		.section	.text.HAL_PWR_EnableSEVOnPend,"ax",%progbits
 655              		.align	1
 656              		.global	HAL_PWR_EnableSEVOnPend
 657              		.syntax unified
 658              		.thumb
 659              		.thumb_func
 661              	HAL_PWR_EnableSEVOnPend:
 662              	.LFB857:
 653:external/drivers/stm32wlxx/src/stm32wlxx_hal_pwr.c **** 
 654:external/drivers/stm32wlxx/src/stm32wlxx_hal_pwr.c **** /**
 655:external/drivers/stm32wlxx/src/stm32wlxx_hal_pwr.c ****   * @brief Enable CPU SEVONPEND bit.
 656:external/drivers/stm32wlxx/src/stm32wlxx_hal_pwr.c ****   * @note Set SEVONPEND bit of SCR register. When this bit is set, this causes
 657:external/drivers/stm32wlxx/src/stm32wlxx_hal_pwr.c ****   *       WFE to wake up when an interrupt moves from inactive to pended.
 658:external/drivers/stm32wlxx/src/stm32wlxx_hal_pwr.c ****   * @retval None
 659:external/drivers/stm32wlxx/src/stm32wlxx_hal_pwr.c ****   */
 660:external/drivers/stm32wlxx/src/stm32wlxx_hal_pwr.c **** void HAL_PWR_EnableSEVOnPend(void)
 661:external/drivers/stm32wlxx/src/stm32wlxx_hal_pwr.c **** {
 663              		.loc 1 661 1 is_stmt 1 view -0
 664              		.cfi_startproc
 665              		@ args = 0, pretend = 0, frame = 0
 666              		@ frame_needed = 0, uses_anonymous_args = 0
 667              		@ link register save eliminated.
 662:external/drivers/stm32wlxx/src/stm32wlxx_hal_pwr.c ****   /* Set SEVONPEND bit of Cortex System Control Register */
 663:external/drivers/stm32wlxx/src/stm32wlxx_hal_pwr.c ****   SET_BIT(SCB->SCR, ((uint32_t)SCB_SCR_SEVONPEND_Msk));
 668              		.loc 1 663 3 view .LVU128
 669 0000 024A     		ldr	r2, .L53
 670 0002 1369     		ldr	r3, [r2, #16]
 671 0004 43F01003 		orr	r3, r3, #16
 672 0008 1361     		str	r3, [r2, #16]
 664:external/drivers/stm32wlxx/src/stm32wlxx_hal_pwr.c **** }
 673              		.loc 1 664 1 is_stmt 0 view .LVU129
 674 000a 7047     		bx	lr
 675              	.L54:
 676              		.align	2
 677              	.L53:
 678 000c 00ED00E0 		.word	-536810240
 679              		.cfi_endproc
ARM GAS  /tmp/ccWP2owg.s 			page 46


 680              	.LFE857:
 682              		.section	.text.HAL_PWR_DisableSEVOnPend,"ax",%progbits
 683              		.align	1
 684              		.global	HAL_PWR_DisableSEVOnPend
 685              		.syntax unified
 686              		.thumb
 687              		.thumb_func
 689              	HAL_PWR_DisableSEVOnPend:
 690              	.LFB858:
 665:external/drivers/stm32wlxx/src/stm32wlxx_hal_pwr.c **** 
 666:external/drivers/stm32wlxx/src/stm32wlxx_hal_pwr.c **** /**
 667:external/drivers/stm32wlxx/src/stm32wlxx_hal_pwr.c ****   * @brief Disable CPU SEVONPEND bit.
 668:external/drivers/stm32wlxx/src/stm32wlxx_hal_pwr.c ****   * @note Clear SEVONPEND bit of SCR register. When this bit is set, this causes
 669:external/drivers/stm32wlxx/src/stm32wlxx_hal_pwr.c ****   *       WFE to wake up when an interrupt moves from inactive to pended.
 670:external/drivers/stm32wlxx/src/stm32wlxx_hal_pwr.c ****   * @retval None
 671:external/drivers/stm32wlxx/src/stm32wlxx_hal_pwr.c ****   */
 672:external/drivers/stm32wlxx/src/stm32wlxx_hal_pwr.c **** void HAL_PWR_DisableSEVOnPend(void)
 673:external/drivers/stm32wlxx/src/stm32wlxx_hal_pwr.c **** {
 691              		.loc 1 673 1 is_stmt 1 view -0
 692              		.cfi_startproc
 693              		@ args = 0, pretend = 0, frame = 0
 694              		@ frame_needed = 0, uses_anonymous_args = 0
 695              		@ link register save eliminated.
 674:external/drivers/stm32wlxx/src/stm32wlxx_hal_pwr.c ****   /* Clear SEVONPEND bit of Cortex System Control Register */
 675:external/drivers/stm32wlxx/src/stm32wlxx_hal_pwr.c ****   CLEAR_BIT(SCB->SCR, ((uint32_t)SCB_SCR_SEVONPEND_Msk));
 696              		.loc 1 675 3 view .LVU131
 697 0000 024A     		ldr	r2, .L56
 698 0002 1369     		ldr	r3, [r2, #16]
 699 0004 23F01003 		bic	r3, r3, #16
 700 0008 1361     		str	r3, [r2, #16]
 676:external/drivers/stm32wlxx/src/stm32wlxx_hal_pwr.c **** }
 701              		.loc 1 676 1 is_stmt 0 view .LVU132
 702 000a 7047     		bx	lr
 703              	.L57:
 704              		.align	2
 705              	.L56:
 706 000c 00ED00E0 		.word	-536810240
 707              		.cfi_endproc
 708              	.LFE858:
 710              		.section	.text.HAL_PWR_PVDCallback,"ax",%progbits
 711              		.align	1
 712              		.weak	HAL_PWR_PVDCallback
 713              		.syntax unified
 714              		.thumb
 715              		.thumb_func
 717              	HAL_PWR_PVDCallback:
 718              	.LFB859:
 677:external/drivers/stm32wlxx/src/stm32wlxx_hal_pwr.c **** 
 678:external/drivers/stm32wlxx/src/stm32wlxx_hal_pwr.c **** /**
 679:external/drivers/stm32wlxx/src/stm32wlxx_hal_pwr.c ****   * @brief  PWR PVD interrupt callback
 680:external/drivers/stm32wlxx/src/stm32wlxx_hal_pwr.c ****   * @retval None
 681:external/drivers/stm32wlxx/src/stm32wlxx_hal_pwr.c ****   */
 682:external/drivers/stm32wlxx/src/stm32wlxx_hal_pwr.c **** __weak void HAL_PWR_PVDCallback(void)
 683:external/drivers/stm32wlxx/src/stm32wlxx_hal_pwr.c **** {
 719              		.loc 1 683 1 is_stmt 1 view -0
 720              		.cfi_startproc
 721              		@ args = 0, pretend = 0, frame = 0
ARM GAS  /tmp/ccWP2owg.s 			page 47


 722              		@ frame_needed = 0, uses_anonymous_args = 0
 723              		@ link register save eliminated.
 684:external/drivers/stm32wlxx/src/stm32wlxx_hal_pwr.c ****   /* NOTE : This function should not be modified; when the callback is needed,
 685:external/drivers/stm32wlxx/src/stm32wlxx_hal_pwr.c ****             the HAL_PWR_PVDCallback can be implemented in the user file
 686:external/drivers/stm32wlxx/src/stm32wlxx_hal_pwr.c ****   */
 687:external/drivers/stm32wlxx/src/stm32wlxx_hal_pwr.c **** }
 724              		.loc 1 687 1 view .LVU134
 725 0000 7047     		bx	lr
 726              		.cfi_endproc
 727              	.LFE859:
 729              		.text
 730              	.Letext0:
 731              		.file 3 "/usr/share/arm-gnu-toolchain-13.3.rel1-x86_64-arm-none-eabi/arm-none-eabi/include/machine
 732              		.file 4 "/usr/share/arm-gnu-toolchain-13.3.rel1-x86_64-arm-none-eabi/arm-none-eabi/include/sys/_st
 733              		.file 5 "external/drivers/cmsis/include/core_cm4.h"
 734              		.file 6 "external/drivers/cmsis/include/stm32wle5xx.h"
 735              		.file 7 "external/drivers/stm32wlxx/include/stm32wlxx_hal_def.h"
 736              		.file 8 "external/drivers/stm32wlxx/include/stm32wlxx_hal_pwr.h"
 737              		.file 9 "external/drivers/stm32wlxx/include/stm32wlxx_hal_pwr_ex.h"
 738              		.file 10 "external/drivers/stm32wlxx/include/stm32wlxx_ll_dma.h"
ARM GAS  /tmp/ccWP2owg.s 			page 48

